
/Users/muhdismaelosman/git/ICT2104MappingDemo/build/MappingDemo.elf:     file format elf32-littlearm

Sections:
Idx Name          Size      VMA       LMA       File off  Algn
  0 .boot2        00000100  10000000  10000000  00001000  2**0
                  CONTENTS, ALLOC, LOAD, READONLY, CODE
  1 .text         0000c078  10000100  10000100  00001100  2**3
                  CONTENTS, ALLOC, LOAD, READONLY, CODE
  2 .rodata       00001e14  1000c178  1000c178  0000d178  2**3
                  CONTENTS, ALLOC, LOAD, READONLY, DATA
  3 .binary_info  00000020  1000df8c  1000df8c  0000ef8c  2**2
                  CONTENTS, ALLOC, LOAD, DATA
  4 .ram_vector_table 000000c0  20000000  20000000  0000fd60  2**2
                  CONTENTS
  5 .data         00000ca0  200000c0  1000dfac  0000f0c0  2**4
                  CONTENTS, ALLOC, LOAD, READONLY, CODE
  6 .uninitialized_data 00000000  20000d60  20000d60  0000fe20  2**0
                  CONTENTS
  7 .scratch_x    00000000  20040000  20040000  0000fe20  2**0
                  CONTENTS
  8 .scratch_y    00000000  20041000  20041000  0000fe20  2**0
                  CONTENTS
  9 .bss          00000dcc  20000d60  20000d60  0000fd60  2**3
                  ALLOC
 10 .heap         00000800  20001b2c  20001b2c  0000fe20  2**2
                  CONTENTS, READONLY
 11 .stack_dummy  00000800  20041000  20041000  00010620  2**5
                  CONTENTS, READONLY
 12 .ARM.attributes 00000028  00000000  00000000  00010e20  2**0
                  CONTENTS, READONLY
 13 .comment      00000049  00000000  00000000  00010e48  2**0
                  CONTENTS, READONLY
 14 .debug_info   000281cb  00000000  00000000  00010e91  2**0
                  CONTENTS, READONLY, DEBUGGING, OCTETS
 15 .debug_abbrev 00006608  00000000  00000000  0003905c  2**0
                  CONTENTS, READONLY, DEBUGGING, OCTETS
 16 .debug_loc    000192b0  00000000  00000000  0003f664  2**0
                  CONTENTS, READONLY, DEBUGGING, OCTETS
 17 .debug_aranges 00001508  00000000  00000000  00058918  2**3
                  CONTENTS, READONLY, DEBUGGING, OCTETS
 18 .debug_ranges 000041d0  00000000  00000000  00059e20  2**3
                  CONTENTS, READONLY, DEBUGGING, OCTETS
 19 .debug_line   00018f08  00000000  00000000  0005dff0  2**0
                  CONTENTS, READONLY, DEBUGGING, OCTETS
 20 .debug_str    00006f82  00000000  00000000  00076ef8  2**0
                  CONTENTS, READONLY, DEBUGGING, OCTETS
 21 .debug_frame  000035e8  00000000  00000000  0007de7c  2**2
                  CONTENTS, READONLY, DEBUGGING, OCTETS
 22 .stab         0000006c  00000000  00000000  00081464  2**2
                  CONTENTS, READONLY, DEBUGGING
 23 .stabstr      000000e3  00000000  00000000  000814d0  2**0
                  CONTENTS, READONLY, DEBUGGING

/Users/muhdismaelosman/git/ICT2104MappingDemo/build/MappingDemo.elf:     file format elf32-littlearm


Disassembly of section .boot2:

10000000 <__boot2_start__>:
10000000:	4b32b500 	.word	0x4b32b500
10000004:	60582021 	.word	0x60582021
10000008:	21026898 	.word	0x21026898
1000000c:	60984388 	.word	0x60984388
10000010:	611860d8 	.word	0x611860d8
10000014:	4b2e6158 	.word	0x4b2e6158
10000018:	60992100 	.word	0x60992100
1000001c:	61592102 	.word	0x61592102
10000020:	22f02101 	.word	0x22f02101
10000024:	492b5099 	.word	0x492b5099
10000028:	21016019 	.word	0x21016019
1000002c:	20356099 	.word	0x20356099
10000030:	f844f000 	.word	0xf844f000
10000034:	42902202 	.word	0x42902202
10000038:	2106d014 	.word	0x2106d014
1000003c:	f0006619 	.word	0xf0006619
10000040:	6e19f834 	.word	0x6e19f834
10000044:	66192101 	.word	0x66192101
10000048:	66182000 	.word	0x66182000
1000004c:	f000661a 	.word	0xf000661a
10000050:	6e19f82c 	.word	0x6e19f82c
10000054:	6e196e19 	.word	0x6e196e19
10000058:	f0002005 	.word	0xf0002005
1000005c:	2101f82f 	.word	0x2101f82f
10000060:	d1f94208 	.word	0xd1f94208
10000064:	60992100 	.word	0x60992100
10000068:	6019491b 	.word	0x6019491b
1000006c:	60592100 	.word	0x60592100
10000070:	481b491a 	.word	0x481b491a
10000074:	21016001 	.word	0x21016001
10000078:	21eb6099 	.word	0x21eb6099
1000007c:	21a06619 	.word	0x21a06619
10000080:	f0006619 	.word	0xf0006619
10000084:	2100f812 	.word	0x2100f812
10000088:	49166099 	.word	0x49166099
1000008c:	60014814 	.word	0x60014814
10000090:	60992101 	.word	0x60992101
10000094:	2800bc01 	.word	0x2800bc01
10000098:	4700d000 	.word	0x4700d000
1000009c:	49134812 	.word	0x49134812
100000a0:	c8036008 	.word	0xc8036008
100000a4:	8808f380 	.word	0x8808f380
100000a8:	b5034708 	.word	0xb5034708
100000ac:	20046a99 	.word	0x20046a99
100000b0:	d0fb4201 	.word	0xd0fb4201
100000b4:	42012001 	.word	0x42012001
100000b8:	bd03d1f8 	.word	0xbd03d1f8
100000bc:	6618b502 	.word	0x6618b502
100000c0:	f7ff6618 	.word	0xf7ff6618
100000c4:	6e18fff2 	.word	0x6e18fff2
100000c8:	bd026e18 	.word	0xbd026e18
100000cc:	40020000 	.word	0x40020000
100000d0:	18000000 	.word	0x18000000
100000d4:	00070000 	.word	0x00070000
100000d8:	005f0300 	.word	0x005f0300
100000dc:	00002221 	.word	0x00002221
100000e0:	180000f4 	.word	0x180000f4
100000e4:	a0002022 	.word	0xa0002022
100000e8:	10000100 	.word	0x10000100
100000ec:	e000ed08 	.word	0xe000ed08
	...
100000fc:	7a4eb274 	.word	0x7a4eb274

Disassembly of section .text:

10000100 <__VECTOR_TABLE>:
10000100:	20042000 	.word	0x20042000
10000104:	100001f7 	.word	0x100001f7
10000108:	100001c3 	.word	0x100001c3
1000010c:	100001c5 	.word	0x100001c5
10000110:	100001c1 	.word	0x100001c1
10000114:	100001c1 	.word	0x100001c1
10000118:	100001c1 	.word	0x100001c1
1000011c:	100001c1 	.word	0x100001c1
10000120:	100001c1 	.word	0x100001c1
10000124:	100001c1 	.word	0x100001c1
10000128:	100001c1 	.word	0x100001c1
1000012c:	100001c7 	.word	0x100001c7
10000130:	100001c1 	.word	0x100001c1
10000134:	100001c1 	.word	0x100001c1
10000138:	100001c9 	.word	0x100001c9
1000013c:	100001cb 	.word	0x100001cb
10000140:	100001cd 	.word	0x100001cd
10000144:	100001cd 	.word	0x100001cd
10000148:	100001cd 	.word	0x100001cd
1000014c:	100001cd 	.word	0x100001cd
10000150:	100001cd 	.word	0x100001cd
10000154:	100001cd 	.word	0x100001cd
10000158:	100001cd 	.word	0x100001cd
1000015c:	100001cd 	.word	0x100001cd
10000160:	100001cd 	.word	0x100001cd
10000164:	100001cd 	.word	0x100001cd
10000168:	100001cd 	.word	0x100001cd
1000016c:	100001cd 	.word	0x100001cd
10000170:	100001cd 	.word	0x100001cd
10000174:	100001cd 	.word	0x100001cd
10000178:	100001cd 	.word	0x100001cd
1000017c:	100001cd 	.word	0x100001cd
10000180:	100001cd 	.word	0x100001cd
10000184:	100001cd 	.word	0x100001cd
10000188:	100001cd 	.word	0x100001cd
1000018c:	100001cd 	.word	0x100001cd
10000190:	100001cd 	.word	0x100001cd
10000194:	100001cd 	.word	0x100001cd
10000198:	100001cd 	.word	0x100001cd
1000019c:	100001cd 	.word	0x100001cd
100001a0:	100001cd 	.word	0x100001cd
100001a4:	100001cd 	.word	0x100001cd
100001a8:	100001cd 	.word	0x100001cd
100001ac:	100001cd 	.word	0x100001cd
100001b0:	100001cd 	.word	0x100001cd
100001b4:	100001cd 	.word	0x100001cd
100001b8:	100001cd 	.word	0x100001cd
100001bc:	100001cd 	.word	0x100001cd

100001c0 <isr_invalid>:
100001c0:	be00      	bkpt	0x0000

100001c2 <isr_nmi>:
100001c2:	be00      	bkpt	0x0000

100001c4 <isr_hardfault>:
100001c4:	be00      	bkpt	0x0000

100001c6 <isr_svcall>:
100001c6:	be00      	bkpt	0x0000

100001c8 <isr_pendsv>:
100001c8:	be00      	bkpt	0x0000

100001ca <isr_systick>:
100001ca:	be00      	bkpt	0x0000

100001cc <__unhandled_user_irq>:
100001cc:	f000 f84b 	bl	10000266 <__get_current_exception>
100001d0:	3810      	subs	r0, #16

100001d2 <unhandled_user_irq_num_in_r0>:
100001d2:	be00      	bkpt	0x0000

100001d4 <binary_info_header>:
100001d4:	7188ebf2 	.word	0x7188ebf2
100001d8:	1000df8c 	.word	0x1000df8c
100001dc:	1000dfac 	.word	0x1000dfac
100001e0:	10000234 	.word	0x10000234
100001e4:	e71aa390 	.word	0xe71aa390

100001e8 <_entry_point>:
100001e8:	2000      	movs	r0, #0
100001ea:	4921      	ldr	r1, [pc, #132]	; (10000270 <__get_current_exception+0xa>)
100001ec:	6008      	str	r0, [r1, #0]
100001ee:	c806      	ldmia	r0!, {r1, r2}
100001f0:	f381 8808 	msr	MSP, r1
100001f4:	4710      	bx	r2

100001f6 <_reset_handler>:
100001f6:	481f      	ldr	r0, [pc, #124]	; (10000274 <__get_current_exception+0xe>)
100001f8:	6800      	ldr	r0, [r0, #0]
100001fa:	2800      	cmp	r0, #0
100001fc:	d12f      	bne.n	1000025e <hold_non_core0_in_bootrom>
100001fe:	a40d      	add	r4, pc, #52	; (adr r4, 10000234 <data_cpy_table>)
10000200:	cc0e      	ldmia	r4!, {r1, r2, r3}
10000202:	2900      	cmp	r1, #0
10000204:	d002      	beq.n	1000020c <_reset_handler+0x16>
10000206:	f000 f812 	bl	1000022e <data_cpy>
1000020a:	e7f9      	b.n	10000200 <_reset_handler+0xa>
1000020c:	491a      	ldr	r1, [pc, #104]	; (10000278 <__get_current_exception+0x12>)
1000020e:	4a1b      	ldr	r2, [pc, #108]	; (1000027c <__get_current_exception+0x16>)
10000210:	2000      	movs	r0, #0
10000212:	e000      	b.n	10000216 <bss_fill_test>

10000214 <bss_fill_loop>:
10000214:	c101      	stmia	r1!, {r0}

10000216 <bss_fill_test>:
10000216:	4291      	cmp	r1, r2
10000218:	d1fc      	bne.n	10000214 <bss_fill_loop>

1000021a <platform_entry>:
1000021a:	4919      	ldr	r1, [pc, #100]	; (10000280 <__get_current_exception+0x1a>)
1000021c:	4788      	blx	r1
1000021e:	4919      	ldr	r1, [pc, #100]	; (10000284 <__get_current_exception+0x1e>)
10000220:	4788      	blx	r1
10000222:	4919      	ldr	r1, [pc, #100]	; (10000288 <__get_current_exception+0x22>)
10000224:	4788      	blx	r1
10000226:	be00      	bkpt	0x0000
10000228:	e7fd      	b.n	10000226 <platform_entry+0xc>

1000022a <data_cpy_loop>:
1000022a:	c901      	ldmia	r1!, {r0}
1000022c:	c201      	stmia	r2!, {r0}

1000022e <data_cpy>:
1000022e:	429a      	cmp	r2, r3
10000230:	d3fb      	bcc.n	1000022a <data_cpy_loop>
10000232:	4770      	bx	lr

10000234 <data_cpy_table>:
10000234:	1000dfac 	.word	0x1000dfac
10000238:	200000c0 	.word	0x200000c0
1000023c:	20000d60 	.word	0x20000d60
10000240:	1000ec4c 	.word	0x1000ec4c
10000244:	20040000 	.word	0x20040000
10000248:	20040000 	.word	0x20040000
1000024c:	1000ec4c 	.word	0x1000ec4c
10000250:	20041000 	.word	0x20041000
10000254:	20041000 	.word	0x20041000
10000258:	00000000 	.word	0x00000000
1000025c:	4770      	bx	lr

1000025e <hold_non_core0_in_bootrom>:
1000025e:	480b      	ldr	r0, [pc, #44]	; (1000028c <__get_current_exception+0x26>)
10000260:	f006 fda8 	bl	10006db4 <rom_func_lookup>
10000264:	4700      	bx	r0

10000266 <__get_current_exception>:
10000266:	f3ef 8005 	mrs	r0, IPSR
1000026a:	b2c0      	uxtb	r0, r0
1000026c:	4770      	bx	lr
1000026e:	0000      	.short	0x0000
10000270:	e000ed08 	.word	0xe000ed08
10000274:	d0000000 	.word	0xd0000000
10000278:	20000d60 	.word	0x20000d60
1000027c:	20001b2c 	.word	0x20001b2c
10000280:	100056ed 	.word	0x100056ed
10000284:	1000053d 	.word	0x1000053d
10000288:	100056a9 	.word	0x100056a9
1000028c:	00005657 	.word	0x00005657

10000290 <__bi_50>:
10000290:	50520006 5360b3ab 1000d678              ..RP..`Sx...

1000029c <__bi_38>:
1000029c:	50520006 02031c86 1000d688              ..RP........

100002a8 <__bi_30>:
100002a8:	50520006 9da22254 1000d694              ..RPT"......

100002b4 <__bi_22>:
100002b4:	50520005 68f465de 1000ec4c              ..RP.e.hL...

100002c0 <_init>:
100002c0:	b5f8      	push	{r3, r4, r5, r6, r7, lr}
100002c2:	46c0      	nop			; (mov r8, r8)

100002c4 <__do_global_dtors_aux>:
100002c4:	b510      	push	{r4, lr}
100002c6:	4c06      	ldr	r4, [pc, #24]	; (100002e0 <__do_global_dtors_aux+0x1c>)
100002c8:	7823      	ldrb	r3, [r4, #0]
100002ca:	2b00      	cmp	r3, #0
100002cc:	d107      	bne.n	100002de <__do_global_dtors_aux+0x1a>
100002ce:	4b05      	ldr	r3, [pc, #20]	; (100002e4 <__do_global_dtors_aux+0x20>)
100002d0:	2b00      	cmp	r3, #0
100002d2:	d002      	beq.n	100002da <__do_global_dtors_aux+0x16>
100002d4:	4804      	ldr	r0, [pc, #16]	; (100002e8 <__do_global_dtors_aux+0x24>)
100002d6:	e000      	b.n	100002da <__do_global_dtors_aux+0x16>
100002d8:	bf00      	nop
100002da:	2301      	movs	r3, #1
100002dc:	7023      	strb	r3, [r4, #0]
100002de:	bd10      	pop	{r4, pc}
100002e0:	20000e68 	.word	0x20000e68
100002e4:	00000000 	.word	0x00000000
100002e8:	1000c178 	.word	0x1000c178

100002ec <frame_dummy>:
100002ec:	4b04      	ldr	r3, [pc, #16]	; (10000300 <frame_dummy+0x14>)
100002ee:	b510      	push	{r4, lr}
100002f0:	2b00      	cmp	r3, #0
100002f2:	d003      	beq.n	100002fc <frame_dummy+0x10>
100002f4:	4903      	ldr	r1, [pc, #12]	; (10000304 <frame_dummy+0x18>)
100002f6:	4804      	ldr	r0, [pc, #16]	; (10000308 <frame_dummy+0x1c>)
100002f8:	e000      	b.n	100002fc <frame_dummy+0x10>
100002fa:	bf00      	nop
100002fc:	bd10      	pop	{r4, pc}
100002fe:	46c0      	nop			; (mov r8, r8)
10000300:	00000000 	.word	0x00000000
10000304:	20000e6c 	.word	0x20000e6c
10000308:	1000c178 	.word	0x1000c178

1000030c <ifReachStartingPoint>:
1000030c:	b510      	push	{r4, lr}
1000030e:	a805      	add	r0, sp, #20
10000310:	7804      	ldrb	r4, [r0, #0]
10000312:	a806      	add	r0, sp, #24
10000314:	7800      	ldrb	r0, [r0, #0]
10000316:	428a      	cmp	r2, r1
10000318:	d000      	beq.n	1000031c <ifReachStartingPoint+0x10>
1000031a:	bd10      	pop	{r4, pc}
1000031c:	4284      	cmp	r4, r0
1000031e:	d003      	beq.n	10000328 <ifReachStartingPoint+0x1c>
10000320:	480a      	ldr	r0, [pc, #40]	; (1000034c <ifReachStartingPoint+0x40>)
10000322:	f007 fe4b 	bl	10007fbc <__wrap_puts>
10000326:	e7f8      	b.n	1000031a <ifReachStartingPoint+0xe>
10000328:	2b46      	cmp	r3, #70	; 0x46
1000032a:	d007      	beq.n	1000033c <ifReachStartingPoint+0x30>
1000032c:	2b52      	cmp	r3, #82	; 0x52
1000032e:	d009      	beq.n	10000344 <ifReachStartingPoint+0x38>
10000330:	2b4c      	cmp	r3, #76	; 0x4c
10000332:	d1f5      	bne.n	10000320 <ifReachStartingPoint+0x14>
10000334:	3b4b      	subs	r3, #75	; 0x4b
10000336:	9a03      	ldr	r2, [sp, #12]
10000338:	7013      	strb	r3, [r2, #0]
1000033a:	e7f1      	b.n	10000320 <ifReachStartingPoint+0x14>
1000033c:	2201      	movs	r2, #1
1000033e:	9902      	ldr	r1, [sp, #8]
10000340:	700a      	strb	r2, [r1, #0]
10000342:	e7f3      	b.n	1000032c <ifReachStartingPoint+0x20>
10000344:	2201      	movs	r2, #1
10000346:	9904      	ldr	r1, [sp, #16]
10000348:	700a      	strb	r2, [r1, #0]
1000034a:	e7f1      	b.n	10000330 <ifReachStartingPoint+0x24>
1000034c:	1000c178 	.word	0x1000c178

10000350 <moveForward>:
10000350:	b5f0      	push	{r4, r5, r6, r7, lr}
10000352:	46ce      	mov	lr, r9
10000354:	4647      	mov	r7, r8
10000356:	b580      	push	{r7, lr}
10000358:	b083      	sub	sp, #12
1000035a:	0005      	movs	r5, r0
1000035c:	000c      	movs	r4, r1
1000035e:	0016      	movs	r6, r2
10000360:	ab0a      	add	r3, sp, #40	; 0x28
10000362:	781b      	ldrb	r3, [r3, #0]
10000364:	4699      	mov	r9, r3
10000366:	ab0b      	add	r3, sp, #44	; 0x2c
10000368:	781b      	ldrb	r3, [r3, #0]
1000036a:	4698      	mov	r8, r3
1000036c:	4816      	ldr	r0, [pc, #88]	; (100003c8 <moveForward+0x78>)
1000036e:	f007 fe25 	bl	10007fbc <__wrap_puts>
10000372:	6827      	ldr	r7, [r4, #0]
10000374:	0033      	movs	r3, r6
10000376:	2246      	movs	r2, #70	; 0x46
10000378:	2104      	movs	r1, #4
1000037a:	0038      	movs	r0, r7
1000037c:	f003 fb62 	bl	10003a44 <nextGrid>
10000380:	0002      	movs	r2, r0
10000382:	6020      	str	r0, [r4, #0]
10000384:	0039      	movs	r1, r7
10000386:	0028      	movs	r0, r5
10000388:	f003 f933 	bl	100035f2 <addEdge>
1000038c:	9600      	str	r6, [sp, #0]
1000038e:	2346      	movs	r3, #70	; 0x46
10000390:	6822      	ldr	r2, [r4, #0]
10000392:	0039      	movs	r1, r7
10000394:	0028      	movs	r0, r5
10000396:	f002 ff35 	bl	10003204 <addDirection>
1000039a:	464b      	mov	r3, r9
1000039c:	2b00      	cmp	r3, #0
1000039e:	d107      	bne.n	100003b0 <moveForward+0x60>
100003a0:	4643      	mov	r3, r8
100003a2:	2b00      	cmp	r3, #0
100003a4:	d10a      	bne.n	100003bc <moveForward+0x6c>
100003a6:	b003      	add	sp, #12
100003a8:	bcc0      	pop	{r6, r7}
100003aa:	46b9      	mov	r9, r7
100003ac:	46b0      	mov	r8, r6
100003ae:	bdf0      	pop	{r4, r5, r6, r7, pc}
100003b0:	6822      	ldr	r2, [r4, #0]
100003b2:	0039      	movs	r1, r7
100003b4:	0028      	movs	r0, r5
100003b6:	f003 f951 	bl	1000365c <addBarcode>
100003ba:	e7f1      	b.n	100003a0 <moveForward+0x50>
100003bc:	6822      	ldr	r2, [r4, #0]
100003be:	0039      	movs	r1, r7
100003c0:	0028      	movs	r0, r5
100003c2:	f003 f980 	bl	100036c6 <addHump>
100003c6:	e7ee      	b.n	100003a6 <moveForward+0x56>
100003c8:	1000c190 	.word	0x1000c190

100003cc <turnRight>:
100003cc:	b5f0      	push	{r4, r5, r6, r7, lr}
100003ce:	46d6      	mov	lr, sl
100003d0:	464f      	mov	r7, r9
100003d2:	4646      	mov	r6, r8
100003d4:	b5c0      	push	{r6, r7, lr}
100003d6:	b082      	sub	sp, #8
100003d8:	0005      	movs	r5, r0
100003da:	000c      	movs	r4, r1
100003dc:	0017      	movs	r7, r2
100003de:	469a      	mov	sl, r3
100003e0:	ab0a      	add	r3, sp, #40	; 0x28
100003e2:	781b      	ldrb	r3, [r3, #0]
100003e4:	4699      	mov	r9, r3
100003e6:	ab0b      	add	r3, sp, #44	; 0x2c
100003e8:	781b      	ldrb	r3, [r3, #0]
100003ea:	4698      	mov	r8, r3
100003ec:	4818      	ldr	r0, [pc, #96]	; (10000450 <turnRight+0x84>)
100003ee:	f007 fde5 	bl	10007fbc <__wrap_puts>
100003f2:	6826      	ldr	r6, [r4, #0]
100003f4:	4653      	mov	r3, sl
100003f6:	601e      	str	r6, [r3, #0]
100003f8:	003b      	movs	r3, r7
100003fa:	2252      	movs	r2, #82	; 0x52
100003fc:	2104      	movs	r1, #4
100003fe:	0030      	movs	r0, r6
10000400:	f003 fb20 	bl	10003a44 <nextGrid>
10000404:	0002      	movs	r2, r0
10000406:	6020      	str	r0, [r4, #0]
10000408:	0031      	movs	r1, r6
1000040a:	0028      	movs	r0, r5
1000040c:	f003 f8f1 	bl	100035f2 <addEdge>
10000410:	9700      	str	r7, [sp, #0]
10000412:	2352      	movs	r3, #82	; 0x52
10000414:	6822      	ldr	r2, [r4, #0]
10000416:	0031      	movs	r1, r6
10000418:	0028      	movs	r0, r5
1000041a:	f002 fef3 	bl	10003204 <addDirection>
1000041e:	464b      	mov	r3, r9
10000420:	2b00      	cmp	r3, #0
10000422:	d108      	bne.n	10000436 <turnRight+0x6a>
10000424:	4643      	mov	r3, r8
10000426:	2b00      	cmp	r3, #0
10000428:	d10b      	bne.n	10000442 <turnRight+0x76>
1000042a:	b002      	add	sp, #8
1000042c:	bce0      	pop	{r5, r6, r7}
1000042e:	46ba      	mov	sl, r7
10000430:	46b1      	mov	r9, r6
10000432:	46a8      	mov	r8, r5
10000434:	bdf0      	pop	{r4, r5, r6, r7, pc}
10000436:	6822      	ldr	r2, [r4, #0]
10000438:	0031      	movs	r1, r6
1000043a:	0028      	movs	r0, r5
1000043c:	f003 f90e 	bl	1000365c <addBarcode>
10000440:	e7f0      	b.n	10000424 <turnRight+0x58>
10000442:	6822      	ldr	r2, [r4, #0]
10000444:	0031      	movs	r1, r6
10000446:	0028      	movs	r0, r5
10000448:	f003 f93d 	bl	100036c6 <addHump>
1000044c:	e7ed      	b.n	1000042a <turnRight+0x5e>
1000044e:	46c0      	nop			; (mov r8, r8)
10000450:	1000c1a0 	.word	0x1000c1a0

10000454 <turnLeft>:
10000454:	b5f0      	push	{r4, r5, r6, r7, lr}
10000456:	46d6      	mov	lr, sl
10000458:	464f      	mov	r7, r9
1000045a:	4646      	mov	r6, r8
1000045c:	b5c0      	push	{r6, r7, lr}
1000045e:	b082      	sub	sp, #8
10000460:	0005      	movs	r5, r0
10000462:	000c      	movs	r4, r1
10000464:	0017      	movs	r7, r2
10000466:	469a      	mov	sl, r3
10000468:	ab0a      	add	r3, sp, #40	; 0x28
1000046a:	781b      	ldrb	r3, [r3, #0]
1000046c:	4699      	mov	r9, r3
1000046e:	ab0b      	add	r3, sp, #44	; 0x2c
10000470:	781b      	ldrb	r3, [r3, #0]
10000472:	4698      	mov	r8, r3
10000474:	4818      	ldr	r0, [pc, #96]	; (100004d8 <turnLeft+0x84>)
10000476:	f007 fda1 	bl	10007fbc <__wrap_puts>
1000047a:	6826      	ldr	r6, [r4, #0]
1000047c:	4653      	mov	r3, sl
1000047e:	601e      	str	r6, [r3, #0]
10000480:	003b      	movs	r3, r7
10000482:	224c      	movs	r2, #76	; 0x4c
10000484:	2104      	movs	r1, #4
10000486:	0030      	movs	r0, r6
10000488:	f003 fadc 	bl	10003a44 <nextGrid>
1000048c:	0002      	movs	r2, r0
1000048e:	6020      	str	r0, [r4, #0]
10000490:	0031      	movs	r1, r6
10000492:	0028      	movs	r0, r5
10000494:	f003 f8ad 	bl	100035f2 <addEdge>
10000498:	9700      	str	r7, [sp, #0]
1000049a:	234c      	movs	r3, #76	; 0x4c
1000049c:	6822      	ldr	r2, [r4, #0]
1000049e:	0031      	movs	r1, r6
100004a0:	0028      	movs	r0, r5
100004a2:	f002 feaf 	bl	10003204 <addDirection>
100004a6:	464b      	mov	r3, r9
100004a8:	2b00      	cmp	r3, #0
100004aa:	d108      	bne.n	100004be <turnLeft+0x6a>
100004ac:	4643      	mov	r3, r8
100004ae:	2b00      	cmp	r3, #0
100004b0:	d10b      	bne.n	100004ca <turnLeft+0x76>
100004b2:	b002      	add	sp, #8
100004b4:	bce0      	pop	{r5, r6, r7}
100004b6:	46ba      	mov	sl, r7
100004b8:	46b1      	mov	r9, r6
100004ba:	46a8      	mov	r8, r5
100004bc:	bdf0      	pop	{r4, r5, r6, r7, pc}
100004be:	6822      	ldr	r2, [r4, #0]
100004c0:	0031      	movs	r1, r6
100004c2:	0028      	movs	r0, r5
100004c4:	f003 f8ca 	bl	1000365c <addBarcode>
100004c8:	e7f0      	b.n	100004ac <turnLeft+0x58>
100004ca:	6822      	ldr	r2, [r4, #0]
100004cc:	0031      	movs	r1, r6
100004ce:	0028      	movs	r0, r5
100004d0:	f003 f8f9 	bl	100036c6 <addHump>
100004d4:	e7ed      	b.n	100004b2 <turnLeft+0x5e>
100004d6:	46c0      	nop			; (mov r8, r8)
100004d8:	1000c1b0 	.word	0x1000c1b0

100004dc <reverseRight>:
100004dc:	b570      	push	{r4, r5, r6, lr}
100004de:	000d      	movs	r5, r1
100004e0:	001c      	movs	r4, r3
100004e2:	4804      	ldr	r0, [pc, #16]	; (100004f4 <reverseRight+0x18>)
100004e4:	f007 fd6a 	bl	10007fbc <__wrap_puts>
100004e8:	682b      	ldr	r3, [r5, #0]
100004ea:	6822      	ldr	r2, [r4, #0]
100004ec:	602a      	str	r2, [r5, #0]
100004ee:	6023      	str	r3, [r4, #0]
100004f0:	bd70      	pop	{r4, r5, r6, pc}
100004f2:	46c0      	nop			; (mov r8, r8)
100004f4:	1000c1c0 	.word	0x1000c1c0

100004f8 <reverseLeft>:
100004f8:	b570      	push	{r4, r5, r6, lr}
100004fa:	000d      	movs	r5, r1
100004fc:	001c      	movs	r4, r3
100004fe:	4804      	ldr	r0, [pc, #16]	; (10000510 <reverseLeft+0x18>)
10000500:	f007 fd5c 	bl	10007fbc <__wrap_puts>
10000504:	682b      	ldr	r3, [r5, #0]
10000506:	6822      	ldr	r2, [r4, #0]
10000508:	602a      	str	r2, [r5, #0]
1000050a:	6023      	str	r3, [r4, #0]
1000050c:	bd70      	pop	{r4, r5, r6, pc}
1000050e:	46c0      	nop			; (mov r8, r8)
10000510:	1000c1d0 	.word	0x1000c1d0

10000514 <reverseBack>:
10000514:	b5f8      	push	{r3, r4, r5, r6, r7, lr}
10000516:	000c      	movs	r4, r1
10000518:	0016      	movs	r6, r2
1000051a:	001d      	movs	r5, r3
1000051c:	4806      	ldr	r0, [pc, #24]	; (10000538 <reverseBack+0x24>)
1000051e:	f007 fd4d 	bl	10007fbc <__wrap_puts>
10000522:	6827      	ldr	r7, [r4, #0]
10000524:	0033      	movs	r3, r6
10000526:	2242      	movs	r2, #66	; 0x42
10000528:	2104      	movs	r1, #4
1000052a:	0038      	movs	r0, r7
1000052c:	f003 fa8a 	bl	10003a44 <nextGrid>
10000530:	6020      	str	r0, [r4, #0]
10000532:	602f      	str	r7, [r5, #0]
10000534:	bdf8      	pop	{r3, r4, r5, r6, r7, pc}
10000536:	46c0      	nop			; (mov r8, r8)
10000538:	1000c1e0 	.word	0x1000c1e0

1000053c <main>:
1000053c:	b5f0      	push	{r4, r5, r6, r7, lr}
1000053e:	46de      	mov	lr, fp
10000540:	4657      	mov	r7, sl
10000542:	464e      	mov	r6, r9
10000544:	4645      	mov	r5, r8
10000546:	b5e0      	push	{r5, r6, r7, lr}
10000548:	b08d      	sub	sp, #52	; 0x34
1000054a:	f007 fd75 	bl	10008038 <stdio_init_all>
1000054e:	2019      	movs	r0, #25
10000550:	f003 fb58 	bl	10003c04 <gpio_init>
10000554:	23d0      	movs	r3, #208	; 0xd0
10000556:	061b      	lsls	r3, r3, #24
10000558:	2280      	movs	r2, #128	; 0x80
1000055a:	0492      	lsls	r2, r2, #18
1000055c:	625a      	str	r2, [r3, #36]	; 0x24
1000055e:	615a      	str	r2, [r3, #20]
10000560:	20fa      	movs	r0, #250	; 0xfa
10000562:	00c0      	lsls	r0, r0, #3
10000564:	f004 fc86 	bl	10004e74 <sleep_ms>
10000568:	4899      	ldr	r0, [pc, #612]	; (100007d0 <main+0x294>)
1000056a:	f007 fd27 	bl	10007fbc <__wrap_puts>
1000056e:	2400      	movs	r4, #0
10000570:	e002      	b.n	10000578 <main+0x3c>
10000572:	4898      	ldr	r0, [pc, #608]	; (100007d4 <main+0x298>)
10000574:	f007 fd22 	bl	10007fbc <__wrap_puts>
10000578:	2c00      	cmp	r4, #0
1000057a:	d114      	bne.n	100005a6 <main+0x6a>
1000057c:	a807      	add	r0, sp, #28
1000057e:	f00a fc1b 	bl	1000adb8 <gets>
10000582:	a907      	add	r1, sp, #28
10000584:	4894      	ldr	r0, [pc, #592]	; (100007d8 <main+0x29c>)
10000586:	f007 fd4b 	bl	10008020 <__wrap_printf>
1000058a:	a807      	add	r0, sp, #28
1000058c:	f00a fb6c 	bl	1000ac68 <atoi>
10000590:	900a      	str	r0, [sp, #40]	; 0x28
10000592:	280f      	cmp	r0, #15
10000594:	dced      	bgt.n	10000572 <main+0x36>
10000596:	4891      	ldr	r0, [pc, #580]	; (100007dc <main+0x2a0>)
10000598:	f007 fd10 	bl	10007fbc <__wrap_puts>
1000059c:	9b0a      	ldr	r3, [sp, #40]	; 0x28
1000059e:	4698      	mov	r8, r3
100005a0:	9309      	str	r3, [sp, #36]	; 0x24
100005a2:	2401      	movs	r4, #1
100005a4:	e7e8      	b.n	10000578 <main+0x3c>
100005a6:	990a      	ldr	r1, [sp, #40]	; 0x28
100005a8:	488d      	ldr	r0, [pc, #564]	; (100007e0 <main+0x2a4>)
100005aa:	f007 fd39 	bl	10008020 <__wrap_printf>
100005ae:	2104      	movs	r1, #4
100005b0:	2004      	movs	r0, #4
100005b2:	f001 fe61 	bl	10002278 <createGraph>
100005b6:	0004      	movs	r4, r0
100005b8:	262f      	movs	r6, #47	; 0x2f
100005ba:	446e      	add	r6, sp
100005bc:	2500      	movs	r5, #0
100005be:	7035      	strb	r5, [r6, #0]
100005c0:	232e      	movs	r3, #46	; 0x2e
100005c2:	446b      	add	r3, sp
100005c4:	701d      	strb	r5, [r3, #0]
100005c6:	232d      	movs	r3, #45	; 0x2d
100005c8:	446b      	add	r3, sp
100005ca:	701d      	strb	r5, [r3, #0]
100005cc:	9b0a      	ldr	r3, [sp, #40]	; 0x28
100005ce:	9309      	str	r3, [sp, #36]	; 0x24
100005d0:	a908      	add	r1, sp, #32
100005d2:	4884      	ldr	r0, [pc, #528]	; (100007e4 <main+0x2a8>)
100005d4:	f00a ff16 	bl	1000b404 <strcpy>
100005d8:	9501      	str	r5, [sp, #4]
100005da:	9500      	str	r5, [sp, #0]
100005dc:	ab09      	add	r3, sp, #36	; 0x24
100005de:	224e      	movs	r2, #78	; 0x4e
100005e0:	a90a      	add	r1, sp, #40	; 0x28
100005e2:	0020      	movs	r0, r4
100005e4:	f7ff feb4 	bl	10000350 <moveForward>
100005e8:	2346      	movs	r3, #70	; 0x46
100005ea:	9a09      	ldr	r2, [sp, #36]	; 0x24
100005ec:	990a      	ldr	r1, [sp, #40]	; 0x28
100005ee:	487e      	ldr	r0, [pc, #504]	; (100007e8 <main+0x2ac>)
100005f0:	f007 fd16 	bl	10008020 <__wrap_printf>
100005f4:	7833      	ldrb	r3, [r6, #0]
100005f6:	2b00      	cmp	r3, #0
100005f8:	d01e      	beq.n	10000638 <main+0xfc>
100005fa:	232d      	movs	r3, #45	; 0x2d
100005fc:	446b      	add	r3, sp
100005fe:	781b      	ldrb	r3, [r3, #0]
10000600:	42ab      	cmp	r3, r5
10000602:	d002      	beq.n	1000060a <main+0xce>
10000604:	2346      	movs	r3, #70	; 0x46
10000606:	4699      	mov	r9, r3
10000608:	e018      	b.n	1000063c <main+0x100>
1000060a:	9b0a      	ldr	r3, [sp, #40]	; 0x28
1000060c:	9309      	str	r3, [sp, #36]	; 0x24
1000060e:	a908      	add	r1, sp, #32
10000610:	4876      	ldr	r0, [pc, #472]	; (100007ec <main+0x2b0>)
10000612:	f00a fef7 	bl	1000b404 <strcpy>
10000616:	9501      	str	r5, [sp, #4]
10000618:	9500      	str	r5, [sp, #0]
1000061a:	ab09      	add	r3, sp, #36	; 0x24
1000061c:	224e      	movs	r2, #78	; 0x4e
1000061e:	a90a      	add	r1, sp, #40	; 0x28
10000620:	0020      	movs	r0, r4
10000622:	f7ff fed3 	bl	100003cc <turnRight>
10000626:	2352      	movs	r3, #82	; 0x52
10000628:	9a09      	ldr	r2, [sp, #36]	; 0x24
1000062a:	990a      	ldr	r1, [sp, #40]	; 0x28
1000062c:	486e      	ldr	r0, [pc, #440]	; (100007e8 <main+0x2ac>)
1000062e:	f007 fcf7 	bl	10008020 <__wrap_printf>
10000632:	2352      	movs	r3, #82	; 0x52
10000634:	4699      	mov	r9, r3
10000636:	e001      	b.n	1000063c <main+0x100>
10000638:	2346      	movs	r3, #70	; 0x46
1000063a:	4699      	mov	r9, r3
1000063c:	232f      	movs	r3, #47	; 0x2f
1000063e:	446b      	add	r3, sp
10000640:	781b      	ldrb	r3, [r3, #0]
10000642:	2b00      	cmp	r3, #0
10000644:	d009      	beq.n	1000065a <main+0x11e>
10000646:	232d      	movs	r3, #45	; 0x2d
10000648:	446b      	add	r3, sp
1000064a:	781b      	ldrb	r3, [r3, #0]
1000064c:	2b00      	cmp	r3, #0
1000064e:	d004      	beq.n	1000065a <main+0x11e>
10000650:	232e      	movs	r3, #46	; 0x2e
10000652:	446b      	add	r3, sp
10000654:	781b      	ldrb	r3, [r3, #0]
10000656:	2b00      	cmp	r3, #0
10000658:	d060      	beq.n	1000071c <main+0x1e0>
1000065a:	232f      	movs	r3, #47	; 0x2f
1000065c:	446b      	add	r3, sp
1000065e:	781b      	ldrb	r3, [r3, #0]
10000660:	2b00      	cmp	r3, #0
10000662:	d018      	beq.n	10000696 <main+0x15a>
10000664:	232d      	movs	r3, #45	; 0x2d
10000666:	446b      	add	r3, sp
10000668:	781b      	ldrb	r3, [r3, #0]
1000066a:	2b00      	cmp	r3, #0
1000066c:	d013      	beq.n	10000696 <main+0x15a>
1000066e:	232e      	movs	r3, #46	; 0x2e
10000670:	446b      	add	r3, sp
10000672:	781b      	ldrb	r3, [r3, #0]
10000674:	2b00      	cmp	r3, #0
10000676:	d00e      	beq.n	10000696 <main+0x15a>
10000678:	464b      	mov	r3, r9
1000067a:	2b52      	cmp	r3, #82	; 0x52
1000067c:	d066      	beq.n	1000074c <main+0x210>
1000067e:	464b      	mov	r3, r9
10000680:	2b4c      	cmp	r3, #76	; 0x4c
10000682:	d06e      	beq.n	10000762 <main+0x226>
10000684:	464b      	mov	r3, r9
10000686:	2b46      	cmp	r3, #70	; 0x46
10000688:	d076      	beq.n	10000778 <main+0x23c>
1000068a:	464b      	mov	r3, r9
1000068c:	9a09      	ldr	r2, [sp, #36]	; 0x24
1000068e:	990a      	ldr	r1, [sp, #40]	; 0x28
10000690:	4857      	ldr	r0, [pc, #348]	; (100007f0 <main+0x2b4>)
10000692:	f007 fcc5 	bl	10008020 <__wrap_printf>
10000696:	9909      	ldr	r1, [sp, #36]	; 0x24
10000698:	0020      	movs	r0, r4
1000069a:	f003 fa2b 	bl	10003af4 <updateGridVisited>
1000069e:	0020      	movs	r0, r4
100006a0:	f003 f980 	bl	100039a4 <checkAllNodesHasAtLeast1Edge>
100006a4:	2800      	cmp	r0, #0
100006a6:	d172      	bne.n	1000078e <main+0x252>
100006a8:	234e      	movs	r3, #78	; 0x4e
100006aa:	9304      	str	r3, [sp, #16]
100006ac:	9303      	str	r3, [sp, #12]
100006ae:	262d      	movs	r6, #45	; 0x2d
100006b0:	446e      	add	r6, sp
100006b2:	9602      	str	r6, [sp, #8]
100006b4:	272e      	movs	r7, #46	; 0x2e
100006b6:	446f      	add	r7, sp
100006b8:	9701      	str	r7, [sp, #4]
100006ba:	252f      	movs	r5, #47	; 0x2f
100006bc:	446d      	add	r5, sp
100006be:	9500      	str	r5, [sp, #0]
100006c0:	464b      	mov	r3, r9
100006c2:	9a0a      	ldr	r2, [sp, #40]	; 0x28
100006c4:	4641      	mov	r1, r8
100006c6:	0020      	movs	r0, r4
100006c8:	f7ff fe20 	bl	1000030c <ifReachStartingPoint>
100006cc:	2301      	movs	r3, #1
100006ce:	702b      	strb	r3, [r5, #0]
100006d0:	2300      	movs	r3, #0
100006d2:	469a      	mov	sl, r3
100006d4:	703b      	strb	r3, [r7, #0]
100006d6:	7033      	strb	r3, [r6, #0]
100006d8:	9b0a      	ldr	r3, [sp, #40]	; 0x28
100006da:	9309      	str	r3, [sp, #36]	; 0x24
100006dc:	a908      	add	r1, sp, #32
100006de:	4843      	ldr	r0, [pc, #268]	; (100007ec <main+0x2b0>)
100006e0:	f00a fe90 	bl	1000b404 <strcpy>
100006e4:	4653      	mov	r3, sl
100006e6:	9301      	str	r3, [sp, #4]
100006e8:	9300      	str	r3, [sp, #0]
100006ea:	ab09      	add	r3, sp, #36	; 0x24
100006ec:	224e      	movs	r2, #78	; 0x4e
100006ee:	a90a      	add	r1, sp, #40	; 0x28
100006f0:	0020      	movs	r0, r4
100006f2:	f7ff fe6b 	bl	100003cc <turnRight>
100006f6:	2352      	movs	r3, #82	; 0x52
100006f8:	9a09      	ldr	r2, [sp, #36]	; 0x24
100006fa:	990a      	ldr	r1, [sp, #40]	; 0x28
100006fc:	483a      	ldr	r0, [pc, #232]	; (100007e8 <main+0x2ac>)
100006fe:	f007 fc8f 	bl	10008020 <__wrap_printf>
10000702:	782b      	ldrb	r3, [r5, #0]
10000704:	2b00      	cmp	r3, #0
10000706:	d079      	beq.n	100007fc <main+0x2c0>
10000708:	7833      	ldrb	r3, [r6, #0]
1000070a:	4553      	cmp	r3, sl
1000070c:	d100      	bne.n	10000710 <main+0x1d4>
1000070e:	e14d      	b.n	100009ac <main+0x470>
10000710:	783b      	ldrb	r3, [r7, #0]
10000712:	4553      	cmp	r3, sl
10000714:	d043      	beq.n	1000079e <main+0x262>
10000716:	2352      	movs	r3, #82	; 0x52
10000718:	469a      	mov	sl, r3
1000071a:	e071      	b.n	10000800 <main+0x2c4>
1000071c:	9b0a      	ldr	r3, [sp, #40]	; 0x28
1000071e:	9309      	str	r3, [sp, #36]	; 0x24
10000720:	a908      	add	r1, sp, #32
10000722:	4834      	ldr	r0, [pc, #208]	; (100007f4 <main+0x2b8>)
10000724:	f00a fe6e 	bl	1000b404 <strcpy>
10000728:	2300      	movs	r3, #0
1000072a:	9301      	str	r3, [sp, #4]
1000072c:	9300      	str	r3, [sp, #0]
1000072e:	ab09      	add	r3, sp, #36	; 0x24
10000730:	224e      	movs	r2, #78	; 0x4e
10000732:	a90a      	add	r1, sp, #40	; 0x28
10000734:	0020      	movs	r0, r4
10000736:	f7ff fe8d 	bl	10000454 <turnLeft>
1000073a:	234c      	movs	r3, #76	; 0x4c
1000073c:	9a09      	ldr	r2, [sp, #36]	; 0x24
1000073e:	990a      	ldr	r1, [sp, #40]	; 0x28
10000740:	4829      	ldr	r0, [pc, #164]	; (100007e8 <main+0x2ac>)
10000742:	f007 fc6d 	bl	10008020 <__wrap_printf>
10000746:	234c      	movs	r3, #76	; 0x4c
10000748:	4699      	mov	r9, r3
1000074a:	e786      	b.n	1000065a <main+0x11e>
1000074c:	ab09      	add	r3, sp, #36	; 0x24
1000074e:	224e      	movs	r2, #78	; 0x4e
10000750:	a90a      	add	r1, sp, #40	; 0x28
10000752:	0020      	movs	r0, r4
10000754:	f7ff fec2 	bl	100004dc <reverseRight>
10000758:	232d      	movs	r3, #45	; 0x2d
1000075a:	446b      	add	r3, sp
1000075c:	2201      	movs	r2, #1
1000075e:	701a      	strb	r2, [r3, #0]
10000760:	e78d      	b.n	1000067e <main+0x142>
10000762:	ab09      	add	r3, sp, #36	; 0x24
10000764:	224e      	movs	r2, #78	; 0x4e
10000766:	a90a      	add	r1, sp, #40	; 0x28
10000768:	0020      	movs	r0, r4
1000076a:	f7ff fec5 	bl	100004f8 <reverseLeft>
1000076e:	232e      	movs	r3, #46	; 0x2e
10000770:	446b      	add	r3, sp
10000772:	2201      	movs	r2, #1
10000774:	701a      	strb	r2, [r3, #0]
10000776:	e785      	b.n	10000684 <main+0x148>
10000778:	ab09      	add	r3, sp, #36	; 0x24
1000077a:	224e      	movs	r2, #78	; 0x4e
1000077c:	a90a      	add	r1, sp, #40	; 0x28
1000077e:	0020      	movs	r0, r4
10000780:	f7ff fec8 	bl	10000514 <reverseBack>
10000784:	232f      	movs	r3, #47	; 0x2f
10000786:	446b      	add	r3, sp
10000788:	2201      	movs	r2, #1
1000078a:	701a      	strb	r2, [r3, #0]
1000078c:	e77d      	b.n	1000068a <main+0x14e>
1000078e:	990a      	ldr	r1, [sp, #40]	; 0x28
10000790:	0020      	movs	r0, r4
10000792:	f003 f9af 	bl	10003af4 <updateGridVisited>
10000796:	4818      	ldr	r0, [pc, #96]	; (100007f8 <main+0x2bc>)
10000798:	f007 fc10 	bl	10007fbc <__wrap_puts>
1000079c:	e784      	b.n	100006a8 <main+0x16c>
1000079e:	9b0a      	ldr	r3, [sp, #40]	; 0x28
100007a0:	9309      	str	r3, [sp, #36]	; 0x24
100007a2:	a908      	add	r1, sp, #32
100007a4:	4813      	ldr	r0, [pc, #76]	; (100007f4 <main+0x2b8>)
100007a6:	f00a fe2d 	bl	1000b404 <strcpy>
100007aa:	4653      	mov	r3, sl
100007ac:	9301      	str	r3, [sp, #4]
100007ae:	9300      	str	r3, [sp, #0]
100007b0:	ab09      	add	r3, sp, #36	; 0x24
100007b2:	224e      	movs	r2, #78	; 0x4e
100007b4:	a90a      	add	r1, sp, #40	; 0x28
100007b6:	0020      	movs	r0, r4
100007b8:	f7ff fe4c 	bl	10000454 <turnLeft>
100007bc:	234c      	movs	r3, #76	; 0x4c
100007be:	9a09      	ldr	r2, [sp, #36]	; 0x24
100007c0:	990a      	ldr	r1, [sp, #40]	; 0x28
100007c2:	4809      	ldr	r0, [pc, #36]	; (100007e8 <main+0x2ac>)
100007c4:	f007 fc2c 	bl	10008020 <__wrap_printf>
100007c8:	234c      	movs	r3, #76	; 0x4c
100007ca:	469a      	mov	sl, r3
100007cc:	e018      	b.n	10000800 <main+0x2c4>
100007ce:	46c0      	nop			; (mov r8, r8)
100007d0:	1000c1e8 	.word	0x1000c1e8
100007d4:	1000c234 	.word	0x1000c234
100007d8:	1000c210 	.word	0x1000c210
100007dc:	1000c21c 	.word	0x1000c21c
100007e0:	1000c258 	.word	0x1000c258
100007e4:	1000c270 	.word	0x1000c270
100007e8:	1000c274 	.word	0x1000c274
100007ec:	1000c2b4 	.word	0x1000c2b4
100007f0:	1000c2bc 	.word	0x1000c2bc
100007f4:	1000c2b8 	.word	0x1000c2b8
100007f8:	1000c304 	.word	0x1000c304
100007fc:	2352      	movs	r3, #82	; 0x52
100007fe:	469a      	mov	sl, r3
10000800:	232f      	movs	r3, #47	; 0x2f
10000802:	446b      	add	r3, sp
10000804:	781b      	ldrb	r3, [r3, #0]
10000806:	2b00      	cmp	r3, #0
10000808:	d01b      	beq.n	10000842 <main+0x306>
1000080a:	232d      	movs	r3, #45	; 0x2d
1000080c:	446b      	add	r3, sp
1000080e:	781b      	ldrb	r3, [r3, #0]
10000810:	2b00      	cmp	r3, #0
10000812:	d016      	beq.n	10000842 <main+0x306>
10000814:	232e      	movs	r3, #46	; 0x2e
10000816:	446b      	add	r3, sp
10000818:	781b      	ldrb	r3, [r3, #0]
1000081a:	2b00      	cmp	r3, #0
1000081c:	d011      	beq.n	10000842 <main+0x306>
1000081e:	4653      	mov	r3, sl
10000820:	2b52      	cmp	r3, #82	; 0x52
10000822:	d100      	bne.n	10000826 <main+0x2ea>
10000824:	e0c5      	b.n	100009b2 <main+0x476>
10000826:	4653      	mov	r3, sl
10000828:	2b4c      	cmp	r3, #76	; 0x4c
1000082a:	d100      	bne.n	1000082e <main+0x2f2>
1000082c:	e0cc      	b.n	100009c8 <main+0x48c>
1000082e:	4653      	mov	r3, sl
10000830:	2b46      	cmp	r3, #70	; 0x46
10000832:	d100      	bne.n	10000836 <main+0x2fa>
10000834:	e0d3      	b.n	100009de <main+0x4a2>
10000836:	4653      	mov	r3, sl
10000838:	9a09      	ldr	r2, [sp, #36]	; 0x24
1000083a:	990a      	ldr	r1, [sp, #40]	; 0x28
1000083c:	48e1      	ldr	r0, [pc, #900]	; (10000bc4 <main+0x688>)
1000083e:	f007 fbef 	bl	10008020 <__wrap_printf>
10000842:	9909      	ldr	r1, [sp, #36]	; 0x24
10000844:	0020      	movs	r0, r4
10000846:	f003 f955 	bl	10003af4 <updateGridVisited>
1000084a:	0020      	movs	r0, r4
1000084c:	f003 f8aa 	bl	100039a4 <checkAllNodesHasAtLeast1Edge>
10000850:	2800      	cmp	r0, #0
10000852:	d000      	beq.n	10000856 <main+0x31a>
10000854:	e0ce      	b.n	100009f4 <main+0x4b8>
10000856:	2345      	movs	r3, #69	; 0x45
10000858:	9304      	str	r3, [sp, #16]
1000085a:	3309      	adds	r3, #9
1000085c:	9303      	str	r3, [sp, #12]
1000085e:	252d      	movs	r5, #45	; 0x2d
10000860:	446d      	add	r5, sp
10000862:	9502      	str	r5, [sp, #8]
10000864:	262e      	movs	r6, #46	; 0x2e
10000866:	446e      	add	r6, sp
10000868:	9601      	str	r6, [sp, #4]
1000086a:	272f      	movs	r7, #47	; 0x2f
1000086c:	446f      	add	r7, sp
1000086e:	9700      	str	r7, [sp, #0]
10000870:	464b      	mov	r3, r9
10000872:	9a0a      	ldr	r2, [sp, #40]	; 0x28
10000874:	4641      	mov	r1, r8
10000876:	0020      	movs	r0, r4
10000878:	f7ff fd48 	bl	1000030c <ifReachStartingPoint>
1000087c:	2301      	movs	r3, #1
1000087e:	703b      	strb	r3, [r7, #0]
10000880:	7033      	strb	r3, [r6, #0]
10000882:	702b      	strb	r3, [r5, #0]
10000884:	4653      	mov	r3, sl
10000886:	2b52      	cmp	r3, #82	; 0x52
10000888:	d100      	bne.n	1000088c <main+0x350>
1000088a:	e0bb      	b.n	10000a04 <main+0x4c8>
1000088c:	4653      	mov	r3, sl
1000088e:	2b4c      	cmp	r3, #76	; 0x4c
10000890:	d100      	bne.n	10000894 <main+0x358>
10000892:	e0c0      	b.n	10000a16 <main+0x4da>
10000894:	4653      	mov	r3, sl
10000896:	2b46      	cmp	r3, #70	; 0x46
10000898:	d100      	bne.n	1000089c <main+0x360>
1000089a:	e0c7      	b.n	10000a2c <main+0x4f0>
1000089c:	4653      	mov	r3, sl
1000089e:	9a09      	ldr	r2, [sp, #36]	; 0x24
100008a0:	990a      	ldr	r1, [sp, #40]	; 0x28
100008a2:	48c8      	ldr	r0, [pc, #800]	; (10000bc4 <main+0x688>)
100008a4:	f007 fbbc 	bl	10008020 <__wrap_printf>
100008a8:	9909      	ldr	r1, [sp, #36]	; 0x24
100008aa:	0020      	movs	r0, r4
100008ac:	f003 f922 	bl	10003af4 <updateGridVisited>
100008b0:	0020      	movs	r0, r4
100008b2:	f003 f877 	bl	100039a4 <checkAllNodesHasAtLeast1Edge>
100008b6:	2800      	cmp	r0, #0
100008b8:	d000      	beq.n	100008bc <main+0x380>
100008ba:	e0c2      	b.n	10000a42 <main+0x506>
100008bc:	234e      	movs	r3, #78	; 0x4e
100008be:	9304      	str	r3, [sp, #16]
100008c0:	9303      	str	r3, [sp, #12]
100008c2:	262d      	movs	r6, #45	; 0x2d
100008c4:	446e      	add	r6, sp
100008c6:	9602      	str	r6, [sp, #8]
100008c8:	272e      	movs	r7, #46	; 0x2e
100008ca:	446f      	add	r7, sp
100008cc:	9701      	str	r7, [sp, #4]
100008ce:	252f      	movs	r5, #47	; 0x2f
100008d0:	446d      	add	r5, sp
100008d2:	9500      	str	r5, [sp, #0]
100008d4:	464b      	mov	r3, r9
100008d6:	9a0a      	ldr	r2, [sp, #40]	; 0x28
100008d8:	4641      	mov	r1, r8
100008da:	0020      	movs	r0, r4
100008dc:	f7ff fd16 	bl	1000030c <ifReachStartingPoint>
100008e0:	2301      	movs	r3, #1
100008e2:	702b      	strb	r3, [r5, #0]
100008e4:	2200      	movs	r2, #0
100008e6:	4692      	mov	sl, r2
100008e8:	703a      	strb	r2, [r7, #0]
100008ea:	7033      	strb	r3, [r6, #0]
100008ec:	9b0a      	ldr	r3, [sp, #40]	; 0x28
100008ee:	9309      	str	r3, [sp, #36]	; 0x24
100008f0:	a908      	add	r1, sp, #32
100008f2:	48b5      	ldr	r0, [pc, #724]	; (10000bc8 <main+0x68c>)
100008f4:	f00a fd86 	bl	1000b404 <strcpy>
100008f8:	4653      	mov	r3, sl
100008fa:	9301      	str	r3, [sp, #4]
100008fc:	9300      	str	r3, [sp, #0]
100008fe:	ab09      	add	r3, sp, #36	; 0x24
10000900:	224e      	movs	r2, #78	; 0x4e
10000902:	a90a      	add	r1, sp, #40	; 0x28
10000904:	0020      	movs	r0, r4
10000906:	f7ff fda5 	bl	10000454 <turnLeft>
1000090a:	234c      	movs	r3, #76	; 0x4c
1000090c:	9a09      	ldr	r2, [sp, #36]	; 0x24
1000090e:	990a      	ldr	r1, [sp, #40]	; 0x28
10000910:	48ae      	ldr	r0, [pc, #696]	; (10000bcc <main+0x690>)
10000912:	f007 fb85 	bl	10008020 <__wrap_printf>
10000916:	782b      	ldrb	r3, [r5, #0]
10000918:	2b00      	cmp	r3, #0
1000091a:	d006      	beq.n	1000092a <main+0x3ee>
1000091c:	7833      	ldrb	r3, [r6, #0]
1000091e:	4553      	cmp	r3, sl
10000920:	d003      	beq.n	1000092a <main+0x3ee>
10000922:	783b      	ldrb	r3, [r7, #0]
10000924:	4553      	cmp	r3, sl
10000926:	d000      	beq.n	1000092a <main+0x3ee>
10000928:	e093      	b.n	10000a52 <main+0x516>
1000092a:	9909      	ldr	r1, [sp, #36]	; 0x24
1000092c:	0020      	movs	r0, r4
1000092e:	f003 f8e1 	bl	10003af4 <updateGridVisited>
10000932:	0020      	movs	r0, r4
10000934:	f003 f836 	bl	100039a4 <checkAllNodesHasAtLeast1Edge>
10000938:	2800      	cmp	r0, #0
1000093a:	d000      	beq.n	1000093e <main+0x402>
1000093c:	e098      	b.n	10000a70 <main+0x534>
1000093e:	2357      	movs	r3, #87	; 0x57
10000940:	9304      	str	r3, [sp, #16]
10000942:	3b09      	subs	r3, #9
10000944:	9303      	str	r3, [sp, #12]
10000946:	262d      	movs	r6, #45	; 0x2d
10000948:	446e      	add	r6, sp
1000094a:	9602      	str	r6, [sp, #8]
1000094c:	272e      	movs	r7, #46	; 0x2e
1000094e:	446f      	add	r7, sp
10000950:	9701      	str	r7, [sp, #4]
10000952:	252f      	movs	r5, #47	; 0x2f
10000954:	446d      	add	r5, sp
10000956:	9500      	str	r5, [sp, #0]
10000958:	464b      	mov	r3, r9
1000095a:	9a0a      	ldr	r2, [sp, #40]	; 0x28
1000095c:	4641      	mov	r1, r8
1000095e:	0020      	movs	r0, r4
10000960:	f7ff fcd4 	bl	1000030c <ifReachStartingPoint>
10000964:	2300      	movs	r3, #0
10000966:	469a      	mov	sl, r3
10000968:	702b      	strb	r3, [r5, #0]
1000096a:	703b      	strb	r3, [r7, #0]
1000096c:	3301      	adds	r3, #1
1000096e:	7033      	strb	r3, [r6, #0]
10000970:	9b0a      	ldr	r3, [sp, #40]	; 0x28
10000972:	9309      	str	r3, [sp, #36]	; 0x24
10000974:	a908      	add	r1, sp, #32
10000976:	4896      	ldr	r0, [pc, #600]	; (10000bd0 <main+0x694>)
10000978:	f00a fd44 	bl	1000b404 <strcpy>
1000097c:	4653      	mov	r3, sl
1000097e:	9301      	str	r3, [sp, #4]
10000980:	9300      	str	r3, [sp, #0]
10000982:	ab09      	add	r3, sp, #36	; 0x24
10000984:	2257      	movs	r2, #87	; 0x57
10000986:	a90a      	add	r1, sp, #40	; 0x28
10000988:	0020      	movs	r0, r4
1000098a:	f7ff fce1 	bl	10000350 <moveForward>
1000098e:	2346      	movs	r3, #70	; 0x46
10000990:	9a09      	ldr	r2, [sp, #36]	; 0x24
10000992:	990a      	ldr	r1, [sp, #40]	; 0x28
10000994:	488d      	ldr	r0, [pc, #564]	; (10000bcc <main+0x690>)
10000996:	f007 fb43 	bl	10008020 <__wrap_printf>
1000099a:	782b      	ldrb	r3, [r5, #0]
1000099c:	2b00      	cmp	r3, #0
1000099e:	d100      	bne.n	100009a2 <main+0x466>
100009a0:	e085      	b.n	10000aae <main+0x572>
100009a2:	7833      	ldrb	r3, [r6, #0]
100009a4:	4553      	cmp	r3, sl
100009a6:	d06b      	beq.n	10000a80 <main+0x544>
100009a8:	2546      	movs	r5, #70	; 0x46
100009aa:	e081      	b.n	10000ab0 <main+0x574>
100009ac:	2352      	movs	r3, #82	; 0x52
100009ae:	469a      	mov	sl, r3
100009b0:	e726      	b.n	10000800 <main+0x2c4>
100009b2:	ab09      	add	r3, sp, #36	; 0x24
100009b4:	224e      	movs	r2, #78	; 0x4e
100009b6:	a90a      	add	r1, sp, #40	; 0x28
100009b8:	0020      	movs	r0, r4
100009ba:	f7ff fd8f 	bl	100004dc <reverseRight>
100009be:	232d      	movs	r3, #45	; 0x2d
100009c0:	446b      	add	r3, sp
100009c2:	2201      	movs	r2, #1
100009c4:	701a      	strb	r2, [r3, #0]
100009c6:	e72e      	b.n	10000826 <main+0x2ea>
100009c8:	ab09      	add	r3, sp, #36	; 0x24
100009ca:	224e      	movs	r2, #78	; 0x4e
100009cc:	a90a      	add	r1, sp, #40	; 0x28
100009ce:	0020      	movs	r0, r4
100009d0:	f7ff fd92 	bl	100004f8 <reverseLeft>
100009d4:	232e      	movs	r3, #46	; 0x2e
100009d6:	446b      	add	r3, sp
100009d8:	2201      	movs	r2, #1
100009da:	701a      	strb	r2, [r3, #0]
100009dc:	e727      	b.n	1000082e <main+0x2f2>
100009de:	ab09      	add	r3, sp, #36	; 0x24
100009e0:	224e      	movs	r2, #78	; 0x4e
100009e2:	a90a      	add	r1, sp, #40	; 0x28
100009e4:	0020      	movs	r0, r4
100009e6:	f7ff fd95 	bl	10000514 <reverseBack>
100009ea:	232f      	movs	r3, #47	; 0x2f
100009ec:	446b      	add	r3, sp
100009ee:	2201      	movs	r2, #1
100009f0:	701a      	strb	r2, [r3, #0]
100009f2:	e720      	b.n	10000836 <main+0x2fa>
100009f4:	990a      	ldr	r1, [sp, #40]	; 0x28
100009f6:	0020      	movs	r0, r4
100009f8:	f003 f87c 	bl	10003af4 <updateGridVisited>
100009fc:	4875      	ldr	r0, [pc, #468]	; (10000bd4 <main+0x698>)
100009fe:	f007 fadd 	bl	10007fbc <__wrap_puts>
10000a02:	e728      	b.n	10000856 <main+0x31a>
10000a04:	ab09      	add	r3, sp, #36	; 0x24
10000a06:	2245      	movs	r2, #69	; 0x45
10000a08:	a90a      	add	r1, sp, #40	; 0x28
10000a0a:	0020      	movs	r0, r4
10000a0c:	f7ff fd66 	bl	100004dc <reverseRight>
10000a10:	2201      	movs	r2, #1
10000a12:	702a      	strb	r2, [r5, #0]
10000a14:	e73a      	b.n	1000088c <main+0x350>
10000a16:	ab09      	add	r3, sp, #36	; 0x24
10000a18:	2245      	movs	r2, #69	; 0x45
10000a1a:	a90a      	add	r1, sp, #40	; 0x28
10000a1c:	0020      	movs	r0, r4
10000a1e:	f7ff fd6b 	bl	100004f8 <reverseLeft>
10000a22:	232e      	movs	r3, #46	; 0x2e
10000a24:	446b      	add	r3, sp
10000a26:	2201      	movs	r2, #1
10000a28:	701a      	strb	r2, [r3, #0]
10000a2a:	e733      	b.n	10000894 <main+0x358>
10000a2c:	ab09      	add	r3, sp, #36	; 0x24
10000a2e:	2245      	movs	r2, #69	; 0x45
10000a30:	a90a      	add	r1, sp, #40	; 0x28
10000a32:	0020      	movs	r0, r4
10000a34:	f7ff fd6e 	bl	10000514 <reverseBack>
10000a38:	232f      	movs	r3, #47	; 0x2f
10000a3a:	446b      	add	r3, sp
10000a3c:	2201      	movs	r2, #1
10000a3e:	701a      	strb	r2, [r3, #0]
10000a40:	e72c      	b.n	1000089c <main+0x360>
10000a42:	990a      	ldr	r1, [sp, #40]	; 0x28
10000a44:	0020      	movs	r0, r4
10000a46:	f003 f855 	bl	10003af4 <updateGridVisited>
10000a4a:	4862      	ldr	r0, [pc, #392]	; (10000bd4 <main+0x698>)
10000a4c:	f007 fab6 	bl	10007fbc <__wrap_puts>
10000a50:	e734      	b.n	100008bc <main+0x380>
10000a52:	ab09      	add	r3, sp, #36	; 0x24
10000a54:	224e      	movs	r2, #78	; 0x4e
10000a56:	a90a      	add	r1, sp, #40	; 0x28
10000a58:	0020      	movs	r0, r4
10000a5a:	f7ff fd4d 	bl	100004f8 <reverseLeft>
10000a5e:	2201      	movs	r2, #1
10000a60:	703a      	strb	r2, [r7, #0]
10000a62:	234c      	movs	r3, #76	; 0x4c
10000a64:	9a09      	ldr	r2, [sp, #36]	; 0x24
10000a66:	990a      	ldr	r1, [sp, #40]	; 0x28
10000a68:	4856      	ldr	r0, [pc, #344]	; (10000bc4 <main+0x688>)
10000a6a:	f007 fad9 	bl	10008020 <__wrap_printf>
10000a6e:	e75c      	b.n	1000092a <main+0x3ee>
10000a70:	990a      	ldr	r1, [sp, #40]	; 0x28
10000a72:	0020      	movs	r0, r4
10000a74:	f003 f83e 	bl	10003af4 <updateGridVisited>
10000a78:	4856      	ldr	r0, [pc, #344]	; (10000bd4 <main+0x698>)
10000a7a:	f007 fa9f 	bl	10007fbc <__wrap_puts>
10000a7e:	e75e      	b.n	1000093e <main+0x402>
10000a80:	9b0a      	ldr	r3, [sp, #40]	; 0x28
10000a82:	9309      	str	r3, [sp, #36]	; 0x24
10000a84:	a908      	add	r1, sp, #32
10000a86:	4854      	ldr	r0, [pc, #336]	; (10000bd8 <main+0x69c>)
10000a88:	f00a fcbc 	bl	1000b404 <strcpy>
10000a8c:	4653      	mov	r3, sl
10000a8e:	9301      	str	r3, [sp, #4]
10000a90:	9300      	str	r3, [sp, #0]
10000a92:	ab09      	add	r3, sp, #36	; 0x24
10000a94:	2257      	movs	r2, #87	; 0x57
10000a96:	a90a      	add	r1, sp, #40	; 0x28
10000a98:	0020      	movs	r0, r4
10000a9a:	f7ff fc97 	bl	100003cc <turnRight>
10000a9e:	2352      	movs	r3, #82	; 0x52
10000aa0:	9a09      	ldr	r2, [sp, #36]	; 0x24
10000aa2:	990a      	ldr	r1, [sp, #40]	; 0x28
10000aa4:	4849      	ldr	r0, [pc, #292]	; (10000bcc <main+0x690>)
10000aa6:	f007 fabb 	bl	10008020 <__wrap_printf>
10000aaa:	2552      	movs	r5, #82	; 0x52
10000aac:	e000      	b.n	10000ab0 <main+0x574>
10000aae:	2546      	movs	r5, #70	; 0x46
10000ab0:	232f      	movs	r3, #47	; 0x2f
10000ab2:	446b      	add	r3, sp
10000ab4:	781b      	ldrb	r3, [r3, #0]
10000ab6:	2b00      	cmp	r3, #0
10000ab8:	d009      	beq.n	10000ace <main+0x592>
10000aba:	232d      	movs	r3, #45	; 0x2d
10000abc:	446b      	add	r3, sp
10000abe:	781b      	ldrb	r3, [r3, #0]
10000ac0:	2b00      	cmp	r3, #0
10000ac2:	d004      	beq.n	10000ace <main+0x592>
10000ac4:	232e      	movs	r3, #46	; 0x2e
10000ac6:	446b      	add	r3, sp
10000ac8:	781b      	ldrb	r3, [r3, #0]
10000aca:	2b00      	cmp	r3, #0
10000acc:	d062      	beq.n	10000b94 <main+0x658>
10000ace:	232f      	movs	r3, #47	; 0x2f
10000ad0:	446b      	add	r3, sp
10000ad2:	781b      	ldrb	r3, [r3, #0]
10000ad4:	2b00      	cmp	r3, #0
10000ad6:	d017      	beq.n	10000b08 <main+0x5cc>
10000ad8:	232d      	movs	r3, #45	; 0x2d
10000ada:	446b      	add	r3, sp
10000adc:	781b      	ldrb	r3, [r3, #0]
10000ade:	2b00      	cmp	r3, #0
10000ae0:	d012      	beq.n	10000b08 <main+0x5cc>
10000ae2:	232e      	movs	r3, #46	; 0x2e
10000ae4:	446b      	add	r3, sp
10000ae6:	781b      	ldrb	r3, [r3, #0]
10000ae8:	2b00      	cmp	r3, #0
10000aea:	d00d      	beq.n	10000b08 <main+0x5cc>
10000aec:	2d52      	cmp	r5, #82	; 0x52
10000aee:	d075      	beq.n	10000bdc <main+0x6a0>
10000af0:	2d4c      	cmp	r5, #76	; 0x4c
10000af2:	d100      	bne.n	10000af6 <main+0x5ba>
10000af4:	e07d      	b.n	10000bf2 <main+0x6b6>
10000af6:	2d46      	cmp	r5, #70	; 0x46
10000af8:	d100      	bne.n	10000afc <main+0x5c0>
10000afa:	e085      	b.n	10000c08 <main+0x6cc>
10000afc:	002b      	movs	r3, r5
10000afe:	9a09      	ldr	r2, [sp, #36]	; 0x24
10000b00:	990a      	ldr	r1, [sp, #40]	; 0x28
10000b02:	4830      	ldr	r0, [pc, #192]	; (10000bc4 <main+0x688>)
10000b04:	f007 fa8c 	bl	10008020 <__wrap_printf>
10000b08:	9909      	ldr	r1, [sp, #36]	; 0x24
10000b0a:	0020      	movs	r0, r4
10000b0c:	f002 fff2 	bl	10003af4 <updateGridVisited>
10000b10:	0020      	movs	r0, r4
10000b12:	f002 ff47 	bl	100039a4 <checkAllNodesHasAtLeast1Edge>
10000b16:	2800      	cmp	r0, #0
10000b18:	d000      	beq.n	10000b1c <main+0x5e0>
10000b1a:	e080      	b.n	10000c1e <main+0x6e2>
10000b1c:	2357      	movs	r3, #87	; 0x57
10000b1e:	9304      	str	r3, [sp, #16]
10000b20:	3b09      	subs	r3, #9
10000b22:	9303      	str	r3, [sp, #12]
10000b24:	262d      	movs	r6, #45	; 0x2d
10000b26:	446e      	add	r6, sp
10000b28:	9602      	str	r6, [sp, #8]
10000b2a:	272e      	movs	r7, #46	; 0x2e
10000b2c:	446f      	add	r7, sp
10000b2e:	9701      	str	r7, [sp, #4]
10000b30:	252f      	movs	r5, #47	; 0x2f
10000b32:	446d      	add	r5, sp
10000b34:	9500      	str	r5, [sp, #0]
10000b36:	464b      	mov	r3, r9
10000b38:	9a0a      	ldr	r2, [sp, #40]	; 0x28
10000b3a:	4641      	mov	r1, r8
10000b3c:	0020      	movs	r0, r4
10000b3e:	f7ff fbe5 	bl	1000030c <ifReachStartingPoint>
10000b42:	2301      	movs	r3, #1
10000b44:	469b      	mov	fp, r3
10000b46:	702b      	strb	r3, [r5, #0]
10000b48:	2300      	movs	r3, #0
10000b4a:	469a      	mov	sl, r3
10000b4c:	703b      	strb	r3, [r7, #0]
10000b4e:	7033      	strb	r3, [r6, #0]
10000b50:	9b0a      	ldr	r3, [sp, #40]	; 0x28
10000b52:	9309      	str	r3, [sp, #36]	; 0x24
10000b54:	a908      	add	r1, sp, #32
10000b56:	4820      	ldr	r0, [pc, #128]	; (10000bd8 <main+0x69c>)
10000b58:	f00a fc54 	bl	1000b404 <strcpy>
10000b5c:	465b      	mov	r3, fp
10000b5e:	9301      	str	r3, [sp, #4]
10000b60:	4653      	mov	r3, sl
10000b62:	9300      	str	r3, [sp, #0]
10000b64:	ab09      	add	r3, sp, #36	; 0x24
10000b66:	2257      	movs	r2, #87	; 0x57
10000b68:	a90a      	add	r1, sp, #40	; 0x28
10000b6a:	0020      	movs	r0, r4
10000b6c:	f7ff fc2e 	bl	100003cc <turnRight>
10000b70:	2352      	movs	r3, #82	; 0x52
10000b72:	9a09      	ldr	r2, [sp, #36]	; 0x24
10000b74:	990a      	ldr	r1, [sp, #40]	; 0x28
10000b76:	4815      	ldr	r0, [pc, #84]	; (10000bcc <main+0x690>)
10000b78:	f007 fa52 	bl	10008020 <__wrap_printf>
10000b7c:	782b      	ldrb	r3, [r5, #0]
10000b7e:	2b00      	cmp	r3, #0
10000b80:	d06d      	beq.n	10000c5e <main+0x722>
10000b82:	7833      	ldrb	r3, [r6, #0]
10000b84:	4553      	cmp	r3, sl
10000b86:	d100      	bne.n	10000b8a <main+0x64e>
10000b88:	e0c7      	b.n	10000d1a <main+0x7de>
10000b8a:	783b      	ldrb	r3, [r7, #0]
10000b8c:	4553      	cmp	r3, sl
10000b8e:	d04e      	beq.n	10000c2e <main+0x6f2>
10000b90:	2552      	movs	r5, #82	; 0x52
10000b92:	e065      	b.n	10000c60 <main+0x724>
10000b94:	9b0a      	ldr	r3, [sp, #40]	; 0x28
10000b96:	9309      	str	r3, [sp, #36]	; 0x24
10000b98:	a908      	add	r1, sp, #32
10000b9a:	480b      	ldr	r0, [pc, #44]	; (10000bc8 <main+0x68c>)
10000b9c:	f00a fc32 	bl	1000b404 <strcpy>
10000ba0:	2300      	movs	r3, #0
10000ba2:	9301      	str	r3, [sp, #4]
10000ba4:	9300      	str	r3, [sp, #0]
10000ba6:	ab09      	add	r3, sp, #36	; 0x24
10000ba8:	2257      	movs	r2, #87	; 0x57
10000baa:	a90a      	add	r1, sp, #40	; 0x28
10000bac:	0020      	movs	r0, r4
10000bae:	f7ff fc51 	bl	10000454 <turnLeft>
10000bb2:	234c      	movs	r3, #76	; 0x4c
10000bb4:	9a09      	ldr	r2, [sp, #36]	; 0x24
10000bb6:	990a      	ldr	r1, [sp, #40]	; 0x28
10000bb8:	4804      	ldr	r0, [pc, #16]	; (10000bcc <main+0x690>)
10000bba:	f007 fa31 	bl	10008020 <__wrap_printf>
10000bbe:	254c      	movs	r5, #76	; 0x4c
10000bc0:	e785      	b.n	10000ace <main+0x592>
10000bc2:	46c0      	nop			; (mov r8, r8)
10000bc4:	1000c2bc 	.word	0x1000c2bc
10000bc8:	1000c2b8 	.word	0x1000c2b8
10000bcc:	1000c274 	.word	0x1000c274
10000bd0:	1000c270 	.word	0x1000c270
10000bd4:	1000c304 	.word	0x1000c304
10000bd8:	1000c2b4 	.word	0x1000c2b4
10000bdc:	ab09      	add	r3, sp, #36	; 0x24
10000bde:	2257      	movs	r2, #87	; 0x57
10000be0:	a90a      	add	r1, sp, #40	; 0x28
10000be2:	0020      	movs	r0, r4
10000be4:	f7ff fc7a 	bl	100004dc <reverseRight>
10000be8:	232d      	movs	r3, #45	; 0x2d
10000bea:	446b      	add	r3, sp
10000bec:	2201      	movs	r2, #1
10000bee:	701a      	strb	r2, [r3, #0]
10000bf0:	e77e      	b.n	10000af0 <main+0x5b4>
10000bf2:	ab09      	add	r3, sp, #36	; 0x24
10000bf4:	2257      	movs	r2, #87	; 0x57
10000bf6:	a90a      	add	r1, sp, #40	; 0x28
10000bf8:	0020      	movs	r0, r4
10000bfa:	f7ff fc7d 	bl	100004f8 <reverseLeft>
10000bfe:	232e      	movs	r3, #46	; 0x2e
10000c00:	446b      	add	r3, sp
10000c02:	2201      	movs	r2, #1
10000c04:	701a      	strb	r2, [r3, #0]
10000c06:	e776      	b.n	10000af6 <main+0x5ba>
10000c08:	ab09      	add	r3, sp, #36	; 0x24
10000c0a:	2257      	movs	r2, #87	; 0x57
10000c0c:	a90a      	add	r1, sp, #40	; 0x28
10000c0e:	0020      	movs	r0, r4
10000c10:	f7ff fc80 	bl	10000514 <reverseBack>
10000c14:	232f      	movs	r3, #47	; 0x2f
10000c16:	446b      	add	r3, sp
10000c18:	2201      	movs	r2, #1
10000c1a:	701a      	strb	r2, [r3, #0]
10000c1c:	e76e      	b.n	10000afc <main+0x5c0>
10000c1e:	990a      	ldr	r1, [sp, #40]	; 0x28
10000c20:	0020      	movs	r0, r4
10000c22:	f002 ff67 	bl	10003af4 <updateGridVisited>
10000c26:	48ac      	ldr	r0, [pc, #688]	; (10000ed8 <main+0x99c>)
10000c28:	f007 f9c8 	bl	10007fbc <__wrap_puts>
10000c2c:	e776      	b.n	10000b1c <main+0x5e0>
10000c2e:	9b0a      	ldr	r3, [sp, #40]	; 0x28
10000c30:	9309      	str	r3, [sp, #36]	; 0x24
10000c32:	a908      	add	r1, sp, #32
10000c34:	48a9      	ldr	r0, [pc, #676]	; (10000edc <main+0x9a0>)
10000c36:	f00a fbe5 	bl	1000b404 <strcpy>
10000c3a:	465b      	mov	r3, fp
10000c3c:	9301      	str	r3, [sp, #4]
10000c3e:	4653      	mov	r3, sl
10000c40:	9300      	str	r3, [sp, #0]
10000c42:	ab09      	add	r3, sp, #36	; 0x24
10000c44:	2257      	movs	r2, #87	; 0x57
10000c46:	a90a      	add	r1, sp, #40	; 0x28
10000c48:	0020      	movs	r0, r4
10000c4a:	f7ff fc03 	bl	10000454 <turnLeft>
10000c4e:	234c      	movs	r3, #76	; 0x4c
10000c50:	9a09      	ldr	r2, [sp, #36]	; 0x24
10000c52:	990a      	ldr	r1, [sp, #40]	; 0x28
10000c54:	48a2      	ldr	r0, [pc, #648]	; (10000ee0 <main+0x9a4>)
10000c56:	f007 f9e3 	bl	10008020 <__wrap_printf>
10000c5a:	254c      	movs	r5, #76	; 0x4c
10000c5c:	e000      	b.n	10000c60 <main+0x724>
10000c5e:	2552      	movs	r5, #82	; 0x52
10000c60:	232f      	movs	r3, #47	; 0x2f
10000c62:	446b      	add	r3, sp
10000c64:	781b      	ldrb	r3, [r3, #0]
10000c66:	2b00      	cmp	r3, #0
10000c68:	d015      	beq.n	10000c96 <main+0x75a>
10000c6a:	232d      	movs	r3, #45	; 0x2d
10000c6c:	446b      	add	r3, sp
10000c6e:	781b      	ldrb	r3, [r3, #0]
10000c70:	2b00      	cmp	r3, #0
10000c72:	d010      	beq.n	10000c96 <main+0x75a>
10000c74:	232e      	movs	r3, #46	; 0x2e
10000c76:	446b      	add	r3, sp
10000c78:	781b      	ldrb	r3, [r3, #0]
10000c7a:	2b00      	cmp	r3, #0
10000c7c:	d00b      	beq.n	10000c96 <main+0x75a>
10000c7e:	2d52      	cmp	r5, #82	; 0x52
10000c80:	d04d      	beq.n	10000d1e <main+0x7e2>
10000c82:	2d4c      	cmp	r5, #76	; 0x4c
10000c84:	d056      	beq.n	10000d34 <main+0x7f8>
10000c86:	2d46      	cmp	r5, #70	; 0x46
10000c88:	d05f      	beq.n	10000d4a <main+0x80e>
10000c8a:	002b      	movs	r3, r5
10000c8c:	9a09      	ldr	r2, [sp, #36]	; 0x24
10000c8e:	990a      	ldr	r1, [sp, #40]	; 0x28
10000c90:	4894      	ldr	r0, [pc, #592]	; (10000ee4 <main+0x9a8>)
10000c92:	f007 f9c5 	bl	10008020 <__wrap_printf>
10000c96:	9909      	ldr	r1, [sp, #36]	; 0x24
10000c98:	0020      	movs	r0, r4
10000c9a:	f002 ff2b 	bl	10003af4 <updateGridVisited>
10000c9e:	0020      	movs	r0, r4
10000ca0:	f002 fe80 	bl	100039a4 <checkAllNodesHasAtLeast1Edge>
10000ca4:	2800      	cmp	r0, #0
10000ca6:	d15b      	bne.n	10000d60 <main+0x824>
10000ca8:	234e      	movs	r3, #78	; 0x4e
10000caa:	9304      	str	r3, [sp, #16]
10000cac:	9303      	str	r3, [sp, #12]
10000cae:	262d      	movs	r6, #45	; 0x2d
10000cb0:	446e      	add	r6, sp
10000cb2:	9602      	str	r6, [sp, #8]
10000cb4:	272e      	movs	r7, #46	; 0x2e
10000cb6:	446f      	add	r7, sp
10000cb8:	9701      	str	r7, [sp, #4]
10000cba:	252f      	movs	r5, #47	; 0x2f
10000cbc:	446d      	add	r5, sp
10000cbe:	9500      	str	r5, [sp, #0]
10000cc0:	464b      	mov	r3, r9
10000cc2:	9a0a      	ldr	r2, [sp, #40]	; 0x28
10000cc4:	4641      	mov	r1, r8
10000cc6:	0020      	movs	r0, r4
10000cc8:	f7ff fb20 	bl	1000030c <ifReachStartingPoint>
10000ccc:	2301      	movs	r3, #1
10000cce:	702b      	strb	r3, [r5, #0]
10000cd0:	703b      	strb	r3, [r7, #0]
10000cd2:	2700      	movs	r7, #0
10000cd4:	7037      	strb	r7, [r6, #0]
10000cd6:	9b0a      	ldr	r3, [sp, #40]	; 0x28
10000cd8:	9309      	str	r3, [sp, #36]	; 0x24
10000cda:	a908      	add	r1, sp, #32
10000cdc:	4882      	ldr	r0, [pc, #520]	; (10000ee8 <main+0x9ac>)
10000cde:	f00a fb91 	bl	1000b404 <strcpy>
10000ce2:	9701      	str	r7, [sp, #4]
10000ce4:	9700      	str	r7, [sp, #0]
10000ce6:	ab09      	add	r3, sp, #36	; 0x24
10000ce8:	224e      	movs	r2, #78	; 0x4e
10000cea:	a90a      	add	r1, sp, #40	; 0x28
10000cec:	0020      	movs	r0, r4
10000cee:	f7ff fb6d 	bl	100003cc <turnRight>
10000cf2:	2352      	movs	r3, #82	; 0x52
10000cf4:	9a09      	ldr	r2, [sp, #36]	; 0x24
10000cf6:	990a      	ldr	r1, [sp, #40]	; 0x28
10000cf8:	4879      	ldr	r0, [pc, #484]	; (10000ee0 <main+0x9a4>)
10000cfa:	f007 f991 	bl	10008020 <__wrap_printf>
10000cfe:	782b      	ldrb	r3, [r5, #0]
10000d00:	2b00      	cmp	r3, #0
10000d02:	d04b      	beq.n	10000d9c <main+0x860>
10000d04:	7833      	ldrb	r3, [r6, #0]
10000d06:	42bb      	cmp	r3, r7
10000d08:	d100      	bne.n	10000d0c <main+0x7d0>
10000d0a:	e0a2      	b.n	10000e52 <main+0x916>
10000d0c:	232e      	movs	r3, #46	; 0x2e
10000d0e:	446b      	add	r3, sp
10000d10:	781b      	ldrb	r3, [r3, #0]
10000d12:	42bb      	cmp	r3, r7
10000d14:	d02c      	beq.n	10000d70 <main+0x834>
10000d16:	2552      	movs	r5, #82	; 0x52
10000d18:	e041      	b.n	10000d9e <main+0x862>
10000d1a:	2552      	movs	r5, #82	; 0x52
10000d1c:	e7a0      	b.n	10000c60 <main+0x724>
10000d1e:	ab09      	add	r3, sp, #36	; 0x24
10000d20:	2257      	movs	r2, #87	; 0x57
10000d22:	a90a      	add	r1, sp, #40	; 0x28
10000d24:	0020      	movs	r0, r4
10000d26:	f7ff fbd9 	bl	100004dc <reverseRight>
10000d2a:	232d      	movs	r3, #45	; 0x2d
10000d2c:	446b      	add	r3, sp
10000d2e:	2201      	movs	r2, #1
10000d30:	701a      	strb	r2, [r3, #0]
10000d32:	e7a6      	b.n	10000c82 <main+0x746>
10000d34:	ab09      	add	r3, sp, #36	; 0x24
10000d36:	2257      	movs	r2, #87	; 0x57
10000d38:	a90a      	add	r1, sp, #40	; 0x28
10000d3a:	0020      	movs	r0, r4
10000d3c:	f7ff fbdc 	bl	100004f8 <reverseLeft>
10000d40:	232e      	movs	r3, #46	; 0x2e
10000d42:	446b      	add	r3, sp
10000d44:	2201      	movs	r2, #1
10000d46:	701a      	strb	r2, [r3, #0]
10000d48:	e79d      	b.n	10000c86 <main+0x74a>
10000d4a:	ab09      	add	r3, sp, #36	; 0x24
10000d4c:	2257      	movs	r2, #87	; 0x57
10000d4e:	a90a      	add	r1, sp, #40	; 0x28
10000d50:	0020      	movs	r0, r4
10000d52:	f7ff fbdf 	bl	10000514 <reverseBack>
10000d56:	232f      	movs	r3, #47	; 0x2f
10000d58:	446b      	add	r3, sp
10000d5a:	2201      	movs	r2, #1
10000d5c:	701a      	strb	r2, [r3, #0]
10000d5e:	e794      	b.n	10000c8a <main+0x74e>
10000d60:	990a      	ldr	r1, [sp, #40]	; 0x28
10000d62:	0020      	movs	r0, r4
10000d64:	f002 fec6 	bl	10003af4 <updateGridVisited>
10000d68:	485b      	ldr	r0, [pc, #364]	; (10000ed8 <main+0x99c>)
10000d6a:	f007 f927 	bl	10007fbc <__wrap_puts>
10000d6e:	e79b      	b.n	10000ca8 <main+0x76c>
10000d70:	9b0a      	ldr	r3, [sp, #40]	; 0x28
10000d72:	9309      	str	r3, [sp, #36]	; 0x24
10000d74:	a908      	add	r1, sp, #32
10000d76:	4859      	ldr	r0, [pc, #356]	; (10000edc <main+0x9a0>)
10000d78:	f00a fb44 	bl	1000b404 <strcpy>
10000d7c:	9701      	str	r7, [sp, #4]
10000d7e:	9700      	str	r7, [sp, #0]
10000d80:	ab09      	add	r3, sp, #36	; 0x24
10000d82:	224e      	movs	r2, #78	; 0x4e
10000d84:	a90a      	add	r1, sp, #40	; 0x28
10000d86:	0020      	movs	r0, r4
10000d88:	f7ff fb64 	bl	10000454 <turnLeft>
10000d8c:	234c      	movs	r3, #76	; 0x4c
10000d8e:	9a09      	ldr	r2, [sp, #36]	; 0x24
10000d90:	990a      	ldr	r1, [sp, #40]	; 0x28
10000d92:	4853      	ldr	r0, [pc, #332]	; (10000ee0 <main+0x9a4>)
10000d94:	f007 f944 	bl	10008020 <__wrap_printf>
10000d98:	254c      	movs	r5, #76	; 0x4c
10000d9a:	e000      	b.n	10000d9e <main+0x862>
10000d9c:	2552      	movs	r5, #82	; 0x52
10000d9e:	232f      	movs	r3, #47	; 0x2f
10000da0:	446b      	add	r3, sp
10000da2:	781b      	ldrb	r3, [r3, #0]
10000da4:	2b00      	cmp	r3, #0
10000da6:	d015      	beq.n	10000dd4 <main+0x898>
10000da8:	232d      	movs	r3, #45	; 0x2d
10000daa:	446b      	add	r3, sp
10000dac:	781b      	ldrb	r3, [r3, #0]
10000dae:	2b00      	cmp	r3, #0
10000db0:	d010      	beq.n	10000dd4 <main+0x898>
10000db2:	232e      	movs	r3, #46	; 0x2e
10000db4:	446b      	add	r3, sp
10000db6:	781b      	ldrb	r3, [r3, #0]
10000db8:	2b00      	cmp	r3, #0
10000dba:	d00b      	beq.n	10000dd4 <main+0x898>
10000dbc:	2d52      	cmp	r5, #82	; 0x52
10000dbe:	d04a      	beq.n	10000e56 <main+0x91a>
10000dc0:	2d4c      	cmp	r5, #76	; 0x4c
10000dc2:	d053      	beq.n	10000e6c <main+0x930>
10000dc4:	2d46      	cmp	r5, #70	; 0x46
10000dc6:	d05c      	beq.n	10000e82 <main+0x946>
10000dc8:	002b      	movs	r3, r5
10000dca:	9a09      	ldr	r2, [sp, #36]	; 0x24
10000dcc:	990a      	ldr	r1, [sp, #40]	; 0x28
10000dce:	4845      	ldr	r0, [pc, #276]	; (10000ee4 <main+0x9a8>)
10000dd0:	f007 f926 	bl	10008020 <__wrap_printf>
10000dd4:	9909      	ldr	r1, [sp, #36]	; 0x24
10000dd6:	0020      	movs	r0, r4
10000dd8:	f002 fe8c 	bl	10003af4 <updateGridVisited>
10000ddc:	0020      	movs	r0, r4
10000dde:	f002 fde1 	bl	100039a4 <checkAllNodesHasAtLeast1Edge>
10000de2:	2800      	cmp	r0, #0
10000de4:	d158      	bne.n	10000e98 <main+0x95c>
10000de6:	2345      	movs	r3, #69	; 0x45
10000de8:	9304      	str	r3, [sp, #16]
10000dea:	3309      	adds	r3, #9
10000dec:	9303      	str	r3, [sp, #12]
10000dee:	262d      	movs	r6, #45	; 0x2d
10000df0:	446e      	add	r6, sp
10000df2:	9602      	str	r6, [sp, #8]
10000df4:	272e      	movs	r7, #46	; 0x2e
10000df6:	446f      	add	r7, sp
10000df8:	9701      	str	r7, [sp, #4]
10000dfa:	252f      	movs	r5, #47	; 0x2f
10000dfc:	446d      	add	r5, sp
10000dfe:	9500      	str	r5, [sp, #0]
10000e00:	464b      	mov	r3, r9
10000e02:	9a0a      	ldr	r2, [sp, #40]	; 0x28
10000e04:	4641      	mov	r1, r8
10000e06:	0020      	movs	r0, r4
10000e08:	f7ff fa80 	bl	1000030c <ifReachStartingPoint>
10000e0c:	2300      	movs	r3, #0
10000e0e:	469a      	mov	sl, r3
10000e10:	702b      	strb	r3, [r5, #0]
10000e12:	3301      	adds	r3, #1
10000e14:	703b      	strb	r3, [r7, #0]
10000e16:	7033      	strb	r3, [r6, #0]
10000e18:	9b0a      	ldr	r3, [sp, #40]	; 0x28
10000e1a:	9309      	str	r3, [sp, #36]	; 0x24
10000e1c:	a908      	add	r1, sp, #32
10000e1e:	4833      	ldr	r0, [pc, #204]	; (10000eec <main+0x9b0>)
10000e20:	f00a faf0 	bl	1000b404 <strcpy>
10000e24:	4653      	mov	r3, sl
10000e26:	9301      	str	r3, [sp, #4]
10000e28:	9300      	str	r3, [sp, #0]
10000e2a:	ab09      	add	r3, sp, #36	; 0x24
10000e2c:	2245      	movs	r2, #69	; 0x45
10000e2e:	a90a      	add	r1, sp, #40	; 0x28
10000e30:	0020      	movs	r0, r4
10000e32:	f7ff fa8d 	bl	10000350 <moveForward>
10000e36:	2346      	movs	r3, #70	; 0x46
10000e38:	9a09      	ldr	r2, [sp, #36]	; 0x24
10000e3a:	990a      	ldr	r1, [sp, #40]	; 0x28
10000e3c:	4828      	ldr	r0, [pc, #160]	; (10000ee0 <main+0x9a4>)
10000e3e:	f007 f8ef 	bl	10008020 <__wrap_printf>
10000e42:	782b      	ldrb	r3, [r5, #0]
10000e44:	2b00      	cmp	r3, #0
10000e46:	d053      	beq.n	10000ef0 <main+0x9b4>
10000e48:	7833      	ldrb	r3, [r6, #0]
10000e4a:	4553      	cmp	r3, sl
10000e4c:	d02c      	beq.n	10000ea8 <main+0x96c>
10000e4e:	2546      	movs	r5, #70	; 0x46
10000e50:	e04f      	b.n	10000ef2 <main+0x9b6>
10000e52:	2552      	movs	r5, #82	; 0x52
10000e54:	e7a3      	b.n	10000d9e <main+0x862>
10000e56:	ab09      	add	r3, sp, #36	; 0x24
10000e58:	224e      	movs	r2, #78	; 0x4e
10000e5a:	a90a      	add	r1, sp, #40	; 0x28
10000e5c:	0020      	movs	r0, r4
10000e5e:	f7ff fb3d 	bl	100004dc <reverseRight>
10000e62:	232d      	movs	r3, #45	; 0x2d
10000e64:	446b      	add	r3, sp
10000e66:	2201      	movs	r2, #1
10000e68:	701a      	strb	r2, [r3, #0]
10000e6a:	e7a9      	b.n	10000dc0 <main+0x884>
10000e6c:	ab09      	add	r3, sp, #36	; 0x24
10000e6e:	224e      	movs	r2, #78	; 0x4e
10000e70:	a90a      	add	r1, sp, #40	; 0x28
10000e72:	0020      	movs	r0, r4
10000e74:	f7ff fb40 	bl	100004f8 <reverseLeft>
10000e78:	232e      	movs	r3, #46	; 0x2e
10000e7a:	446b      	add	r3, sp
10000e7c:	2201      	movs	r2, #1
10000e7e:	701a      	strb	r2, [r3, #0]
10000e80:	e7a0      	b.n	10000dc4 <main+0x888>
10000e82:	ab09      	add	r3, sp, #36	; 0x24
10000e84:	224e      	movs	r2, #78	; 0x4e
10000e86:	a90a      	add	r1, sp, #40	; 0x28
10000e88:	0020      	movs	r0, r4
10000e8a:	f7ff fb43 	bl	10000514 <reverseBack>
10000e8e:	232f      	movs	r3, #47	; 0x2f
10000e90:	446b      	add	r3, sp
10000e92:	2201      	movs	r2, #1
10000e94:	701a      	strb	r2, [r3, #0]
10000e96:	e797      	b.n	10000dc8 <main+0x88c>
10000e98:	990a      	ldr	r1, [sp, #40]	; 0x28
10000e9a:	0020      	movs	r0, r4
10000e9c:	f002 fe2a 	bl	10003af4 <updateGridVisited>
10000ea0:	480d      	ldr	r0, [pc, #52]	; (10000ed8 <main+0x99c>)
10000ea2:	f007 f88b 	bl	10007fbc <__wrap_puts>
10000ea6:	e79e      	b.n	10000de6 <main+0x8aa>
10000ea8:	9b0a      	ldr	r3, [sp, #40]	; 0x28
10000eaa:	9309      	str	r3, [sp, #36]	; 0x24
10000eac:	a908      	add	r1, sp, #32
10000eae:	480e      	ldr	r0, [pc, #56]	; (10000ee8 <main+0x9ac>)
10000eb0:	f00a faa8 	bl	1000b404 <strcpy>
10000eb4:	4653      	mov	r3, sl
10000eb6:	9301      	str	r3, [sp, #4]
10000eb8:	9300      	str	r3, [sp, #0]
10000eba:	ab09      	add	r3, sp, #36	; 0x24
10000ebc:	2245      	movs	r2, #69	; 0x45
10000ebe:	a90a      	add	r1, sp, #40	; 0x28
10000ec0:	0020      	movs	r0, r4
10000ec2:	f7ff fa83 	bl	100003cc <turnRight>
10000ec6:	2352      	movs	r3, #82	; 0x52
10000ec8:	9a09      	ldr	r2, [sp, #36]	; 0x24
10000eca:	990a      	ldr	r1, [sp, #40]	; 0x28
10000ecc:	4804      	ldr	r0, [pc, #16]	; (10000ee0 <main+0x9a4>)
10000ece:	f007 f8a7 	bl	10008020 <__wrap_printf>
10000ed2:	2552      	movs	r5, #82	; 0x52
10000ed4:	e00d      	b.n	10000ef2 <main+0x9b6>
10000ed6:	46c0      	nop			; (mov r8, r8)
10000ed8:	1000c304 	.word	0x1000c304
10000edc:	1000c2b8 	.word	0x1000c2b8
10000ee0:	1000c274 	.word	0x1000c274
10000ee4:	1000c2bc 	.word	0x1000c2bc
10000ee8:	1000c2b4 	.word	0x1000c2b4
10000eec:	1000c270 	.word	0x1000c270
10000ef0:	2546      	movs	r5, #70	; 0x46
10000ef2:	232f      	movs	r3, #47	; 0x2f
10000ef4:	446b      	add	r3, sp
10000ef6:	781b      	ldrb	r3, [r3, #0]
10000ef8:	2b00      	cmp	r3, #0
10000efa:	d009      	beq.n	10000f10 <main+0x9d4>
10000efc:	232d      	movs	r3, #45	; 0x2d
10000efe:	446b      	add	r3, sp
10000f00:	781b      	ldrb	r3, [r3, #0]
10000f02:	2b00      	cmp	r3, #0
10000f04:	d004      	beq.n	10000f10 <main+0x9d4>
10000f06:	232e      	movs	r3, #46	; 0x2e
10000f08:	446b      	add	r3, sp
10000f0a:	781b      	ldrb	r3, [r3, #0]
10000f0c:	2b00      	cmp	r3, #0
10000f0e:	d05a      	beq.n	10000fc6 <main+0xa8a>
10000f10:	232f      	movs	r3, #47	; 0x2f
10000f12:	446b      	add	r3, sp
10000f14:	781b      	ldrb	r3, [r3, #0]
10000f16:	2b00      	cmp	r3, #0
10000f18:	d015      	beq.n	10000f46 <main+0xa0a>
10000f1a:	232d      	movs	r3, #45	; 0x2d
10000f1c:	446b      	add	r3, sp
10000f1e:	781b      	ldrb	r3, [r3, #0]
10000f20:	2b00      	cmp	r3, #0
10000f22:	d010      	beq.n	10000f46 <main+0xa0a>
10000f24:	232e      	movs	r3, #46	; 0x2e
10000f26:	446b      	add	r3, sp
10000f28:	781b      	ldrb	r3, [r3, #0]
10000f2a:	2b00      	cmp	r3, #0
10000f2c:	d00b      	beq.n	10000f46 <main+0xa0a>
10000f2e:	2d52      	cmp	r5, #82	; 0x52
10000f30:	d060      	beq.n	10000ff4 <main+0xab8>
10000f32:	2d4c      	cmp	r5, #76	; 0x4c
10000f34:	d069      	beq.n	1000100a <main+0xace>
10000f36:	2d46      	cmp	r5, #70	; 0x46
10000f38:	d072      	beq.n	10001020 <main+0xae4>
10000f3a:	002b      	movs	r3, r5
10000f3c:	9a09      	ldr	r2, [sp, #36]	; 0x24
10000f3e:	990a      	ldr	r1, [sp, #40]	; 0x28
10000f40:	48e2      	ldr	r0, [pc, #904]	; (100012cc <main+0xd90>)
10000f42:	f007 f86d 	bl	10008020 <__wrap_printf>
10000f46:	9909      	ldr	r1, [sp, #36]	; 0x24
10000f48:	0020      	movs	r0, r4
10000f4a:	f002 fdd3 	bl	10003af4 <updateGridVisited>
10000f4e:	0020      	movs	r0, r4
10000f50:	f002 fd28 	bl	100039a4 <checkAllNodesHasAtLeast1Edge>
10000f54:	2800      	cmp	r0, #0
10000f56:	d16e      	bne.n	10001036 <main+0xafa>
10000f58:	2345      	movs	r3, #69	; 0x45
10000f5a:	9304      	str	r3, [sp, #16]
10000f5c:	3309      	adds	r3, #9
10000f5e:	9303      	str	r3, [sp, #12]
10000f60:	262d      	movs	r6, #45	; 0x2d
10000f62:	446e      	add	r6, sp
10000f64:	9602      	str	r6, [sp, #8]
10000f66:	272e      	movs	r7, #46	; 0x2e
10000f68:	446f      	add	r7, sp
10000f6a:	9701      	str	r7, [sp, #4]
10000f6c:	252f      	movs	r5, #47	; 0x2f
10000f6e:	446d      	add	r5, sp
10000f70:	9500      	str	r5, [sp, #0]
10000f72:	464b      	mov	r3, r9
10000f74:	9a0a      	ldr	r2, [sp, #40]	; 0x28
10000f76:	4641      	mov	r1, r8
10000f78:	0020      	movs	r0, r4
10000f7a:	f7ff f9c7 	bl	1000030c <ifReachStartingPoint>
10000f7e:	2300      	movs	r3, #0
10000f80:	469a      	mov	sl, r3
10000f82:	702b      	strb	r3, [r5, #0]
10000f84:	3301      	adds	r3, #1
10000f86:	703b      	strb	r3, [r7, #0]
10000f88:	7033      	strb	r3, [r6, #0]
10000f8a:	9b0a      	ldr	r3, [sp, #40]	; 0x28
10000f8c:	9309      	str	r3, [sp, #36]	; 0x24
10000f8e:	a908      	add	r1, sp, #32
10000f90:	48cf      	ldr	r0, [pc, #828]	; (100012d0 <main+0xd94>)
10000f92:	f00a fa37 	bl	1000b404 <strcpy>
10000f96:	4653      	mov	r3, sl
10000f98:	9301      	str	r3, [sp, #4]
10000f9a:	9300      	str	r3, [sp, #0]
10000f9c:	ab09      	add	r3, sp, #36	; 0x24
10000f9e:	2245      	movs	r2, #69	; 0x45
10000fa0:	a90a      	add	r1, sp, #40	; 0x28
10000fa2:	0020      	movs	r0, r4
10000fa4:	f7ff f9d4 	bl	10000350 <moveForward>
10000fa8:	2346      	movs	r3, #70	; 0x46
10000faa:	9a09      	ldr	r2, [sp, #36]	; 0x24
10000fac:	990a      	ldr	r1, [sp, #40]	; 0x28
10000fae:	48c9      	ldr	r0, [pc, #804]	; (100012d4 <main+0xd98>)
10000fb0:	f007 f836 	bl	10008020 <__wrap_printf>
10000fb4:	782b      	ldrb	r3, [r5, #0]
10000fb6:	2b00      	cmp	r3, #0
10000fb8:	d05d      	beq.n	10001076 <main+0xb3a>
10000fba:	7833      	ldrb	r3, [r6, #0]
10000fbc:	4553      	cmp	r3, sl
10000fbe:	d042      	beq.n	10001046 <main+0xb0a>
10000fc0:	2346      	movs	r3, #70	; 0x46
10000fc2:	469a      	mov	sl, r3
10000fc4:	e059      	b.n	1000107a <main+0xb3e>
10000fc6:	9b0a      	ldr	r3, [sp, #40]	; 0x28
10000fc8:	9309      	str	r3, [sp, #36]	; 0x24
10000fca:	a908      	add	r1, sp, #32
10000fcc:	48c2      	ldr	r0, [pc, #776]	; (100012d8 <main+0xd9c>)
10000fce:	f00a fa19 	bl	1000b404 <strcpy>
10000fd2:	2300      	movs	r3, #0
10000fd4:	9301      	str	r3, [sp, #4]
10000fd6:	9300      	str	r3, [sp, #0]
10000fd8:	ab09      	add	r3, sp, #36	; 0x24
10000fda:	2245      	movs	r2, #69	; 0x45
10000fdc:	a90a      	add	r1, sp, #40	; 0x28
10000fde:	0020      	movs	r0, r4
10000fe0:	f7ff fa38 	bl	10000454 <turnLeft>
10000fe4:	234c      	movs	r3, #76	; 0x4c
10000fe6:	9a09      	ldr	r2, [sp, #36]	; 0x24
10000fe8:	990a      	ldr	r1, [sp, #40]	; 0x28
10000fea:	48ba      	ldr	r0, [pc, #744]	; (100012d4 <main+0xd98>)
10000fec:	f007 f818 	bl	10008020 <__wrap_printf>
10000ff0:	254c      	movs	r5, #76	; 0x4c
10000ff2:	e78d      	b.n	10000f10 <main+0x9d4>
10000ff4:	ab09      	add	r3, sp, #36	; 0x24
10000ff6:	2245      	movs	r2, #69	; 0x45
10000ff8:	a90a      	add	r1, sp, #40	; 0x28
10000ffa:	0020      	movs	r0, r4
10000ffc:	f7ff fa6e 	bl	100004dc <reverseRight>
10001000:	232d      	movs	r3, #45	; 0x2d
10001002:	446b      	add	r3, sp
10001004:	2201      	movs	r2, #1
10001006:	701a      	strb	r2, [r3, #0]
10001008:	e793      	b.n	10000f32 <main+0x9f6>
1000100a:	ab09      	add	r3, sp, #36	; 0x24
1000100c:	2245      	movs	r2, #69	; 0x45
1000100e:	a90a      	add	r1, sp, #40	; 0x28
10001010:	0020      	movs	r0, r4
10001012:	f7ff fa71 	bl	100004f8 <reverseLeft>
10001016:	232e      	movs	r3, #46	; 0x2e
10001018:	446b      	add	r3, sp
1000101a:	2201      	movs	r2, #1
1000101c:	701a      	strb	r2, [r3, #0]
1000101e:	e78a      	b.n	10000f36 <main+0x9fa>
10001020:	ab09      	add	r3, sp, #36	; 0x24
10001022:	2245      	movs	r2, #69	; 0x45
10001024:	a90a      	add	r1, sp, #40	; 0x28
10001026:	0020      	movs	r0, r4
10001028:	f7ff fa74 	bl	10000514 <reverseBack>
1000102c:	232f      	movs	r3, #47	; 0x2f
1000102e:	446b      	add	r3, sp
10001030:	2201      	movs	r2, #1
10001032:	701a      	strb	r2, [r3, #0]
10001034:	e781      	b.n	10000f3a <main+0x9fe>
10001036:	990a      	ldr	r1, [sp, #40]	; 0x28
10001038:	0020      	movs	r0, r4
1000103a:	f002 fd5b 	bl	10003af4 <updateGridVisited>
1000103e:	48a7      	ldr	r0, [pc, #668]	; (100012dc <main+0xda0>)
10001040:	f006 ffbc 	bl	10007fbc <__wrap_puts>
10001044:	e788      	b.n	10000f58 <main+0xa1c>
10001046:	9b0a      	ldr	r3, [sp, #40]	; 0x28
10001048:	9309      	str	r3, [sp, #36]	; 0x24
1000104a:	a908      	add	r1, sp, #32
1000104c:	48a4      	ldr	r0, [pc, #656]	; (100012e0 <main+0xda4>)
1000104e:	f00a f9d9 	bl	1000b404 <strcpy>
10001052:	4653      	mov	r3, sl
10001054:	9301      	str	r3, [sp, #4]
10001056:	9300      	str	r3, [sp, #0]
10001058:	ab09      	add	r3, sp, #36	; 0x24
1000105a:	2245      	movs	r2, #69	; 0x45
1000105c:	a90a      	add	r1, sp, #40	; 0x28
1000105e:	0020      	movs	r0, r4
10001060:	f7ff f9b4 	bl	100003cc <turnRight>
10001064:	2352      	movs	r3, #82	; 0x52
10001066:	9a09      	ldr	r2, [sp, #36]	; 0x24
10001068:	990a      	ldr	r1, [sp, #40]	; 0x28
1000106a:	489a      	ldr	r0, [pc, #616]	; (100012d4 <main+0xd98>)
1000106c:	f006 ffd8 	bl	10008020 <__wrap_printf>
10001070:	2352      	movs	r3, #82	; 0x52
10001072:	469a      	mov	sl, r3
10001074:	e001      	b.n	1000107a <main+0xb3e>
10001076:	2346      	movs	r3, #70	; 0x46
10001078:	469a      	mov	sl, r3
1000107a:	232f      	movs	r3, #47	; 0x2f
1000107c:	446b      	add	r3, sp
1000107e:	781b      	ldrb	r3, [r3, #0]
10001080:	2b00      	cmp	r3, #0
10001082:	d00a      	beq.n	1000109a <main+0xb5e>
10001084:	232d      	movs	r3, #45	; 0x2d
10001086:	446b      	add	r3, sp
10001088:	781b      	ldrb	r3, [r3, #0]
1000108a:	2b00      	cmp	r3, #0
1000108c:	d005      	beq.n	1000109a <main+0xb5e>
1000108e:	232e      	movs	r3, #46	; 0x2e
10001090:	446b      	add	r3, sp
10001092:	781b      	ldrb	r3, [r3, #0]
10001094:	2b00      	cmp	r3, #0
10001096:	d100      	bne.n	1000109a <main+0xb5e>
10001098:	e100      	b.n	1000129c <main+0xd60>
1000109a:	232f      	movs	r3, #47	; 0x2f
1000109c:	446b      	add	r3, sp
1000109e:	781b      	ldrb	r3, [r3, #0]
100010a0:	2b00      	cmp	r3, #0
100010a2:	d01b      	beq.n	100010dc <main+0xba0>
100010a4:	232d      	movs	r3, #45	; 0x2d
100010a6:	446b      	add	r3, sp
100010a8:	781b      	ldrb	r3, [r3, #0]
100010aa:	2b00      	cmp	r3, #0
100010ac:	d016      	beq.n	100010dc <main+0xba0>
100010ae:	232e      	movs	r3, #46	; 0x2e
100010b0:	446b      	add	r3, sp
100010b2:	781b      	ldrb	r3, [r3, #0]
100010b4:	2b00      	cmp	r3, #0
100010b6:	d011      	beq.n	100010dc <main+0xba0>
100010b8:	4653      	mov	r3, sl
100010ba:	2b52      	cmp	r3, #82	; 0x52
100010bc:	d100      	bne.n	100010c0 <main+0xb84>
100010be:	e111      	b.n	100012e4 <main+0xda8>
100010c0:	4653      	mov	r3, sl
100010c2:	2b4c      	cmp	r3, #76	; 0x4c
100010c4:	d100      	bne.n	100010c8 <main+0xb8c>
100010c6:	e118      	b.n	100012fa <main+0xdbe>
100010c8:	4653      	mov	r3, sl
100010ca:	2b46      	cmp	r3, #70	; 0x46
100010cc:	d100      	bne.n	100010d0 <main+0xb94>
100010ce:	e11f      	b.n	10001310 <main+0xdd4>
100010d0:	4653      	mov	r3, sl
100010d2:	9a09      	ldr	r2, [sp, #36]	; 0x24
100010d4:	990a      	ldr	r1, [sp, #40]	; 0x28
100010d6:	487d      	ldr	r0, [pc, #500]	; (100012cc <main+0xd90>)
100010d8:	f006 ffa2 	bl	10008020 <__wrap_printf>
100010dc:	9909      	ldr	r1, [sp, #36]	; 0x24
100010de:	0020      	movs	r0, r4
100010e0:	f002 fd08 	bl	10003af4 <updateGridVisited>
100010e4:	0020      	movs	r0, r4
100010e6:	f002 fc5d 	bl	100039a4 <checkAllNodesHasAtLeast1Edge>
100010ea:	2800      	cmp	r0, #0
100010ec:	d000      	beq.n	100010f0 <main+0xbb4>
100010ee:	e11a      	b.n	10001326 <main+0xdea>
100010f0:	2345      	movs	r3, #69	; 0x45
100010f2:	9304      	str	r3, [sp, #16]
100010f4:	3309      	adds	r3, #9
100010f6:	9303      	str	r3, [sp, #12]
100010f8:	252d      	movs	r5, #45	; 0x2d
100010fa:	446d      	add	r5, sp
100010fc:	9502      	str	r5, [sp, #8]
100010fe:	262e      	movs	r6, #46	; 0x2e
10001100:	446e      	add	r6, sp
10001102:	9601      	str	r6, [sp, #4]
10001104:	272f      	movs	r7, #47	; 0x2f
10001106:	446f      	add	r7, sp
10001108:	9700      	str	r7, [sp, #0]
1000110a:	464b      	mov	r3, r9
1000110c:	9a0a      	ldr	r2, [sp, #40]	; 0x28
1000110e:	4641      	mov	r1, r8
10001110:	0020      	movs	r0, r4
10001112:	f7ff f8fb 	bl	1000030c <ifReachStartingPoint>
10001116:	2301      	movs	r3, #1
10001118:	703b      	strb	r3, [r7, #0]
1000111a:	7033      	strb	r3, [r6, #0]
1000111c:	702b      	strb	r3, [r5, #0]
1000111e:	4653      	mov	r3, sl
10001120:	2b52      	cmp	r3, #82	; 0x52
10001122:	d100      	bne.n	10001126 <main+0xbea>
10001124:	e107      	b.n	10001336 <main+0xdfa>
10001126:	4653      	mov	r3, sl
10001128:	2b4c      	cmp	r3, #76	; 0x4c
1000112a:	d100      	bne.n	1000112e <main+0xbf2>
1000112c:	e10c      	b.n	10001348 <main+0xe0c>
1000112e:	4653      	mov	r3, sl
10001130:	2b46      	cmp	r3, #70	; 0x46
10001132:	d100      	bne.n	10001136 <main+0xbfa>
10001134:	e113      	b.n	1000135e <main+0xe22>
10001136:	46d3      	mov	fp, sl
10001138:	4653      	mov	r3, sl
1000113a:	9a09      	ldr	r2, [sp, #36]	; 0x24
1000113c:	990a      	ldr	r1, [sp, #40]	; 0x28
1000113e:	4863      	ldr	r0, [pc, #396]	; (100012cc <main+0xd90>)
10001140:	f006 ff6e 	bl	10008020 <__wrap_printf>
10001144:	9909      	ldr	r1, [sp, #36]	; 0x24
10001146:	0020      	movs	r0, r4
10001148:	f002 fcd4 	bl	10003af4 <updateGridVisited>
1000114c:	0020      	movs	r0, r4
1000114e:	f002 fc29 	bl	100039a4 <checkAllNodesHasAtLeast1Edge>
10001152:	2800      	cmp	r0, #0
10001154:	d000      	beq.n	10001158 <main+0xc1c>
10001156:	e10d      	b.n	10001374 <main+0xe38>
10001158:	2345      	movs	r3, #69	; 0x45
1000115a:	9304      	str	r3, [sp, #16]
1000115c:	3309      	adds	r3, #9
1000115e:	9303      	str	r3, [sp, #12]
10001160:	252d      	movs	r5, #45	; 0x2d
10001162:	446d      	add	r5, sp
10001164:	9502      	str	r5, [sp, #8]
10001166:	262e      	movs	r6, #46	; 0x2e
10001168:	446e      	add	r6, sp
1000116a:	9601      	str	r6, [sp, #4]
1000116c:	272f      	movs	r7, #47	; 0x2f
1000116e:	446f      	add	r7, sp
10001170:	9700      	str	r7, [sp, #0]
10001172:	464b      	mov	r3, r9
10001174:	9a0a      	ldr	r2, [sp, #40]	; 0x28
10001176:	4641      	mov	r1, r8
10001178:	0020      	movs	r0, r4
1000117a:	f7ff f8c7 	bl	1000030c <ifReachStartingPoint>
1000117e:	2301      	movs	r3, #1
10001180:	703b      	strb	r3, [r7, #0]
10001182:	7033      	strb	r3, [r6, #0]
10001184:	702b      	strb	r3, [r5, #0]
10001186:	4653      	mov	r3, sl
10001188:	2b52      	cmp	r3, #82	; 0x52
1000118a:	d100      	bne.n	1000118e <main+0xc52>
1000118c:	e0fa      	b.n	10001384 <main+0xe48>
1000118e:	4653      	mov	r3, sl
10001190:	2b4c      	cmp	r3, #76	; 0x4c
10001192:	d100      	bne.n	10001196 <main+0xc5a>
10001194:	e0ff      	b.n	10001396 <main+0xe5a>
10001196:	4653      	mov	r3, sl
10001198:	2b46      	cmp	r3, #70	; 0x46
1000119a:	d100      	bne.n	1000119e <main+0xc62>
1000119c:	e106      	b.n	100013ac <main+0xe70>
1000119e:	465b      	mov	r3, fp
100011a0:	9a09      	ldr	r2, [sp, #36]	; 0x24
100011a2:	990a      	ldr	r1, [sp, #40]	; 0x28
100011a4:	4849      	ldr	r0, [pc, #292]	; (100012cc <main+0xd90>)
100011a6:	f006 ff3b 	bl	10008020 <__wrap_printf>
100011aa:	9909      	ldr	r1, [sp, #36]	; 0x24
100011ac:	0020      	movs	r0, r4
100011ae:	f002 fca1 	bl	10003af4 <updateGridVisited>
100011b2:	0020      	movs	r0, r4
100011b4:	f002 fbf6 	bl	100039a4 <checkAllNodesHasAtLeast1Edge>
100011b8:	2800      	cmp	r0, #0
100011ba:	d000      	beq.n	100011be <main+0xc82>
100011bc:	e101      	b.n	100013c2 <main+0xe86>
100011be:	2345      	movs	r3, #69	; 0x45
100011c0:	9304      	str	r3, [sp, #16]
100011c2:	3309      	adds	r3, #9
100011c4:	9303      	str	r3, [sp, #12]
100011c6:	252d      	movs	r5, #45	; 0x2d
100011c8:	446d      	add	r5, sp
100011ca:	9502      	str	r5, [sp, #8]
100011cc:	262e      	movs	r6, #46	; 0x2e
100011ce:	446e      	add	r6, sp
100011d0:	9601      	str	r6, [sp, #4]
100011d2:	272f      	movs	r7, #47	; 0x2f
100011d4:	446f      	add	r7, sp
100011d6:	9700      	str	r7, [sp, #0]
100011d8:	464b      	mov	r3, r9
100011da:	9a0a      	ldr	r2, [sp, #40]	; 0x28
100011dc:	4641      	mov	r1, r8
100011de:	0020      	movs	r0, r4
100011e0:	f7ff f894 	bl	1000030c <ifReachStartingPoint>
100011e4:	2301      	movs	r3, #1
100011e6:	703b      	strb	r3, [r7, #0]
100011e8:	7033      	strb	r3, [r6, #0]
100011ea:	702b      	strb	r3, [r5, #0]
100011ec:	4653      	mov	r3, sl
100011ee:	2b52      	cmp	r3, #82	; 0x52
100011f0:	d100      	bne.n	100011f4 <main+0xcb8>
100011f2:	e0ee      	b.n	100013d2 <main+0xe96>
100011f4:	4653      	mov	r3, sl
100011f6:	2b4c      	cmp	r3, #76	; 0x4c
100011f8:	d100      	bne.n	100011fc <main+0xcc0>
100011fa:	e0f3      	b.n	100013e4 <main+0xea8>
100011fc:	4653      	mov	r3, sl
100011fe:	2b46      	cmp	r3, #70	; 0x46
10001200:	d100      	bne.n	10001204 <main+0xcc8>
10001202:	e0fa      	b.n	100013fa <main+0xebe>
10001204:	465b      	mov	r3, fp
10001206:	9a09      	ldr	r2, [sp, #36]	; 0x24
10001208:	990a      	ldr	r1, [sp, #40]	; 0x28
1000120a:	4830      	ldr	r0, [pc, #192]	; (100012cc <main+0xd90>)
1000120c:	f006 ff08 	bl	10008020 <__wrap_printf>
10001210:	9909      	ldr	r1, [sp, #36]	; 0x24
10001212:	0020      	movs	r0, r4
10001214:	f002 fc6e 	bl	10003af4 <updateGridVisited>
10001218:	0020      	movs	r0, r4
1000121a:	f002 fbc3 	bl	100039a4 <checkAllNodesHasAtLeast1Edge>
1000121e:	2800      	cmp	r0, #0
10001220:	d000      	beq.n	10001224 <main+0xce8>
10001222:	e0f5      	b.n	10001410 <main+0xed4>
10001224:	2345      	movs	r3, #69	; 0x45
10001226:	9304      	str	r3, [sp, #16]
10001228:	3309      	adds	r3, #9
1000122a:	9303      	str	r3, [sp, #12]
1000122c:	262d      	movs	r6, #45	; 0x2d
1000122e:	446e      	add	r6, sp
10001230:	9602      	str	r6, [sp, #8]
10001232:	272e      	movs	r7, #46	; 0x2e
10001234:	446f      	add	r7, sp
10001236:	9701      	str	r7, [sp, #4]
10001238:	252f      	movs	r5, #47	; 0x2f
1000123a:	446d      	add	r5, sp
1000123c:	9500      	str	r5, [sp, #0]
1000123e:	464b      	mov	r3, r9
10001240:	9a0a      	ldr	r2, [sp, #40]	; 0x28
10001242:	4641      	mov	r1, r8
10001244:	0020      	movs	r0, r4
10001246:	f7ff f861 	bl	1000030c <ifReachStartingPoint>
1000124a:	2301      	movs	r3, #1
1000124c:	702b      	strb	r3, [r5, #0]
1000124e:	703b      	strb	r3, [r7, #0]
10001250:	2700      	movs	r7, #0
10001252:	7037      	strb	r7, [r6, #0]
10001254:	9b0a      	ldr	r3, [sp, #40]	; 0x28
10001256:	9309      	str	r3, [sp, #36]	; 0x24
10001258:	a908      	add	r1, sp, #32
1000125a:	4821      	ldr	r0, [pc, #132]	; (100012e0 <main+0xda4>)
1000125c:	f00a f8d2 	bl	1000b404 <strcpy>
10001260:	9701      	str	r7, [sp, #4]
10001262:	9700      	str	r7, [sp, #0]
10001264:	ab09      	add	r3, sp, #36	; 0x24
10001266:	2245      	movs	r2, #69	; 0x45
10001268:	a90a      	add	r1, sp, #40	; 0x28
1000126a:	0020      	movs	r0, r4
1000126c:	f7ff f8ae 	bl	100003cc <turnRight>
10001270:	2352      	movs	r3, #82	; 0x52
10001272:	9a09      	ldr	r2, [sp, #36]	; 0x24
10001274:	990a      	ldr	r1, [sp, #40]	; 0x28
10001276:	4817      	ldr	r0, [pc, #92]	; (100012d4 <main+0xd98>)
10001278:	f006 fed2 	bl	10008020 <__wrap_printf>
1000127c:	782b      	ldrb	r3, [r5, #0]
1000127e:	2b00      	cmp	r3, #0
10001280:	d100      	bne.n	10001284 <main+0xd48>
10001282:	e0e3      	b.n	1000144c <main+0xf10>
10001284:	7833      	ldrb	r3, [r6, #0]
10001286:	42bb      	cmp	r3, r7
10001288:	d100      	bne.n	1000128c <main+0xd50>
1000128a:	e13a      	b.n	10001502 <main+0xfc6>
1000128c:	232e      	movs	r3, #46	; 0x2e
1000128e:	446b      	add	r3, sp
10001290:	781b      	ldrb	r3, [r3, #0]
10001292:	42bb      	cmp	r3, r7
10001294:	d100      	bne.n	10001298 <main+0xd5c>
10001296:	e0c3      	b.n	10001420 <main+0xee4>
10001298:	2552      	movs	r5, #82	; 0x52
1000129a:	e0d8      	b.n	1000144e <main+0xf12>
1000129c:	9b0a      	ldr	r3, [sp, #40]	; 0x28
1000129e:	9309      	str	r3, [sp, #36]	; 0x24
100012a0:	a908      	add	r1, sp, #32
100012a2:	480d      	ldr	r0, [pc, #52]	; (100012d8 <main+0xd9c>)
100012a4:	f00a f8ae 	bl	1000b404 <strcpy>
100012a8:	2300      	movs	r3, #0
100012aa:	9301      	str	r3, [sp, #4]
100012ac:	9300      	str	r3, [sp, #0]
100012ae:	ab09      	add	r3, sp, #36	; 0x24
100012b0:	2245      	movs	r2, #69	; 0x45
100012b2:	a90a      	add	r1, sp, #40	; 0x28
100012b4:	0020      	movs	r0, r4
100012b6:	f7ff f8cd 	bl	10000454 <turnLeft>
100012ba:	234c      	movs	r3, #76	; 0x4c
100012bc:	9a09      	ldr	r2, [sp, #36]	; 0x24
100012be:	990a      	ldr	r1, [sp, #40]	; 0x28
100012c0:	4804      	ldr	r0, [pc, #16]	; (100012d4 <main+0xd98>)
100012c2:	f006 fead 	bl	10008020 <__wrap_printf>
100012c6:	234c      	movs	r3, #76	; 0x4c
100012c8:	469a      	mov	sl, r3
100012ca:	e6e6      	b.n	1000109a <main+0xb5e>
100012cc:	1000c2bc 	.word	0x1000c2bc
100012d0:	1000c270 	.word	0x1000c270
100012d4:	1000c274 	.word	0x1000c274
100012d8:	1000c2b8 	.word	0x1000c2b8
100012dc:	1000c304 	.word	0x1000c304
100012e0:	1000c2b4 	.word	0x1000c2b4
100012e4:	ab09      	add	r3, sp, #36	; 0x24
100012e6:	2245      	movs	r2, #69	; 0x45
100012e8:	a90a      	add	r1, sp, #40	; 0x28
100012ea:	0020      	movs	r0, r4
100012ec:	f7ff f8f6 	bl	100004dc <reverseRight>
100012f0:	232d      	movs	r3, #45	; 0x2d
100012f2:	446b      	add	r3, sp
100012f4:	2201      	movs	r2, #1
100012f6:	701a      	strb	r2, [r3, #0]
100012f8:	e6e2      	b.n	100010c0 <main+0xb84>
100012fa:	ab09      	add	r3, sp, #36	; 0x24
100012fc:	2245      	movs	r2, #69	; 0x45
100012fe:	a90a      	add	r1, sp, #40	; 0x28
10001300:	0020      	movs	r0, r4
10001302:	f7ff f8f9 	bl	100004f8 <reverseLeft>
10001306:	232e      	movs	r3, #46	; 0x2e
10001308:	446b      	add	r3, sp
1000130a:	2201      	movs	r2, #1
1000130c:	701a      	strb	r2, [r3, #0]
1000130e:	e6db      	b.n	100010c8 <main+0xb8c>
10001310:	ab09      	add	r3, sp, #36	; 0x24
10001312:	2245      	movs	r2, #69	; 0x45
10001314:	a90a      	add	r1, sp, #40	; 0x28
10001316:	0020      	movs	r0, r4
10001318:	f7ff f8fc 	bl	10000514 <reverseBack>
1000131c:	232f      	movs	r3, #47	; 0x2f
1000131e:	446b      	add	r3, sp
10001320:	2201      	movs	r2, #1
10001322:	701a      	strb	r2, [r3, #0]
10001324:	e6d4      	b.n	100010d0 <main+0xb94>
10001326:	990a      	ldr	r1, [sp, #40]	; 0x28
10001328:	0020      	movs	r0, r4
1000132a:	f002 fbe3 	bl	10003af4 <updateGridVisited>
1000132e:	48dc      	ldr	r0, [pc, #880]	; (100016a0 <main+0x1164>)
10001330:	f006 fe44 	bl	10007fbc <__wrap_puts>
10001334:	e6dc      	b.n	100010f0 <main+0xbb4>
10001336:	ab09      	add	r3, sp, #36	; 0x24
10001338:	2245      	movs	r2, #69	; 0x45
1000133a:	a90a      	add	r1, sp, #40	; 0x28
1000133c:	0020      	movs	r0, r4
1000133e:	f7ff f8cd 	bl	100004dc <reverseRight>
10001342:	2201      	movs	r2, #1
10001344:	702a      	strb	r2, [r5, #0]
10001346:	e6ee      	b.n	10001126 <main+0xbea>
10001348:	ab09      	add	r3, sp, #36	; 0x24
1000134a:	2245      	movs	r2, #69	; 0x45
1000134c:	a90a      	add	r1, sp, #40	; 0x28
1000134e:	0020      	movs	r0, r4
10001350:	f7ff f8d2 	bl	100004f8 <reverseLeft>
10001354:	232e      	movs	r3, #46	; 0x2e
10001356:	446b      	add	r3, sp
10001358:	2201      	movs	r2, #1
1000135a:	701a      	strb	r2, [r3, #0]
1000135c:	e6e7      	b.n	1000112e <main+0xbf2>
1000135e:	ab09      	add	r3, sp, #36	; 0x24
10001360:	2245      	movs	r2, #69	; 0x45
10001362:	a90a      	add	r1, sp, #40	; 0x28
10001364:	0020      	movs	r0, r4
10001366:	f7ff f8d5 	bl	10000514 <reverseBack>
1000136a:	232f      	movs	r3, #47	; 0x2f
1000136c:	446b      	add	r3, sp
1000136e:	2201      	movs	r2, #1
10001370:	701a      	strb	r2, [r3, #0]
10001372:	e6e0      	b.n	10001136 <main+0xbfa>
10001374:	990a      	ldr	r1, [sp, #40]	; 0x28
10001376:	0020      	movs	r0, r4
10001378:	f002 fbbc 	bl	10003af4 <updateGridVisited>
1000137c:	48c8      	ldr	r0, [pc, #800]	; (100016a0 <main+0x1164>)
1000137e:	f006 fe1d 	bl	10007fbc <__wrap_puts>
10001382:	e6e9      	b.n	10001158 <main+0xc1c>
10001384:	ab09      	add	r3, sp, #36	; 0x24
10001386:	2245      	movs	r2, #69	; 0x45
10001388:	a90a      	add	r1, sp, #40	; 0x28
1000138a:	0020      	movs	r0, r4
1000138c:	f7ff f8a6 	bl	100004dc <reverseRight>
10001390:	2201      	movs	r2, #1
10001392:	702a      	strb	r2, [r5, #0]
10001394:	e6fb      	b.n	1000118e <main+0xc52>
10001396:	ab09      	add	r3, sp, #36	; 0x24
10001398:	2245      	movs	r2, #69	; 0x45
1000139a:	a90a      	add	r1, sp, #40	; 0x28
1000139c:	0020      	movs	r0, r4
1000139e:	f7ff f8ab 	bl	100004f8 <reverseLeft>
100013a2:	232e      	movs	r3, #46	; 0x2e
100013a4:	446b      	add	r3, sp
100013a6:	2201      	movs	r2, #1
100013a8:	701a      	strb	r2, [r3, #0]
100013aa:	e6f4      	b.n	10001196 <main+0xc5a>
100013ac:	ab09      	add	r3, sp, #36	; 0x24
100013ae:	2245      	movs	r2, #69	; 0x45
100013b0:	a90a      	add	r1, sp, #40	; 0x28
100013b2:	0020      	movs	r0, r4
100013b4:	f7ff f8ae 	bl	10000514 <reverseBack>
100013b8:	232f      	movs	r3, #47	; 0x2f
100013ba:	446b      	add	r3, sp
100013bc:	2201      	movs	r2, #1
100013be:	701a      	strb	r2, [r3, #0]
100013c0:	e6ed      	b.n	1000119e <main+0xc62>
100013c2:	990a      	ldr	r1, [sp, #40]	; 0x28
100013c4:	0020      	movs	r0, r4
100013c6:	f002 fb95 	bl	10003af4 <updateGridVisited>
100013ca:	48b5      	ldr	r0, [pc, #724]	; (100016a0 <main+0x1164>)
100013cc:	f006 fdf6 	bl	10007fbc <__wrap_puts>
100013d0:	e6f5      	b.n	100011be <main+0xc82>
100013d2:	ab09      	add	r3, sp, #36	; 0x24
100013d4:	2245      	movs	r2, #69	; 0x45
100013d6:	a90a      	add	r1, sp, #40	; 0x28
100013d8:	0020      	movs	r0, r4
100013da:	f7ff f87f 	bl	100004dc <reverseRight>
100013de:	2201      	movs	r2, #1
100013e0:	702a      	strb	r2, [r5, #0]
100013e2:	e707      	b.n	100011f4 <main+0xcb8>
100013e4:	ab09      	add	r3, sp, #36	; 0x24
100013e6:	2245      	movs	r2, #69	; 0x45
100013e8:	a90a      	add	r1, sp, #40	; 0x28
100013ea:	0020      	movs	r0, r4
100013ec:	f7ff f884 	bl	100004f8 <reverseLeft>
100013f0:	232e      	movs	r3, #46	; 0x2e
100013f2:	446b      	add	r3, sp
100013f4:	2201      	movs	r2, #1
100013f6:	701a      	strb	r2, [r3, #0]
100013f8:	e700      	b.n	100011fc <main+0xcc0>
100013fa:	ab09      	add	r3, sp, #36	; 0x24
100013fc:	2245      	movs	r2, #69	; 0x45
100013fe:	a90a      	add	r1, sp, #40	; 0x28
10001400:	0020      	movs	r0, r4
10001402:	f7ff f887 	bl	10000514 <reverseBack>
10001406:	232f      	movs	r3, #47	; 0x2f
10001408:	446b      	add	r3, sp
1000140a:	2201      	movs	r2, #1
1000140c:	701a      	strb	r2, [r3, #0]
1000140e:	e6f9      	b.n	10001204 <main+0xcc8>
10001410:	990a      	ldr	r1, [sp, #40]	; 0x28
10001412:	0020      	movs	r0, r4
10001414:	f002 fb6e 	bl	10003af4 <updateGridVisited>
10001418:	48a1      	ldr	r0, [pc, #644]	; (100016a0 <main+0x1164>)
1000141a:	f006 fdcf 	bl	10007fbc <__wrap_puts>
1000141e:	e701      	b.n	10001224 <main+0xce8>
10001420:	9b0a      	ldr	r3, [sp, #40]	; 0x28
10001422:	9309      	str	r3, [sp, #36]	; 0x24
10001424:	a908      	add	r1, sp, #32
10001426:	489f      	ldr	r0, [pc, #636]	; (100016a4 <main+0x1168>)
10001428:	f009 ffec 	bl	1000b404 <strcpy>
1000142c:	9701      	str	r7, [sp, #4]
1000142e:	9700      	str	r7, [sp, #0]
10001430:	ab09      	add	r3, sp, #36	; 0x24
10001432:	2245      	movs	r2, #69	; 0x45
10001434:	a90a      	add	r1, sp, #40	; 0x28
10001436:	0020      	movs	r0, r4
10001438:	f7ff f80c 	bl	10000454 <turnLeft>
1000143c:	234c      	movs	r3, #76	; 0x4c
1000143e:	9a09      	ldr	r2, [sp, #36]	; 0x24
10001440:	990a      	ldr	r1, [sp, #40]	; 0x28
10001442:	4899      	ldr	r0, [pc, #612]	; (100016a8 <main+0x116c>)
10001444:	f006 fdec 	bl	10008020 <__wrap_printf>
10001448:	254c      	movs	r5, #76	; 0x4c
1000144a:	e000      	b.n	1000144e <main+0xf12>
1000144c:	2552      	movs	r5, #82	; 0x52
1000144e:	232f      	movs	r3, #47	; 0x2f
10001450:	446b      	add	r3, sp
10001452:	781b      	ldrb	r3, [r3, #0]
10001454:	2b00      	cmp	r3, #0
10001456:	d015      	beq.n	10001484 <main+0xf48>
10001458:	232d      	movs	r3, #45	; 0x2d
1000145a:	446b      	add	r3, sp
1000145c:	781b      	ldrb	r3, [r3, #0]
1000145e:	2b00      	cmp	r3, #0
10001460:	d010      	beq.n	10001484 <main+0xf48>
10001462:	232e      	movs	r3, #46	; 0x2e
10001464:	446b      	add	r3, sp
10001466:	781b      	ldrb	r3, [r3, #0]
10001468:	2b00      	cmp	r3, #0
1000146a:	d00b      	beq.n	10001484 <main+0xf48>
1000146c:	2d52      	cmp	r5, #82	; 0x52
1000146e:	d04a      	beq.n	10001506 <main+0xfca>
10001470:	2d4c      	cmp	r5, #76	; 0x4c
10001472:	d053      	beq.n	1000151c <main+0xfe0>
10001474:	2d46      	cmp	r5, #70	; 0x46
10001476:	d05c      	beq.n	10001532 <main+0xff6>
10001478:	002b      	movs	r3, r5
1000147a:	9a09      	ldr	r2, [sp, #36]	; 0x24
1000147c:	990a      	ldr	r1, [sp, #40]	; 0x28
1000147e:	488b      	ldr	r0, [pc, #556]	; (100016ac <main+0x1170>)
10001480:	f006 fdce 	bl	10008020 <__wrap_printf>
10001484:	9909      	ldr	r1, [sp, #36]	; 0x24
10001486:	0020      	movs	r0, r4
10001488:	f002 fb34 	bl	10003af4 <updateGridVisited>
1000148c:	0020      	movs	r0, r4
1000148e:	f002 fa89 	bl	100039a4 <checkAllNodesHasAtLeast1Edge>
10001492:	2800      	cmp	r0, #0
10001494:	d158      	bne.n	10001548 <main+0x100c>
10001496:	2353      	movs	r3, #83	; 0x53
10001498:	9304      	str	r3, [sp, #16]
1000149a:	3b05      	subs	r3, #5
1000149c:	9303      	str	r3, [sp, #12]
1000149e:	262d      	movs	r6, #45	; 0x2d
100014a0:	446e      	add	r6, sp
100014a2:	9602      	str	r6, [sp, #8]
100014a4:	272e      	movs	r7, #46	; 0x2e
100014a6:	446f      	add	r7, sp
100014a8:	9701      	str	r7, [sp, #4]
100014aa:	252f      	movs	r5, #47	; 0x2f
100014ac:	446d      	add	r5, sp
100014ae:	9500      	str	r5, [sp, #0]
100014b0:	464b      	mov	r3, r9
100014b2:	9a0a      	ldr	r2, [sp, #40]	; 0x28
100014b4:	4641      	mov	r1, r8
100014b6:	0020      	movs	r0, r4
100014b8:	f7fe ff28 	bl	1000030c <ifReachStartingPoint>
100014bc:	2300      	movs	r3, #0
100014be:	469a      	mov	sl, r3
100014c0:	702b      	strb	r3, [r5, #0]
100014c2:	703b      	strb	r3, [r7, #0]
100014c4:	3301      	adds	r3, #1
100014c6:	7033      	strb	r3, [r6, #0]
100014c8:	9b0a      	ldr	r3, [sp, #40]	; 0x28
100014ca:	9309      	str	r3, [sp, #36]	; 0x24
100014cc:	a908      	add	r1, sp, #32
100014ce:	4878      	ldr	r0, [pc, #480]	; (100016b0 <main+0x1174>)
100014d0:	f009 ff98 	bl	1000b404 <strcpy>
100014d4:	4653      	mov	r3, sl
100014d6:	9301      	str	r3, [sp, #4]
100014d8:	9300      	str	r3, [sp, #0]
100014da:	ab09      	add	r3, sp, #36	; 0x24
100014dc:	2253      	movs	r2, #83	; 0x53
100014de:	a90a      	add	r1, sp, #40	; 0x28
100014e0:	0020      	movs	r0, r4
100014e2:	f7fe ff35 	bl	10000350 <moveForward>
100014e6:	2346      	movs	r3, #70	; 0x46
100014e8:	9a09      	ldr	r2, [sp, #36]	; 0x24
100014ea:	990a      	ldr	r1, [sp, #40]	; 0x28
100014ec:	486e      	ldr	r0, [pc, #440]	; (100016a8 <main+0x116c>)
100014ee:	f006 fd97 	bl	10008020 <__wrap_printf>
100014f2:	782b      	ldrb	r3, [r5, #0]
100014f4:	2b00      	cmp	r3, #0
100014f6:	d046      	beq.n	10001586 <main+0x104a>
100014f8:	7833      	ldrb	r3, [r6, #0]
100014fa:	4553      	cmp	r3, sl
100014fc:	d02c      	beq.n	10001558 <main+0x101c>
100014fe:	2546      	movs	r5, #70	; 0x46
10001500:	e042      	b.n	10001588 <main+0x104c>
10001502:	2552      	movs	r5, #82	; 0x52
10001504:	e7a3      	b.n	1000144e <main+0xf12>
10001506:	ab09      	add	r3, sp, #36	; 0x24
10001508:	2245      	movs	r2, #69	; 0x45
1000150a:	a90a      	add	r1, sp, #40	; 0x28
1000150c:	0020      	movs	r0, r4
1000150e:	f7fe ffe5 	bl	100004dc <reverseRight>
10001512:	232d      	movs	r3, #45	; 0x2d
10001514:	446b      	add	r3, sp
10001516:	2201      	movs	r2, #1
10001518:	701a      	strb	r2, [r3, #0]
1000151a:	e7a9      	b.n	10001470 <main+0xf34>
1000151c:	ab09      	add	r3, sp, #36	; 0x24
1000151e:	2245      	movs	r2, #69	; 0x45
10001520:	a90a      	add	r1, sp, #40	; 0x28
10001522:	0020      	movs	r0, r4
10001524:	f7fe ffe8 	bl	100004f8 <reverseLeft>
10001528:	232e      	movs	r3, #46	; 0x2e
1000152a:	446b      	add	r3, sp
1000152c:	2201      	movs	r2, #1
1000152e:	701a      	strb	r2, [r3, #0]
10001530:	e7a0      	b.n	10001474 <main+0xf38>
10001532:	ab09      	add	r3, sp, #36	; 0x24
10001534:	2245      	movs	r2, #69	; 0x45
10001536:	a90a      	add	r1, sp, #40	; 0x28
10001538:	0020      	movs	r0, r4
1000153a:	f7fe ffeb 	bl	10000514 <reverseBack>
1000153e:	232f      	movs	r3, #47	; 0x2f
10001540:	446b      	add	r3, sp
10001542:	2201      	movs	r2, #1
10001544:	701a      	strb	r2, [r3, #0]
10001546:	e797      	b.n	10001478 <main+0xf3c>
10001548:	990a      	ldr	r1, [sp, #40]	; 0x28
1000154a:	0020      	movs	r0, r4
1000154c:	f002 fad2 	bl	10003af4 <updateGridVisited>
10001550:	4853      	ldr	r0, [pc, #332]	; (100016a0 <main+0x1164>)
10001552:	f006 fd33 	bl	10007fbc <__wrap_puts>
10001556:	e79e      	b.n	10001496 <main+0xf5a>
10001558:	9b0a      	ldr	r3, [sp, #40]	; 0x28
1000155a:	9309      	str	r3, [sp, #36]	; 0x24
1000155c:	a908      	add	r1, sp, #32
1000155e:	4855      	ldr	r0, [pc, #340]	; (100016b4 <main+0x1178>)
10001560:	f009 ff50 	bl	1000b404 <strcpy>
10001564:	4653      	mov	r3, sl
10001566:	9301      	str	r3, [sp, #4]
10001568:	9300      	str	r3, [sp, #0]
1000156a:	ab09      	add	r3, sp, #36	; 0x24
1000156c:	2253      	movs	r2, #83	; 0x53
1000156e:	a90a      	add	r1, sp, #40	; 0x28
10001570:	0020      	movs	r0, r4
10001572:	f7fe ff2b 	bl	100003cc <turnRight>
10001576:	2352      	movs	r3, #82	; 0x52
10001578:	9a09      	ldr	r2, [sp, #36]	; 0x24
1000157a:	990a      	ldr	r1, [sp, #40]	; 0x28
1000157c:	484a      	ldr	r0, [pc, #296]	; (100016a8 <main+0x116c>)
1000157e:	f006 fd4f 	bl	10008020 <__wrap_printf>
10001582:	2552      	movs	r5, #82	; 0x52
10001584:	e000      	b.n	10001588 <main+0x104c>
10001586:	2546      	movs	r5, #70	; 0x46
10001588:	232f      	movs	r3, #47	; 0x2f
1000158a:	446b      	add	r3, sp
1000158c:	781b      	ldrb	r3, [r3, #0]
1000158e:	2b00      	cmp	r3, #0
10001590:	d009      	beq.n	100015a6 <main+0x106a>
10001592:	232d      	movs	r3, #45	; 0x2d
10001594:	446b      	add	r3, sp
10001596:	781b      	ldrb	r3, [r3, #0]
10001598:	2b00      	cmp	r3, #0
1000159a:	d004      	beq.n	100015a6 <main+0x106a>
1000159c:	232e      	movs	r3, #46	; 0x2e
1000159e:	446b      	add	r3, sp
100015a0:	781b      	ldrb	r3, [r3, #0]
100015a2:	2b00      	cmp	r3, #0
100015a4:	d05a      	beq.n	1000165c <main+0x1120>
100015a6:	232f      	movs	r3, #47	; 0x2f
100015a8:	446b      	add	r3, sp
100015aa:	781b      	ldrb	r3, [r3, #0]
100015ac:	2b00      	cmp	r3, #0
100015ae:	d016      	beq.n	100015de <main+0x10a2>
100015b0:	232d      	movs	r3, #45	; 0x2d
100015b2:	446b      	add	r3, sp
100015b4:	781b      	ldrb	r3, [r3, #0]
100015b6:	2b00      	cmp	r3, #0
100015b8:	d011      	beq.n	100015de <main+0x10a2>
100015ba:	232e      	movs	r3, #46	; 0x2e
100015bc:	446b      	add	r3, sp
100015be:	781b      	ldrb	r3, [r3, #0]
100015c0:	2b00      	cmp	r3, #0
100015c2:	d00c      	beq.n	100015de <main+0x10a2>
100015c4:	2d52      	cmp	r5, #82	; 0x52
100015c6:	d060      	beq.n	1000168a <main+0x114e>
100015c8:	2d4c      	cmp	r5, #76	; 0x4c
100015ca:	d075      	beq.n	100016b8 <main+0x117c>
100015cc:	2d46      	cmp	r5, #70	; 0x46
100015ce:	d100      	bne.n	100015d2 <main+0x1096>
100015d0:	e07d      	b.n	100016ce <main+0x1192>
100015d2:	002b      	movs	r3, r5
100015d4:	9a09      	ldr	r2, [sp, #36]	; 0x24
100015d6:	990a      	ldr	r1, [sp, #40]	; 0x28
100015d8:	4834      	ldr	r0, [pc, #208]	; (100016ac <main+0x1170>)
100015da:	f006 fd21 	bl	10008020 <__wrap_printf>
100015de:	9909      	ldr	r1, [sp, #36]	; 0x24
100015e0:	0020      	movs	r0, r4
100015e2:	f002 fa87 	bl	10003af4 <updateGridVisited>
100015e6:	0020      	movs	r0, r4
100015e8:	f002 f9dc 	bl	100039a4 <checkAllNodesHasAtLeast1Edge>
100015ec:	2800      	cmp	r0, #0
100015ee:	d179      	bne.n	100016e4 <main+0x11a8>
100015f0:	2353      	movs	r3, #83	; 0x53
100015f2:	9304      	str	r3, [sp, #16]
100015f4:	3b05      	subs	r3, #5
100015f6:	9303      	str	r3, [sp, #12]
100015f8:	262d      	movs	r6, #45	; 0x2d
100015fa:	446e      	add	r6, sp
100015fc:	9602      	str	r6, [sp, #8]
100015fe:	272e      	movs	r7, #46	; 0x2e
10001600:	446f      	add	r7, sp
10001602:	9701      	str	r7, [sp, #4]
10001604:	252f      	movs	r5, #47	; 0x2f
10001606:	446d      	add	r5, sp
10001608:	9500      	str	r5, [sp, #0]
1000160a:	464b      	mov	r3, r9
1000160c:	9a0a      	ldr	r2, [sp, #40]	; 0x28
1000160e:	4641      	mov	r1, r8
10001610:	0020      	movs	r0, r4
10001612:	f7fe fe7b 	bl	1000030c <ifReachStartingPoint>
10001616:	2300      	movs	r3, #0
10001618:	469a      	mov	sl, r3
1000161a:	702b      	strb	r3, [r5, #0]
1000161c:	3301      	adds	r3, #1
1000161e:	703b      	strb	r3, [r7, #0]
10001620:	7033      	strb	r3, [r6, #0]
10001622:	9b0a      	ldr	r3, [sp, #40]	; 0x28
10001624:	9309      	str	r3, [sp, #36]	; 0x24
10001626:	a908      	add	r1, sp, #32
10001628:	4821      	ldr	r0, [pc, #132]	; (100016b0 <main+0x1174>)
1000162a:	f009 feeb 	bl	1000b404 <strcpy>
1000162e:	4653      	mov	r3, sl
10001630:	9301      	str	r3, [sp, #4]
10001632:	9300      	str	r3, [sp, #0]
10001634:	ab09      	add	r3, sp, #36	; 0x24
10001636:	2253      	movs	r2, #83	; 0x53
10001638:	a90a      	add	r1, sp, #40	; 0x28
1000163a:	0020      	movs	r0, r4
1000163c:	f7fe fe88 	bl	10000350 <moveForward>
10001640:	2346      	movs	r3, #70	; 0x46
10001642:	9a09      	ldr	r2, [sp, #36]	; 0x24
10001644:	990a      	ldr	r1, [sp, #40]	; 0x28
10001646:	4818      	ldr	r0, [pc, #96]	; (100016a8 <main+0x116c>)
10001648:	f006 fcea 	bl	10008020 <__wrap_printf>
1000164c:	782b      	ldrb	r3, [r5, #0]
1000164e:	2b00      	cmp	r3, #0
10001650:	d067      	beq.n	10001722 <main+0x11e6>
10001652:	7833      	ldrb	r3, [r6, #0]
10001654:	4553      	cmp	r3, sl
10001656:	d04d      	beq.n	100016f4 <main+0x11b8>
10001658:	2546      	movs	r5, #70	; 0x46
1000165a:	e063      	b.n	10001724 <main+0x11e8>
1000165c:	9b0a      	ldr	r3, [sp, #40]	; 0x28
1000165e:	9309      	str	r3, [sp, #36]	; 0x24
10001660:	a908      	add	r1, sp, #32
10001662:	4810      	ldr	r0, [pc, #64]	; (100016a4 <main+0x1168>)
10001664:	f009 fece 	bl	1000b404 <strcpy>
10001668:	2300      	movs	r3, #0
1000166a:	9301      	str	r3, [sp, #4]
1000166c:	9300      	str	r3, [sp, #0]
1000166e:	ab09      	add	r3, sp, #36	; 0x24
10001670:	2253      	movs	r2, #83	; 0x53
10001672:	a90a      	add	r1, sp, #40	; 0x28
10001674:	0020      	movs	r0, r4
10001676:	f7fe feed 	bl	10000454 <turnLeft>
1000167a:	234c      	movs	r3, #76	; 0x4c
1000167c:	9a09      	ldr	r2, [sp, #36]	; 0x24
1000167e:	990a      	ldr	r1, [sp, #40]	; 0x28
10001680:	4809      	ldr	r0, [pc, #36]	; (100016a8 <main+0x116c>)
10001682:	f006 fccd 	bl	10008020 <__wrap_printf>
10001686:	254c      	movs	r5, #76	; 0x4c
10001688:	e78d      	b.n	100015a6 <main+0x106a>
1000168a:	ab09      	add	r3, sp, #36	; 0x24
1000168c:	2253      	movs	r2, #83	; 0x53
1000168e:	a90a      	add	r1, sp, #40	; 0x28
10001690:	0020      	movs	r0, r4
10001692:	f7fe ff23 	bl	100004dc <reverseRight>
10001696:	232d      	movs	r3, #45	; 0x2d
10001698:	446b      	add	r3, sp
1000169a:	2201      	movs	r2, #1
1000169c:	701a      	strb	r2, [r3, #0]
1000169e:	e793      	b.n	100015c8 <main+0x108c>
100016a0:	1000c304 	.word	0x1000c304
100016a4:	1000c2b8 	.word	0x1000c2b8
100016a8:	1000c274 	.word	0x1000c274
100016ac:	1000c2bc 	.word	0x1000c2bc
100016b0:	1000c270 	.word	0x1000c270
100016b4:	1000c2b4 	.word	0x1000c2b4
100016b8:	ab09      	add	r3, sp, #36	; 0x24
100016ba:	2253      	movs	r2, #83	; 0x53
100016bc:	a90a      	add	r1, sp, #40	; 0x28
100016be:	0020      	movs	r0, r4
100016c0:	f7fe ff1a 	bl	100004f8 <reverseLeft>
100016c4:	232e      	movs	r3, #46	; 0x2e
100016c6:	446b      	add	r3, sp
100016c8:	2201      	movs	r2, #1
100016ca:	701a      	strb	r2, [r3, #0]
100016cc:	e77e      	b.n	100015cc <main+0x1090>
100016ce:	ab09      	add	r3, sp, #36	; 0x24
100016d0:	2253      	movs	r2, #83	; 0x53
100016d2:	a90a      	add	r1, sp, #40	; 0x28
100016d4:	0020      	movs	r0, r4
100016d6:	f7fe ff1d 	bl	10000514 <reverseBack>
100016da:	232f      	movs	r3, #47	; 0x2f
100016dc:	446b      	add	r3, sp
100016de:	2201      	movs	r2, #1
100016e0:	701a      	strb	r2, [r3, #0]
100016e2:	e776      	b.n	100015d2 <main+0x1096>
100016e4:	990a      	ldr	r1, [sp, #40]	; 0x28
100016e6:	0020      	movs	r0, r4
100016e8:	f002 fa04 	bl	10003af4 <updateGridVisited>
100016ec:	489d      	ldr	r0, [pc, #628]	; (10001964 <main+0x1428>)
100016ee:	f006 fc65 	bl	10007fbc <__wrap_puts>
100016f2:	e77d      	b.n	100015f0 <main+0x10b4>
100016f4:	9b0a      	ldr	r3, [sp, #40]	; 0x28
100016f6:	9309      	str	r3, [sp, #36]	; 0x24
100016f8:	a908      	add	r1, sp, #32
100016fa:	489b      	ldr	r0, [pc, #620]	; (10001968 <main+0x142c>)
100016fc:	f009 fe82 	bl	1000b404 <strcpy>
10001700:	4653      	mov	r3, sl
10001702:	9301      	str	r3, [sp, #4]
10001704:	9300      	str	r3, [sp, #0]
10001706:	ab09      	add	r3, sp, #36	; 0x24
10001708:	2253      	movs	r2, #83	; 0x53
1000170a:	a90a      	add	r1, sp, #40	; 0x28
1000170c:	0020      	movs	r0, r4
1000170e:	f7fe fe5d 	bl	100003cc <turnRight>
10001712:	2352      	movs	r3, #82	; 0x52
10001714:	9a09      	ldr	r2, [sp, #36]	; 0x24
10001716:	990a      	ldr	r1, [sp, #40]	; 0x28
10001718:	4894      	ldr	r0, [pc, #592]	; (1000196c <main+0x1430>)
1000171a:	f006 fc81 	bl	10008020 <__wrap_printf>
1000171e:	2552      	movs	r5, #82	; 0x52
10001720:	e000      	b.n	10001724 <main+0x11e8>
10001722:	2546      	movs	r5, #70	; 0x46
10001724:	232f      	movs	r3, #47	; 0x2f
10001726:	446b      	add	r3, sp
10001728:	781b      	ldrb	r3, [r3, #0]
1000172a:	2b00      	cmp	r3, #0
1000172c:	d00a      	beq.n	10001744 <main+0x1208>
1000172e:	232d      	movs	r3, #45	; 0x2d
10001730:	446b      	add	r3, sp
10001732:	781b      	ldrb	r3, [r3, #0]
10001734:	2b00      	cmp	r3, #0
10001736:	d005      	beq.n	10001744 <main+0x1208>
10001738:	232e      	movs	r3, #46	; 0x2e
1000173a:	446b      	add	r3, sp
1000173c:	781b      	ldrb	r3, [r3, #0]
1000173e:	2b00      	cmp	r3, #0
10001740:	d100      	bne.n	10001744 <main+0x1208>
10001742:	e0a0      	b.n	10001886 <main+0x134a>
10001744:	232f      	movs	r3, #47	; 0x2f
10001746:	446b      	add	r3, sp
10001748:	781b      	ldrb	r3, [r3, #0]
1000174a:	2b00      	cmp	r3, #0
1000174c:	d018      	beq.n	10001780 <main+0x1244>
1000174e:	232d      	movs	r3, #45	; 0x2d
10001750:	446b      	add	r3, sp
10001752:	781b      	ldrb	r3, [r3, #0]
10001754:	2b00      	cmp	r3, #0
10001756:	d013      	beq.n	10001780 <main+0x1244>
10001758:	232e      	movs	r3, #46	; 0x2e
1000175a:	446b      	add	r3, sp
1000175c:	781b      	ldrb	r3, [r3, #0]
1000175e:	2b00      	cmp	r3, #0
10001760:	d00e      	beq.n	10001780 <main+0x1244>
10001762:	2d52      	cmp	r5, #82	; 0x52
10001764:	d100      	bne.n	10001768 <main+0x122c>
10001766:	e0a5      	b.n	100018b4 <main+0x1378>
10001768:	2d4c      	cmp	r5, #76	; 0x4c
1000176a:	d100      	bne.n	1000176e <main+0x1232>
1000176c:	e0ad      	b.n	100018ca <main+0x138e>
1000176e:	2d46      	cmp	r5, #70	; 0x46
10001770:	d100      	bne.n	10001774 <main+0x1238>
10001772:	e0b5      	b.n	100018e0 <main+0x13a4>
10001774:	002b      	movs	r3, r5
10001776:	9a09      	ldr	r2, [sp, #36]	; 0x24
10001778:	990a      	ldr	r1, [sp, #40]	; 0x28
1000177a:	487d      	ldr	r0, [pc, #500]	; (10001970 <main+0x1434>)
1000177c:	f006 fc50 	bl	10008020 <__wrap_printf>
10001780:	9909      	ldr	r1, [sp, #36]	; 0x24
10001782:	0020      	movs	r0, r4
10001784:	f002 f9b6 	bl	10003af4 <updateGridVisited>
10001788:	0020      	movs	r0, r4
1000178a:	f002 f90b 	bl	100039a4 <checkAllNodesHasAtLeast1Edge>
1000178e:	2800      	cmp	r0, #0
10001790:	d000      	beq.n	10001794 <main+0x1258>
10001792:	e0b0      	b.n	100018f6 <main+0x13ba>
10001794:	2353      	movs	r3, #83	; 0x53
10001796:	9304      	str	r3, [sp, #16]
10001798:	3b05      	subs	r3, #5
1000179a:	9303      	str	r3, [sp, #12]
1000179c:	262d      	movs	r6, #45	; 0x2d
1000179e:	446e      	add	r6, sp
100017a0:	9602      	str	r6, [sp, #8]
100017a2:	272e      	movs	r7, #46	; 0x2e
100017a4:	446f      	add	r7, sp
100017a6:	9701      	str	r7, [sp, #4]
100017a8:	252f      	movs	r5, #47	; 0x2f
100017aa:	446d      	add	r5, sp
100017ac:	9500      	str	r5, [sp, #0]
100017ae:	464b      	mov	r3, r9
100017b0:	9a0a      	ldr	r2, [sp, #40]	; 0x28
100017b2:	4641      	mov	r1, r8
100017b4:	0020      	movs	r0, r4
100017b6:	f7fe fda9 	bl	1000030c <ifReachStartingPoint>
100017ba:	2301      	movs	r3, #1
100017bc:	702b      	strb	r3, [r5, #0]
100017be:	2200      	movs	r2, #0
100017c0:	4692      	mov	sl, r2
100017c2:	703a      	strb	r2, [r7, #0]
100017c4:	7033      	strb	r3, [r6, #0]
100017c6:	9b0a      	ldr	r3, [sp, #40]	; 0x28
100017c8:	9309      	str	r3, [sp, #36]	; 0x24
100017ca:	a908      	add	r1, sp, #32
100017cc:	4869      	ldr	r0, [pc, #420]	; (10001974 <main+0x1438>)
100017ce:	f009 fe19 	bl	1000b404 <strcpy>
100017d2:	4653      	mov	r3, sl
100017d4:	9301      	str	r3, [sp, #4]
100017d6:	9300      	str	r3, [sp, #0]
100017d8:	ab09      	add	r3, sp, #36	; 0x24
100017da:	2253      	movs	r2, #83	; 0x53
100017dc:	a90a      	add	r1, sp, #40	; 0x28
100017de:	0020      	movs	r0, r4
100017e0:	f7fe fe38 	bl	10000454 <turnLeft>
100017e4:	234c      	movs	r3, #76	; 0x4c
100017e6:	9a09      	ldr	r2, [sp, #36]	; 0x24
100017e8:	990a      	ldr	r1, [sp, #40]	; 0x28
100017ea:	4860      	ldr	r0, [pc, #384]	; (1000196c <main+0x1430>)
100017ec:	f006 fc18 	bl	10008020 <__wrap_printf>
100017f0:	782b      	ldrb	r3, [r5, #0]
100017f2:	2b00      	cmp	r3, #0
100017f4:	d006      	beq.n	10001804 <main+0x12c8>
100017f6:	7833      	ldrb	r3, [r6, #0]
100017f8:	4553      	cmp	r3, sl
100017fa:	d003      	beq.n	10001804 <main+0x12c8>
100017fc:	783b      	ldrb	r3, [r7, #0]
100017fe:	4553      	cmp	r3, sl
10001800:	d000      	beq.n	10001804 <main+0x12c8>
10001802:	e080      	b.n	10001906 <main+0x13ca>
10001804:	9909      	ldr	r1, [sp, #36]	; 0x24
10001806:	0020      	movs	r0, r4
10001808:	f002 f974 	bl	10003af4 <updateGridVisited>
1000180c:	0020      	movs	r0, r4
1000180e:	f002 f8c9 	bl	100039a4 <checkAllNodesHasAtLeast1Edge>
10001812:	2800      	cmp	r0, #0
10001814:	d000      	beq.n	10001818 <main+0x12dc>
10001816:	e085      	b.n	10001924 <main+0x13e8>
10001818:	2345      	movs	r3, #69	; 0x45
1000181a:	9304      	str	r3, [sp, #16]
1000181c:	3309      	adds	r3, #9
1000181e:	9303      	str	r3, [sp, #12]
10001820:	262d      	movs	r6, #45	; 0x2d
10001822:	446e      	add	r6, sp
10001824:	9602      	str	r6, [sp, #8]
10001826:	272e      	movs	r7, #46	; 0x2e
10001828:	446f      	add	r7, sp
1000182a:	9701      	str	r7, [sp, #4]
1000182c:	252f      	movs	r5, #47	; 0x2f
1000182e:	446d      	add	r5, sp
10001830:	9500      	str	r5, [sp, #0]
10001832:	464b      	mov	r3, r9
10001834:	9a0a      	ldr	r2, [sp, #40]	; 0x28
10001836:	4641      	mov	r1, r8
10001838:	0020      	movs	r0, r4
1000183a:	f7fe fd67 	bl	1000030c <ifReachStartingPoint>
1000183e:	2300      	movs	r3, #0
10001840:	469a      	mov	sl, r3
10001842:	702b      	strb	r3, [r5, #0]
10001844:	703b      	strb	r3, [r7, #0]
10001846:	3301      	adds	r3, #1
10001848:	7033      	strb	r3, [r6, #0]
1000184a:	9b0a      	ldr	r3, [sp, #40]	; 0x28
1000184c:	9309      	str	r3, [sp, #36]	; 0x24
1000184e:	a908      	add	r1, sp, #32
10001850:	4849      	ldr	r0, [pc, #292]	; (10001978 <main+0x143c>)
10001852:	f009 fdd7 	bl	1000b404 <strcpy>
10001856:	4653      	mov	r3, sl
10001858:	9301      	str	r3, [sp, #4]
1000185a:	9300      	str	r3, [sp, #0]
1000185c:	ab09      	add	r3, sp, #36	; 0x24
1000185e:	2245      	movs	r2, #69	; 0x45
10001860:	a90a      	add	r1, sp, #40	; 0x28
10001862:	0020      	movs	r0, r4
10001864:	f7fe fd74 	bl	10000350 <moveForward>
10001868:	2346      	movs	r3, #70	; 0x46
1000186a:	9a09      	ldr	r2, [sp, #36]	; 0x24
1000186c:	990a      	ldr	r1, [sp, #40]	; 0x28
1000186e:	483f      	ldr	r0, [pc, #252]	; (1000196c <main+0x1430>)
10001870:	f006 fbd6 	bl	10008020 <__wrap_printf>
10001874:	782b      	ldrb	r3, [r5, #0]
10001876:	2b00      	cmp	r3, #0
10001878:	d100      	bne.n	1000187c <main+0x1340>
1000187a:	e07f      	b.n	1000197c <main+0x1440>
1000187c:	7833      	ldrb	r3, [r6, #0]
1000187e:	4553      	cmp	r3, sl
10001880:	d058      	beq.n	10001934 <main+0x13f8>
10001882:	2546      	movs	r5, #70	; 0x46
10001884:	e07b      	b.n	1000197e <main+0x1442>
10001886:	9b0a      	ldr	r3, [sp, #40]	; 0x28
10001888:	9309      	str	r3, [sp, #36]	; 0x24
1000188a:	a908      	add	r1, sp, #32
1000188c:	4839      	ldr	r0, [pc, #228]	; (10001974 <main+0x1438>)
1000188e:	f009 fdb9 	bl	1000b404 <strcpy>
10001892:	2300      	movs	r3, #0
10001894:	9301      	str	r3, [sp, #4]
10001896:	9300      	str	r3, [sp, #0]
10001898:	ab09      	add	r3, sp, #36	; 0x24
1000189a:	2253      	movs	r2, #83	; 0x53
1000189c:	a90a      	add	r1, sp, #40	; 0x28
1000189e:	0020      	movs	r0, r4
100018a0:	f7fe fdd8 	bl	10000454 <turnLeft>
100018a4:	234c      	movs	r3, #76	; 0x4c
100018a6:	9a09      	ldr	r2, [sp, #36]	; 0x24
100018a8:	990a      	ldr	r1, [sp, #40]	; 0x28
100018aa:	4830      	ldr	r0, [pc, #192]	; (1000196c <main+0x1430>)
100018ac:	f006 fbb8 	bl	10008020 <__wrap_printf>
100018b0:	254c      	movs	r5, #76	; 0x4c
100018b2:	e747      	b.n	10001744 <main+0x1208>
100018b4:	ab09      	add	r3, sp, #36	; 0x24
100018b6:	2253      	movs	r2, #83	; 0x53
100018b8:	a90a      	add	r1, sp, #40	; 0x28
100018ba:	0020      	movs	r0, r4
100018bc:	f7fe fe0e 	bl	100004dc <reverseRight>
100018c0:	232d      	movs	r3, #45	; 0x2d
100018c2:	446b      	add	r3, sp
100018c4:	2201      	movs	r2, #1
100018c6:	701a      	strb	r2, [r3, #0]
100018c8:	e74e      	b.n	10001768 <main+0x122c>
100018ca:	ab09      	add	r3, sp, #36	; 0x24
100018cc:	2253      	movs	r2, #83	; 0x53
100018ce:	a90a      	add	r1, sp, #40	; 0x28
100018d0:	0020      	movs	r0, r4
100018d2:	f7fe fe11 	bl	100004f8 <reverseLeft>
100018d6:	232e      	movs	r3, #46	; 0x2e
100018d8:	446b      	add	r3, sp
100018da:	2201      	movs	r2, #1
100018dc:	701a      	strb	r2, [r3, #0]
100018de:	e746      	b.n	1000176e <main+0x1232>
100018e0:	ab09      	add	r3, sp, #36	; 0x24
100018e2:	2253      	movs	r2, #83	; 0x53
100018e4:	a90a      	add	r1, sp, #40	; 0x28
100018e6:	0020      	movs	r0, r4
100018e8:	f7fe fe14 	bl	10000514 <reverseBack>
100018ec:	232f      	movs	r3, #47	; 0x2f
100018ee:	446b      	add	r3, sp
100018f0:	2201      	movs	r2, #1
100018f2:	701a      	strb	r2, [r3, #0]
100018f4:	e73e      	b.n	10001774 <main+0x1238>
100018f6:	990a      	ldr	r1, [sp, #40]	; 0x28
100018f8:	0020      	movs	r0, r4
100018fa:	f002 f8fb 	bl	10003af4 <updateGridVisited>
100018fe:	4819      	ldr	r0, [pc, #100]	; (10001964 <main+0x1428>)
10001900:	f006 fb5c 	bl	10007fbc <__wrap_puts>
10001904:	e746      	b.n	10001794 <main+0x1258>
10001906:	ab09      	add	r3, sp, #36	; 0x24
10001908:	2253      	movs	r2, #83	; 0x53
1000190a:	a90a      	add	r1, sp, #40	; 0x28
1000190c:	0020      	movs	r0, r4
1000190e:	f7fe fdf3 	bl	100004f8 <reverseLeft>
10001912:	2201      	movs	r2, #1
10001914:	703a      	strb	r2, [r7, #0]
10001916:	234c      	movs	r3, #76	; 0x4c
10001918:	9a09      	ldr	r2, [sp, #36]	; 0x24
1000191a:	990a      	ldr	r1, [sp, #40]	; 0x28
1000191c:	4814      	ldr	r0, [pc, #80]	; (10001970 <main+0x1434>)
1000191e:	f006 fb7f 	bl	10008020 <__wrap_printf>
10001922:	e76f      	b.n	10001804 <main+0x12c8>
10001924:	990a      	ldr	r1, [sp, #40]	; 0x28
10001926:	0020      	movs	r0, r4
10001928:	f002 f8e4 	bl	10003af4 <updateGridVisited>
1000192c:	480d      	ldr	r0, [pc, #52]	; (10001964 <main+0x1428>)
1000192e:	f006 fb45 	bl	10007fbc <__wrap_puts>
10001932:	e771      	b.n	10001818 <main+0x12dc>
10001934:	9b0a      	ldr	r3, [sp, #40]	; 0x28
10001936:	9309      	str	r3, [sp, #36]	; 0x24
10001938:	a908      	add	r1, sp, #32
1000193a:	480b      	ldr	r0, [pc, #44]	; (10001968 <main+0x142c>)
1000193c:	f009 fd62 	bl	1000b404 <strcpy>
10001940:	4653      	mov	r3, sl
10001942:	9301      	str	r3, [sp, #4]
10001944:	9300      	str	r3, [sp, #0]
10001946:	ab09      	add	r3, sp, #36	; 0x24
10001948:	2245      	movs	r2, #69	; 0x45
1000194a:	a90a      	add	r1, sp, #40	; 0x28
1000194c:	0020      	movs	r0, r4
1000194e:	f7fe fd3d 	bl	100003cc <turnRight>
10001952:	2352      	movs	r3, #82	; 0x52
10001954:	9a09      	ldr	r2, [sp, #36]	; 0x24
10001956:	990a      	ldr	r1, [sp, #40]	; 0x28
10001958:	4804      	ldr	r0, [pc, #16]	; (1000196c <main+0x1430>)
1000195a:	f006 fb61 	bl	10008020 <__wrap_printf>
1000195e:	2552      	movs	r5, #82	; 0x52
10001960:	e00d      	b.n	1000197e <main+0x1442>
10001962:	46c0      	nop			; (mov r8, r8)
10001964:	1000c304 	.word	0x1000c304
10001968:	1000c2b4 	.word	0x1000c2b4
1000196c:	1000c274 	.word	0x1000c274
10001970:	1000c2bc 	.word	0x1000c2bc
10001974:	1000c2b8 	.word	0x1000c2b8
10001978:	1000c270 	.word	0x1000c270
1000197c:	2546      	movs	r5, #70	; 0x46
1000197e:	232f      	movs	r3, #47	; 0x2f
10001980:	446b      	add	r3, sp
10001982:	781b      	ldrb	r3, [r3, #0]
10001984:	2b00      	cmp	r3, #0
10001986:	d00a      	beq.n	1000199e <main+0x1462>
10001988:	232d      	movs	r3, #45	; 0x2d
1000198a:	446b      	add	r3, sp
1000198c:	781b      	ldrb	r3, [r3, #0]
1000198e:	2b00      	cmp	r3, #0
10001990:	d005      	beq.n	1000199e <main+0x1462>
10001992:	232e      	movs	r3, #46	; 0x2e
10001994:	446b      	add	r3, sp
10001996:	781b      	ldrb	r3, [r3, #0]
10001998:	2b00      	cmp	r3, #0
1000199a:	d100      	bne.n	1000199e <main+0x1462>
1000199c:	e106      	b.n	10001bac <main+0x1670>
1000199e:	232f      	movs	r3, #47	; 0x2f
100019a0:	446b      	add	r3, sp
100019a2:	781b      	ldrb	r3, [r3, #0]
100019a4:	2b00      	cmp	r3, #0
100019a6:	d018      	beq.n	100019da <main+0x149e>
100019a8:	232d      	movs	r3, #45	; 0x2d
100019aa:	446b      	add	r3, sp
100019ac:	781b      	ldrb	r3, [r3, #0]
100019ae:	2b00      	cmp	r3, #0
100019b0:	d013      	beq.n	100019da <main+0x149e>
100019b2:	232e      	movs	r3, #46	; 0x2e
100019b4:	446b      	add	r3, sp
100019b6:	781b      	ldrb	r3, [r3, #0]
100019b8:	2b00      	cmp	r3, #0
100019ba:	d00e      	beq.n	100019da <main+0x149e>
100019bc:	2d52      	cmp	r5, #82	; 0x52
100019be:	d100      	bne.n	100019c2 <main+0x1486>
100019c0:	e10b      	b.n	10001bda <main+0x169e>
100019c2:	2d4c      	cmp	r5, #76	; 0x4c
100019c4:	d100      	bne.n	100019c8 <main+0x148c>
100019c6:	e113      	b.n	10001bf0 <main+0x16b4>
100019c8:	2d46      	cmp	r5, #70	; 0x46
100019ca:	d100      	bne.n	100019ce <main+0x1492>
100019cc:	e11b      	b.n	10001c06 <main+0x16ca>
100019ce:	002b      	movs	r3, r5
100019d0:	9a09      	ldr	r2, [sp, #36]	; 0x24
100019d2:	990a      	ldr	r1, [sp, #40]	; 0x28
100019d4:	48e3      	ldr	r0, [pc, #908]	; (10001d64 <main+0x1828>)
100019d6:	f006 fb23 	bl	10008020 <__wrap_printf>
100019da:	9909      	ldr	r1, [sp, #36]	; 0x24
100019dc:	0020      	movs	r0, r4
100019de:	f002 f889 	bl	10003af4 <updateGridVisited>
100019e2:	0020      	movs	r0, r4
100019e4:	f001 ffde 	bl	100039a4 <checkAllNodesHasAtLeast1Edge>
100019e8:	2800      	cmp	r0, #0
100019ea:	d000      	beq.n	100019ee <main+0x14b2>
100019ec:	e116      	b.n	10001c1c <main+0x16e0>
100019ee:	2345      	movs	r3, #69	; 0x45
100019f0:	9304      	str	r3, [sp, #16]
100019f2:	3309      	adds	r3, #9
100019f4:	9303      	str	r3, [sp, #12]
100019f6:	262d      	movs	r6, #45	; 0x2d
100019f8:	446e      	add	r6, sp
100019fa:	9602      	str	r6, [sp, #8]
100019fc:	272e      	movs	r7, #46	; 0x2e
100019fe:	446f      	add	r7, sp
10001a00:	9701      	str	r7, [sp, #4]
10001a02:	252f      	movs	r5, #47	; 0x2f
10001a04:	446d      	add	r5, sp
10001a06:	9500      	str	r5, [sp, #0]
10001a08:	464b      	mov	r3, r9
10001a0a:	9a0a      	ldr	r2, [sp, #40]	; 0x28
10001a0c:	4641      	mov	r1, r8
10001a0e:	0020      	movs	r0, r4
10001a10:	f7fe fc7c 	bl	1000030c <ifReachStartingPoint>
10001a14:	2301      	movs	r3, #1
10001a16:	469a      	mov	sl, r3
10001a18:	702b      	strb	r3, [r5, #0]
10001a1a:	2300      	movs	r3, #0
10001a1c:	469b      	mov	fp, r3
10001a1e:	703b      	strb	r3, [r7, #0]
10001a20:	4653      	mov	r3, sl
10001a22:	7033      	strb	r3, [r6, #0]
10001a24:	9b0a      	ldr	r3, [sp, #40]	; 0x28
10001a26:	9309      	str	r3, [sp, #36]	; 0x24
10001a28:	a908      	add	r1, sp, #32
10001a2a:	48cf      	ldr	r0, [pc, #828]	; (10001d68 <main+0x182c>)
10001a2c:	f009 fcea 	bl	1000b404 <strcpy>
10001a30:	465b      	mov	r3, fp
10001a32:	9301      	str	r3, [sp, #4]
10001a34:	4653      	mov	r3, sl
10001a36:	9300      	str	r3, [sp, #0]
10001a38:	ab09      	add	r3, sp, #36	; 0x24
10001a3a:	2245      	movs	r2, #69	; 0x45
10001a3c:	a90a      	add	r1, sp, #40	; 0x28
10001a3e:	0020      	movs	r0, r4
10001a40:	f7fe fd08 	bl	10000454 <turnLeft>
10001a44:	234c      	movs	r3, #76	; 0x4c
10001a46:	9a09      	ldr	r2, [sp, #36]	; 0x24
10001a48:	990a      	ldr	r1, [sp, #40]	; 0x28
10001a4a:	48c8      	ldr	r0, [pc, #800]	; (10001d6c <main+0x1830>)
10001a4c:	f006 fae8 	bl	10008020 <__wrap_printf>
10001a50:	782b      	ldrb	r3, [r5, #0]
10001a52:	2b00      	cmp	r3, #0
10001a54:	d006      	beq.n	10001a64 <main+0x1528>
10001a56:	7833      	ldrb	r3, [r6, #0]
10001a58:	455b      	cmp	r3, fp
10001a5a:	d003      	beq.n	10001a64 <main+0x1528>
10001a5c:	783b      	ldrb	r3, [r7, #0]
10001a5e:	455b      	cmp	r3, fp
10001a60:	d000      	beq.n	10001a64 <main+0x1528>
10001a62:	e0e3      	b.n	10001c2c <main+0x16f0>
10001a64:	9909      	ldr	r1, [sp, #36]	; 0x24
10001a66:	0020      	movs	r0, r4
10001a68:	f002 f844 	bl	10003af4 <updateGridVisited>
10001a6c:	0020      	movs	r0, r4
10001a6e:	f001 ff99 	bl	100039a4 <checkAllNodesHasAtLeast1Edge>
10001a72:	2800      	cmp	r0, #0
10001a74:	d000      	beq.n	10001a78 <main+0x153c>
10001a76:	e0e8      	b.n	10001c4a <main+0x170e>
10001a78:	234e      	movs	r3, #78	; 0x4e
10001a7a:	9304      	str	r3, [sp, #16]
10001a7c:	9303      	str	r3, [sp, #12]
10001a7e:	262d      	movs	r6, #45	; 0x2d
10001a80:	446e      	add	r6, sp
10001a82:	9602      	str	r6, [sp, #8]
10001a84:	272e      	movs	r7, #46	; 0x2e
10001a86:	446f      	add	r7, sp
10001a88:	9701      	str	r7, [sp, #4]
10001a8a:	252f      	movs	r5, #47	; 0x2f
10001a8c:	446d      	add	r5, sp
10001a8e:	9500      	str	r5, [sp, #0]
10001a90:	464b      	mov	r3, r9
10001a92:	9a0a      	ldr	r2, [sp, #40]	; 0x28
10001a94:	4641      	mov	r1, r8
10001a96:	0020      	movs	r0, r4
10001a98:	f7fe fc38 	bl	1000030c <ifReachStartingPoint>
10001a9c:	2300      	movs	r3, #0
10001a9e:	703b      	strb	r3, [r7, #0]
10001aa0:	7033      	strb	r3, [r6, #0]
10001aa2:	782b      	ldrb	r3, [r5, #0]
10001aa4:	2b00      	cmp	r3, #0
10001aa6:	d100      	bne.n	10001aaa <main+0x156e>
10001aa8:	e0d7      	b.n	10001c5a <main+0x171e>
10001aaa:	254c      	movs	r5, #76	; 0x4c
10001aac:	232f      	movs	r3, #47	; 0x2f
10001aae:	446b      	add	r3, sp
10001ab0:	781b      	ldrb	r3, [r3, #0]
10001ab2:	2b00      	cmp	r3, #0
10001ab4:	d005      	beq.n	10001ac2 <main+0x1586>
10001ab6:	232d      	movs	r3, #45	; 0x2d
10001ab8:	446b      	add	r3, sp
10001aba:	781b      	ldrb	r3, [r3, #0]
10001abc:	2b00      	cmp	r3, #0
10001abe:	d100      	bne.n	10001ac2 <main+0x1586>
10001ac0:	e0e2      	b.n	10001c88 <main+0x174c>
10001ac2:	232f      	movs	r3, #47	; 0x2f
10001ac4:	446b      	add	r3, sp
10001ac6:	781b      	ldrb	r3, [r3, #0]
10001ac8:	2b00      	cmp	r3, #0
10001aca:	d00a      	beq.n	10001ae2 <main+0x15a6>
10001acc:	232d      	movs	r3, #45	; 0x2d
10001ace:	446b      	add	r3, sp
10001ad0:	781b      	ldrb	r3, [r3, #0]
10001ad2:	2b00      	cmp	r3, #0
10001ad4:	d005      	beq.n	10001ae2 <main+0x15a6>
10001ad6:	232e      	movs	r3, #46	; 0x2e
10001ad8:	446b      	add	r3, sp
10001ada:	781b      	ldrb	r3, [r3, #0]
10001adc:	2b00      	cmp	r3, #0
10001ade:	d100      	bne.n	10001ae2 <main+0x15a6>
10001ae0:	e0e9      	b.n	10001cb6 <main+0x177a>
10001ae2:	232f      	movs	r3, #47	; 0x2f
10001ae4:	446b      	add	r3, sp
10001ae6:	781b      	ldrb	r3, [r3, #0]
10001ae8:	2b00      	cmp	r3, #0
10001aea:	d018      	beq.n	10001b1e <main+0x15e2>
10001aec:	232d      	movs	r3, #45	; 0x2d
10001aee:	446b      	add	r3, sp
10001af0:	781b      	ldrb	r3, [r3, #0]
10001af2:	2b00      	cmp	r3, #0
10001af4:	d013      	beq.n	10001b1e <main+0x15e2>
10001af6:	232e      	movs	r3, #46	; 0x2e
10001af8:	446b      	add	r3, sp
10001afa:	781b      	ldrb	r3, [r3, #0]
10001afc:	2b00      	cmp	r3, #0
10001afe:	d00e      	beq.n	10001b1e <main+0x15e2>
10001b00:	2d52      	cmp	r5, #82	; 0x52
10001b02:	d100      	bne.n	10001b06 <main+0x15ca>
10001b04:	e0ee      	b.n	10001ce4 <main+0x17a8>
10001b06:	2d4c      	cmp	r5, #76	; 0x4c
10001b08:	d100      	bne.n	10001b0c <main+0x15d0>
10001b0a:	e0f6      	b.n	10001cfa <main+0x17be>
10001b0c:	2d46      	cmp	r5, #70	; 0x46
10001b0e:	d100      	bne.n	10001b12 <main+0x15d6>
10001b10:	e0fe      	b.n	10001d10 <main+0x17d4>
10001b12:	002b      	movs	r3, r5
10001b14:	9a09      	ldr	r2, [sp, #36]	; 0x24
10001b16:	990a      	ldr	r1, [sp, #40]	; 0x28
10001b18:	4892      	ldr	r0, [pc, #584]	; (10001d64 <main+0x1828>)
10001b1a:	f006 fa81 	bl	10008020 <__wrap_printf>
10001b1e:	9909      	ldr	r1, [sp, #36]	; 0x24
10001b20:	0020      	movs	r0, r4
10001b22:	f001 ffe7 	bl	10003af4 <updateGridVisited>
10001b26:	0020      	movs	r0, r4
10001b28:	f001 ff3c 	bl	100039a4 <checkAllNodesHasAtLeast1Edge>
10001b2c:	2800      	cmp	r0, #0
10001b2e:	d000      	beq.n	10001b32 <main+0x15f6>
10001b30:	e0f9      	b.n	10001d26 <main+0x17ea>
10001b32:	2345      	movs	r3, #69	; 0x45
10001b34:	9304      	str	r3, [sp, #16]
10001b36:	3309      	adds	r3, #9
10001b38:	9303      	str	r3, [sp, #12]
10001b3a:	262d      	movs	r6, #45	; 0x2d
10001b3c:	446e      	add	r6, sp
10001b3e:	9602      	str	r6, [sp, #8]
10001b40:	272e      	movs	r7, #46	; 0x2e
10001b42:	446f      	add	r7, sp
10001b44:	9701      	str	r7, [sp, #4]
10001b46:	252f      	movs	r5, #47	; 0x2f
10001b48:	446d      	add	r5, sp
10001b4a:	9500      	str	r5, [sp, #0]
10001b4c:	464b      	mov	r3, r9
10001b4e:	9a0a      	ldr	r2, [sp, #40]	; 0x28
10001b50:	4641      	mov	r1, r8
10001b52:	0020      	movs	r0, r4
10001b54:	f7fe fbda 	bl	1000030c <ifReachStartingPoint>
10001b58:	2301      	movs	r3, #1
10001b5a:	702b      	strb	r3, [r5, #0]
10001b5c:	703b      	strb	r3, [r7, #0]
10001b5e:	2700      	movs	r7, #0
10001b60:	7037      	strb	r7, [r6, #0]
10001b62:	9b0a      	ldr	r3, [sp, #40]	; 0x28
10001b64:	9309      	str	r3, [sp, #36]	; 0x24
10001b66:	a908      	add	r1, sp, #32
10001b68:	4881      	ldr	r0, [pc, #516]	; (10001d70 <main+0x1834>)
10001b6a:	f009 fc4b 	bl	1000b404 <strcpy>
10001b6e:	9701      	str	r7, [sp, #4]
10001b70:	9700      	str	r7, [sp, #0]
10001b72:	ab09      	add	r3, sp, #36	; 0x24
10001b74:	2245      	movs	r2, #69	; 0x45
10001b76:	a90a      	add	r1, sp, #40	; 0x28
10001b78:	0020      	movs	r0, r4
10001b7a:	f7fe fc27 	bl	100003cc <turnRight>
10001b7e:	2352      	movs	r3, #82	; 0x52
10001b80:	9a09      	ldr	r2, [sp, #36]	; 0x24
10001b82:	990a      	ldr	r1, [sp, #40]	; 0x28
10001b84:	4879      	ldr	r0, [pc, #484]	; (10001d6c <main+0x1830>)
10001b86:	f006 fa4b 	bl	10008020 <__wrap_printf>
10001b8a:	782b      	ldrb	r3, [r5, #0]
10001b8c:	2b00      	cmp	r3, #0
10001b8e:	d100      	bne.n	10001b92 <main+0x1656>
10001b90:	e0f4      	b.n	10001d7c <main+0x1840>
10001b92:	7833      	ldrb	r3, [r6, #0]
10001b94:	42bb      	cmp	r3, r7
10001b96:	d100      	bne.n	10001b9a <main+0x165e>
10001b98:	e189      	b.n	10001eae <main+0x1972>
10001b9a:	232e      	movs	r3, #46	; 0x2e
10001b9c:	446b      	add	r3, sp
10001b9e:	781b      	ldrb	r3, [r3, #0]
10001ba0:	42bb      	cmp	r3, r7
10001ba2:	d100      	bne.n	10001ba6 <main+0x166a>
10001ba4:	e0c7      	b.n	10001d36 <main+0x17fa>
10001ba6:	2352      	movs	r3, #82	; 0x52
10001ba8:	469a      	mov	sl, r3
10001baa:	e0e9      	b.n	10001d80 <main+0x1844>
10001bac:	9b0a      	ldr	r3, [sp, #40]	; 0x28
10001bae:	9309      	str	r3, [sp, #36]	; 0x24
10001bb0:	a908      	add	r1, sp, #32
10001bb2:	486d      	ldr	r0, [pc, #436]	; (10001d68 <main+0x182c>)
10001bb4:	f009 fc26 	bl	1000b404 <strcpy>
10001bb8:	2300      	movs	r3, #0
10001bba:	9301      	str	r3, [sp, #4]
10001bbc:	9300      	str	r3, [sp, #0]
10001bbe:	ab09      	add	r3, sp, #36	; 0x24
10001bc0:	2245      	movs	r2, #69	; 0x45
10001bc2:	a90a      	add	r1, sp, #40	; 0x28
10001bc4:	0020      	movs	r0, r4
10001bc6:	f7fe fc45 	bl	10000454 <turnLeft>
10001bca:	234c      	movs	r3, #76	; 0x4c
10001bcc:	9a09      	ldr	r2, [sp, #36]	; 0x24
10001bce:	990a      	ldr	r1, [sp, #40]	; 0x28
10001bd0:	4866      	ldr	r0, [pc, #408]	; (10001d6c <main+0x1830>)
10001bd2:	f006 fa25 	bl	10008020 <__wrap_printf>
10001bd6:	254c      	movs	r5, #76	; 0x4c
10001bd8:	e6e1      	b.n	1000199e <main+0x1462>
10001bda:	ab09      	add	r3, sp, #36	; 0x24
10001bdc:	2245      	movs	r2, #69	; 0x45
10001bde:	a90a      	add	r1, sp, #40	; 0x28
10001be0:	0020      	movs	r0, r4
10001be2:	f7fe fc7b 	bl	100004dc <reverseRight>
10001be6:	232d      	movs	r3, #45	; 0x2d
10001be8:	446b      	add	r3, sp
10001bea:	2201      	movs	r2, #1
10001bec:	701a      	strb	r2, [r3, #0]
10001bee:	e6e8      	b.n	100019c2 <main+0x1486>
10001bf0:	ab09      	add	r3, sp, #36	; 0x24
10001bf2:	2245      	movs	r2, #69	; 0x45
10001bf4:	a90a      	add	r1, sp, #40	; 0x28
10001bf6:	0020      	movs	r0, r4
10001bf8:	f7fe fc7e 	bl	100004f8 <reverseLeft>
10001bfc:	232e      	movs	r3, #46	; 0x2e
10001bfe:	446b      	add	r3, sp
10001c00:	2201      	movs	r2, #1
10001c02:	701a      	strb	r2, [r3, #0]
10001c04:	e6e0      	b.n	100019c8 <main+0x148c>
10001c06:	ab09      	add	r3, sp, #36	; 0x24
10001c08:	2245      	movs	r2, #69	; 0x45
10001c0a:	a90a      	add	r1, sp, #40	; 0x28
10001c0c:	0020      	movs	r0, r4
10001c0e:	f7fe fc81 	bl	10000514 <reverseBack>
10001c12:	232f      	movs	r3, #47	; 0x2f
10001c14:	446b      	add	r3, sp
10001c16:	2201      	movs	r2, #1
10001c18:	701a      	strb	r2, [r3, #0]
10001c1a:	e6d8      	b.n	100019ce <main+0x1492>
10001c1c:	990a      	ldr	r1, [sp, #40]	; 0x28
10001c1e:	0020      	movs	r0, r4
10001c20:	f001 ff68 	bl	10003af4 <updateGridVisited>
10001c24:	4853      	ldr	r0, [pc, #332]	; (10001d74 <main+0x1838>)
10001c26:	f006 f9c9 	bl	10007fbc <__wrap_puts>
10001c2a:	e6e0      	b.n	100019ee <main+0x14b2>
10001c2c:	ab09      	add	r3, sp, #36	; 0x24
10001c2e:	2245      	movs	r2, #69	; 0x45
10001c30:	a90a      	add	r1, sp, #40	; 0x28
10001c32:	0020      	movs	r0, r4
10001c34:	f7fe fc60 	bl	100004f8 <reverseLeft>
10001c38:	4652      	mov	r2, sl
10001c3a:	703a      	strb	r2, [r7, #0]
10001c3c:	234c      	movs	r3, #76	; 0x4c
10001c3e:	9a09      	ldr	r2, [sp, #36]	; 0x24
10001c40:	990a      	ldr	r1, [sp, #40]	; 0x28
10001c42:	4848      	ldr	r0, [pc, #288]	; (10001d64 <main+0x1828>)
10001c44:	f006 f9ec 	bl	10008020 <__wrap_printf>
10001c48:	e70c      	b.n	10001a64 <main+0x1528>
10001c4a:	990a      	ldr	r1, [sp, #40]	; 0x28
10001c4c:	0020      	movs	r0, r4
10001c4e:	f001 ff51 	bl	10003af4 <updateGridVisited>
10001c52:	4848      	ldr	r0, [pc, #288]	; (10001d74 <main+0x1838>)
10001c54:	f006 f9b2 	bl	10007fbc <__wrap_puts>
10001c58:	e70e      	b.n	10001a78 <main+0x153c>
10001c5a:	9b0a      	ldr	r3, [sp, #40]	; 0x28
10001c5c:	9309      	str	r3, [sp, #36]	; 0x24
10001c5e:	a908      	add	r1, sp, #32
10001c60:	4845      	ldr	r0, [pc, #276]	; (10001d78 <main+0x183c>)
10001c62:	f009 fbcf 	bl	1000b404 <strcpy>
10001c66:	2300      	movs	r3, #0
10001c68:	9301      	str	r3, [sp, #4]
10001c6a:	9300      	str	r3, [sp, #0]
10001c6c:	ab09      	add	r3, sp, #36	; 0x24
10001c6e:	224e      	movs	r2, #78	; 0x4e
10001c70:	a90a      	add	r1, sp, #40	; 0x28
10001c72:	0020      	movs	r0, r4
10001c74:	f7fe fb6c 	bl	10000350 <moveForward>
10001c78:	2346      	movs	r3, #70	; 0x46
10001c7a:	9a09      	ldr	r2, [sp, #36]	; 0x24
10001c7c:	990a      	ldr	r1, [sp, #40]	; 0x28
10001c7e:	483b      	ldr	r0, [pc, #236]	; (10001d6c <main+0x1830>)
10001c80:	f006 f9ce 	bl	10008020 <__wrap_printf>
10001c84:	2546      	movs	r5, #70	; 0x46
10001c86:	e711      	b.n	10001aac <main+0x1570>
10001c88:	9b0a      	ldr	r3, [sp, #40]	; 0x28
10001c8a:	9309      	str	r3, [sp, #36]	; 0x24
10001c8c:	a908      	add	r1, sp, #32
10001c8e:	4838      	ldr	r0, [pc, #224]	; (10001d70 <main+0x1834>)
10001c90:	f009 fbb8 	bl	1000b404 <strcpy>
10001c94:	2300      	movs	r3, #0
10001c96:	9301      	str	r3, [sp, #4]
10001c98:	9300      	str	r3, [sp, #0]
10001c9a:	ab09      	add	r3, sp, #36	; 0x24
10001c9c:	224e      	movs	r2, #78	; 0x4e
10001c9e:	a90a      	add	r1, sp, #40	; 0x28
10001ca0:	0020      	movs	r0, r4
10001ca2:	f7fe fb93 	bl	100003cc <turnRight>
10001ca6:	2352      	movs	r3, #82	; 0x52
10001ca8:	9a09      	ldr	r2, [sp, #36]	; 0x24
10001caa:	990a      	ldr	r1, [sp, #40]	; 0x28
10001cac:	482f      	ldr	r0, [pc, #188]	; (10001d6c <main+0x1830>)
10001cae:	f006 f9b7 	bl	10008020 <__wrap_printf>
10001cb2:	2552      	movs	r5, #82	; 0x52
10001cb4:	e705      	b.n	10001ac2 <main+0x1586>
10001cb6:	9b0a      	ldr	r3, [sp, #40]	; 0x28
10001cb8:	9309      	str	r3, [sp, #36]	; 0x24
10001cba:	a908      	add	r1, sp, #32
10001cbc:	482a      	ldr	r0, [pc, #168]	; (10001d68 <main+0x182c>)
10001cbe:	f009 fba1 	bl	1000b404 <strcpy>
10001cc2:	2300      	movs	r3, #0
10001cc4:	9301      	str	r3, [sp, #4]
10001cc6:	9300      	str	r3, [sp, #0]
10001cc8:	ab09      	add	r3, sp, #36	; 0x24
10001cca:	224e      	movs	r2, #78	; 0x4e
10001ccc:	a90a      	add	r1, sp, #40	; 0x28
10001cce:	0020      	movs	r0, r4
10001cd0:	f7fe fbc0 	bl	10000454 <turnLeft>
10001cd4:	234c      	movs	r3, #76	; 0x4c
10001cd6:	9a09      	ldr	r2, [sp, #36]	; 0x24
10001cd8:	990a      	ldr	r1, [sp, #40]	; 0x28
10001cda:	4824      	ldr	r0, [pc, #144]	; (10001d6c <main+0x1830>)
10001cdc:	f006 f9a0 	bl	10008020 <__wrap_printf>
10001ce0:	254c      	movs	r5, #76	; 0x4c
10001ce2:	e6fe      	b.n	10001ae2 <main+0x15a6>
10001ce4:	ab09      	add	r3, sp, #36	; 0x24
10001ce6:	224e      	movs	r2, #78	; 0x4e
10001ce8:	a90a      	add	r1, sp, #40	; 0x28
10001cea:	0020      	movs	r0, r4
10001cec:	f7fe fbf6 	bl	100004dc <reverseRight>
10001cf0:	232d      	movs	r3, #45	; 0x2d
10001cf2:	446b      	add	r3, sp
10001cf4:	2201      	movs	r2, #1
10001cf6:	701a      	strb	r2, [r3, #0]
10001cf8:	e705      	b.n	10001b06 <main+0x15ca>
10001cfa:	ab09      	add	r3, sp, #36	; 0x24
10001cfc:	224e      	movs	r2, #78	; 0x4e
10001cfe:	a90a      	add	r1, sp, #40	; 0x28
10001d00:	0020      	movs	r0, r4
10001d02:	f7fe fbf9 	bl	100004f8 <reverseLeft>
10001d06:	232e      	movs	r3, #46	; 0x2e
10001d08:	446b      	add	r3, sp
10001d0a:	2201      	movs	r2, #1
10001d0c:	701a      	strb	r2, [r3, #0]
10001d0e:	e6fd      	b.n	10001b0c <main+0x15d0>
10001d10:	ab09      	add	r3, sp, #36	; 0x24
10001d12:	224e      	movs	r2, #78	; 0x4e
10001d14:	a90a      	add	r1, sp, #40	; 0x28
10001d16:	0020      	movs	r0, r4
10001d18:	f7fe fbfc 	bl	10000514 <reverseBack>
10001d1c:	232f      	movs	r3, #47	; 0x2f
10001d1e:	446b      	add	r3, sp
10001d20:	2201      	movs	r2, #1
10001d22:	701a      	strb	r2, [r3, #0]
10001d24:	e6f5      	b.n	10001b12 <main+0x15d6>
10001d26:	990a      	ldr	r1, [sp, #40]	; 0x28
10001d28:	0020      	movs	r0, r4
10001d2a:	f001 fee3 	bl	10003af4 <updateGridVisited>
10001d2e:	4811      	ldr	r0, [pc, #68]	; (10001d74 <main+0x1838>)
10001d30:	f006 f944 	bl	10007fbc <__wrap_puts>
10001d34:	e6fd      	b.n	10001b32 <main+0x15f6>
10001d36:	9b0a      	ldr	r3, [sp, #40]	; 0x28
10001d38:	9309      	str	r3, [sp, #36]	; 0x24
10001d3a:	a908      	add	r1, sp, #32
10001d3c:	480a      	ldr	r0, [pc, #40]	; (10001d68 <main+0x182c>)
10001d3e:	f009 fb61 	bl	1000b404 <strcpy>
10001d42:	9701      	str	r7, [sp, #4]
10001d44:	9700      	str	r7, [sp, #0]
10001d46:	ab09      	add	r3, sp, #36	; 0x24
10001d48:	2245      	movs	r2, #69	; 0x45
10001d4a:	a90a      	add	r1, sp, #40	; 0x28
10001d4c:	0020      	movs	r0, r4
10001d4e:	f7fe fb81 	bl	10000454 <turnLeft>
10001d52:	234c      	movs	r3, #76	; 0x4c
10001d54:	9a09      	ldr	r2, [sp, #36]	; 0x24
10001d56:	990a      	ldr	r1, [sp, #40]	; 0x28
10001d58:	4804      	ldr	r0, [pc, #16]	; (10001d6c <main+0x1830>)
10001d5a:	f006 f961 	bl	10008020 <__wrap_printf>
10001d5e:	234c      	movs	r3, #76	; 0x4c
10001d60:	469a      	mov	sl, r3
10001d62:	e00d      	b.n	10001d80 <main+0x1844>
10001d64:	1000c2bc 	.word	0x1000c2bc
10001d68:	1000c2b8 	.word	0x1000c2b8
10001d6c:	1000c274 	.word	0x1000c274
10001d70:	1000c2b4 	.word	0x1000c2b4
10001d74:	1000c304 	.word	0x1000c304
10001d78:	1000c270 	.word	0x1000c270
10001d7c:	2352      	movs	r3, #82	; 0x52
10001d7e:	469a      	mov	sl, r3
10001d80:	232f      	movs	r3, #47	; 0x2f
10001d82:	446b      	add	r3, sp
10001d84:	781b      	ldrb	r3, [r3, #0]
10001d86:	2b00      	cmp	r3, #0
10001d88:	d01b      	beq.n	10001dc2 <main+0x1886>
10001d8a:	232d      	movs	r3, #45	; 0x2d
10001d8c:	446b      	add	r3, sp
10001d8e:	781b      	ldrb	r3, [r3, #0]
10001d90:	2b00      	cmp	r3, #0
10001d92:	d016      	beq.n	10001dc2 <main+0x1886>
10001d94:	232e      	movs	r3, #46	; 0x2e
10001d96:	446b      	add	r3, sp
10001d98:	781b      	ldrb	r3, [r3, #0]
10001d9a:	2b00      	cmp	r3, #0
10001d9c:	d011      	beq.n	10001dc2 <main+0x1886>
10001d9e:	4653      	mov	r3, sl
10001da0:	2b52      	cmp	r3, #82	; 0x52
10001da2:	d100      	bne.n	10001da6 <main+0x186a>
10001da4:	e086      	b.n	10001eb4 <main+0x1978>
10001da6:	4653      	mov	r3, sl
10001da8:	2b4c      	cmp	r3, #76	; 0x4c
10001daa:	d100      	bne.n	10001dae <main+0x1872>
10001dac:	e08d      	b.n	10001eca <main+0x198e>
10001dae:	4653      	mov	r3, sl
10001db0:	2b46      	cmp	r3, #70	; 0x46
10001db2:	d100      	bne.n	10001db6 <main+0x187a>
10001db4:	e094      	b.n	10001ee0 <main+0x19a4>
10001db6:	4653      	mov	r3, sl
10001db8:	9a09      	ldr	r2, [sp, #36]	; 0x24
10001dba:	990a      	ldr	r1, [sp, #40]	; 0x28
10001dbc:	48be      	ldr	r0, [pc, #760]	; (100020b8 <main+0x1b7c>)
10001dbe:	f006 f92f 	bl	10008020 <__wrap_printf>
10001dc2:	9909      	ldr	r1, [sp, #36]	; 0x24
10001dc4:	0020      	movs	r0, r4
10001dc6:	f001 fe95 	bl	10003af4 <updateGridVisited>
10001dca:	0020      	movs	r0, r4
10001dcc:	f001 fdea 	bl	100039a4 <checkAllNodesHasAtLeast1Edge>
10001dd0:	2800      	cmp	r0, #0
10001dd2:	d000      	beq.n	10001dd6 <main+0x189a>
10001dd4:	e08f      	b.n	10001ef6 <main+0x19ba>
10001dd6:	2353      	movs	r3, #83	; 0x53
10001dd8:	9304      	str	r3, [sp, #16]
10001dda:	3b05      	subs	r3, #5
10001ddc:	9303      	str	r3, [sp, #12]
10001dde:	252d      	movs	r5, #45	; 0x2d
10001de0:	446d      	add	r5, sp
10001de2:	9502      	str	r5, [sp, #8]
10001de4:	262e      	movs	r6, #46	; 0x2e
10001de6:	446e      	add	r6, sp
10001de8:	9601      	str	r6, [sp, #4]
10001dea:	272f      	movs	r7, #47	; 0x2f
10001dec:	446f      	add	r7, sp
10001dee:	9700      	str	r7, [sp, #0]
10001df0:	464b      	mov	r3, r9
10001df2:	9a0a      	ldr	r2, [sp, #40]	; 0x28
10001df4:	4641      	mov	r1, r8
10001df6:	0020      	movs	r0, r4
10001df8:	f7fe fa88 	bl	1000030c <ifReachStartingPoint>
10001dfc:	2301      	movs	r3, #1
10001dfe:	703b      	strb	r3, [r7, #0]
10001e00:	7033      	strb	r3, [r6, #0]
10001e02:	702b      	strb	r3, [r5, #0]
10001e04:	4653      	mov	r3, sl
10001e06:	2b52      	cmp	r3, #82	; 0x52
10001e08:	d07d      	beq.n	10001f06 <main+0x19ca>
10001e0a:	4653      	mov	r3, sl
10001e0c:	2b4c      	cmp	r3, #76	; 0x4c
10001e0e:	d100      	bne.n	10001e12 <main+0x18d6>
10001e10:	e082      	b.n	10001f18 <main+0x19dc>
10001e12:	4653      	mov	r3, sl
10001e14:	2b46      	cmp	r3, #70	; 0x46
10001e16:	d100      	bne.n	10001e1a <main+0x18de>
10001e18:	e089      	b.n	10001f2e <main+0x19f2>
10001e1a:	4653      	mov	r3, sl
10001e1c:	9a09      	ldr	r2, [sp, #36]	; 0x24
10001e1e:	990a      	ldr	r1, [sp, #40]	; 0x28
10001e20:	48a5      	ldr	r0, [pc, #660]	; (100020b8 <main+0x1b7c>)
10001e22:	f006 f8fd 	bl	10008020 <__wrap_printf>
10001e26:	9909      	ldr	r1, [sp, #36]	; 0x24
10001e28:	0020      	movs	r0, r4
10001e2a:	f001 fe63 	bl	10003af4 <updateGridVisited>
10001e2e:	0020      	movs	r0, r4
10001e30:	f001 fdb8 	bl	100039a4 <checkAllNodesHasAtLeast1Edge>
10001e34:	2800      	cmp	r0, #0
10001e36:	d000      	beq.n	10001e3a <main+0x18fe>
10001e38:	e084      	b.n	10001f44 <main+0x1a08>
10001e3a:	2353      	movs	r3, #83	; 0x53
10001e3c:	9304      	str	r3, [sp, #16]
10001e3e:	3b05      	subs	r3, #5
10001e40:	9303      	str	r3, [sp, #12]
10001e42:	262d      	movs	r6, #45	; 0x2d
10001e44:	446e      	add	r6, sp
10001e46:	9602      	str	r6, [sp, #8]
10001e48:	272e      	movs	r7, #46	; 0x2e
10001e4a:	446f      	add	r7, sp
10001e4c:	9701      	str	r7, [sp, #4]
10001e4e:	252f      	movs	r5, #47	; 0x2f
10001e50:	446d      	add	r5, sp
10001e52:	9500      	str	r5, [sp, #0]
10001e54:	464b      	mov	r3, r9
10001e56:	9a0a      	ldr	r2, [sp, #40]	; 0x28
10001e58:	4641      	mov	r1, r8
10001e5a:	0020      	movs	r0, r4
10001e5c:	f7fe fa56 	bl	1000030c <ifReachStartingPoint>
10001e60:	2301      	movs	r3, #1
10001e62:	702b      	strb	r3, [r5, #0]
10001e64:	703b      	strb	r3, [r7, #0]
10001e66:	2700      	movs	r7, #0
10001e68:	7037      	strb	r7, [r6, #0]
10001e6a:	9b0a      	ldr	r3, [sp, #40]	; 0x28
10001e6c:	9309      	str	r3, [sp, #36]	; 0x24
10001e6e:	a908      	add	r1, sp, #32
10001e70:	4892      	ldr	r0, [pc, #584]	; (100020bc <main+0x1b80>)
10001e72:	f009 fac7 	bl	1000b404 <strcpy>
10001e76:	9701      	str	r7, [sp, #4]
10001e78:	9700      	str	r7, [sp, #0]
10001e7a:	ab09      	add	r3, sp, #36	; 0x24
10001e7c:	2253      	movs	r2, #83	; 0x53
10001e7e:	a90a      	add	r1, sp, #40	; 0x28
10001e80:	0020      	movs	r0, r4
10001e82:	f7fe faa3 	bl	100003cc <turnRight>
10001e86:	2352      	movs	r3, #82	; 0x52
10001e88:	9a09      	ldr	r2, [sp, #36]	; 0x24
10001e8a:	990a      	ldr	r1, [sp, #40]	; 0x28
10001e8c:	488c      	ldr	r0, [pc, #560]	; (100020c0 <main+0x1b84>)
10001e8e:	f006 f8c7 	bl	10008020 <__wrap_printf>
10001e92:	782b      	ldrb	r3, [r5, #0]
10001e94:	2b00      	cmp	r3, #0
10001e96:	d073      	beq.n	10001f80 <main+0x1a44>
10001e98:	7833      	ldrb	r3, [r6, #0]
10001e9a:	42bb      	cmp	r3, r7
10001e9c:	d100      	bne.n	10001ea0 <main+0x1964>
10001e9e:	e0c9      	b.n	10002034 <main+0x1af8>
10001ea0:	232e      	movs	r3, #46	; 0x2e
10001ea2:	446b      	add	r3, sp
10001ea4:	781b      	ldrb	r3, [r3, #0]
10001ea6:	42bb      	cmp	r3, r7
10001ea8:	d054      	beq.n	10001f54 <main+0x1a18>
10001eaa:	2552      	movs	r5, #82	; 0x52
10001eac:	e069      	b.n	10001f82 <main+0x1a46>
10001eae:	2352      	movs	r3, #82	; 0x52
10001eb0:	469a      	mov	sl, r3
10001eb2:	e765      	b.n	10001d80 <main+0x1844>
10001eb4:	ab09      	add	r3, sp, #36	; 0x24
10001eb6:	2245      	movs	r2, #69	; 0x45
10001eb8:	a90a      	add	r1, sp, #40	; 0x28
10001eba:	0020      	movs	r0, r4
10001ebc:	f7fe fb0e 	bl	100004dc <reverseRight>
10001ec0:	232d      	movs	r3, #45	; 0x2d
10001ec2:	446b      	add	r3, sp
10001ec4:	2201      	movs	r2, #1
10001ec6:	701a      	strb	r2, [r3, #0]
10001ec8:	e76d      	b.n	10001da6 <main+0x186a>
10001eca:	ab09      	add	r3, sp, #36	; 0x24
10001ecc:	2245      	movs	r2, #69	; 0x45
10001ece:	a90a      	add	r1, sp, #40	; 0x28
10001ed0:	0020      	movs	r0, r4
10001ed2:	f7fe fb11 	bl	100004f8 <reverseLeft>
10001ed6:	232e      	movs	r3, #46	; 0x2e
10001ed8:	446b      	add	r3, sp
10001eda:	2201      	movs	r2, #1
10001edc:	701a      	strb	r2, [r3, #0]
10001ede:	e766      	b.n	10001dae <main+0x1872>
10001ee0:	ab09      	add	r3, sp, #36	; 0x24
10001ee2:	2245      	movs	r2, #69	; 0x45
10001ee4:	a90a      	add	r1, sp, #40	; 0x28
10001ee6:	0020      	movs	r0, r4
10001ee8:	f7fe fb14 	bl	10000514 <reverseBack>
10001eec:	232f      	movs	r3, #47	; 0x2f
10001eee:	446b      	add	r3, sp
10001ef0:	2201      	movs	r2, #1
10001ef2:	701a      	strb	r2, [r3, #0]
10001ef4:	e75f      	b.n	10001db6 <main+0x187a>
10001ef6:	990a      	ldr	r1, [sp, #40]	; 0x28
10001ef8:	0020      	movs	r0, r4
10001efa:	f001 fdfb 	bl	10003af4 <updateGridVisited>
10001efe:	4871      	ldr	r0, [pc, #452]	; (100020c4 <main+0x1b88>)
10001f00:	f006 f85c 	bl	10007fbc <__wrap_puts>
10001f04:	e767      	b.n	10001dd6 <main+0x189a>
10001f06:	ab09      	add	r3, sp, #36	; 0x24
10001f08:	2253      	movs	r2, #83	; 0x53
10001f0a:	a90a      	add	r1, sp, #40	; 0x28
10001f0c:	0020      	movs	r0, r4
10001f0e:	f7fe fae5 	bl	100004dc <reverseRight>
10001f12:	2201      	movs	r2, #1
10001f14:	702a      	strb	r2, [r5, #0]
10001f16:	e778      	b.n	10001e0a <main+0x18ce>
10001f18:	ab09      	add	r3, sp, #36	; 0x24
10001f1a:	2253      	movs	r2, #83	; 0x53
10001f1c:	a90a      	add	r1, sp, #40	; 0x28
10001f1e:	0020      	movs	r0, r4
10001f20:	f7fe faea 	bl	100004f8 <reverseLeft>
10001f24:	232e      	movs	r3, #46	; 0x2e
10001f26:	446b      	add	r3, sp
10001f28:	2201      	movs	r2, #1
10001f2a:	701a      	strb	r2, [r3, #0]
10001f2c:	e771      	b.n	10001e12 <main+0x18d6>
10001f2e:	ab09      	add	r3, sp, #36	; 0x24
10001f30:	2253      	movs	r2, #83	; 0x53
10001f32:	a90a      	add	r1, sp, #40	; 0x28
10001f34:	0020      	movs	r0, r4
10001f36:	f7fe faed 	bl	10000514 <reverseBack>
10001f3a:	232f      	movs	r3, #47	; 0x2f
10001f3c:	446b      	add	r3, sp
10001f3e:	2201      	movs	r2, #1
10001f40:	701a      	strb	r2, [r3, #0]
10001f42:	e76a      	b.n	10001e1a <main+0x18de>
10001f44:	990a      	ldr	r1, [sp, #40]	; 0x28
10001f46:	0020      	movs	r0, r4
10001f48:	f001 fdd4 	bl	10003af4 <updateGridVisited>
10001f4c:	485d      	ldr	r0, [pc, #372]	; (100020c4 <main+0x1b88>)
10001f4e:	f006 f835 	bl	10007fbc <__wrap_puts>
10001f52:	e772      	b.n	10001e3a <main+0x18fe>
10001f54:	9b0a      	ldr	r3, [sp, #40]	; 0x28
10001f56:	9309      	str	r3, [sp, #36]	; 0x24
10001f58:	a908      	add	r1, sp, #32
10001f5a:	485b      	ldr	r0, [pc, #364]	; (100020c8 <main+0x1b8c>)
10001f5c:	f009 fa52 	bl	1000b404 <strcpy>
10001f60:	9701      	str	r7, [sp, #4]
10001f62:	9700      	str	r7, [sp, #0]
10001f64:	ab09      	add	r3, sp, #36	; 0x24
10001f66:	2253      	movs	r2, #83	; 0x53
10001f68:	a90a      	add	r1, sp, #40	; 0x28
10001f6a:	0020      	movs	r0, r4
10001f6c:	f7fe fa72 	bl	10000454 <turnLeft>
10001f70:	234c      	movs	r3, #76	; 0x4c
10001f72:	9a09      	ldr	r2, [sp, #36]	; 0x24
10001f74:	990a      	ldr	r1, [sp, #40]	; 0x28
10001f76:	4852      	ldr	r0, [pc, #328]	; (100020c0 <main+0x1b84>)
10001f78:	f006 f852 	bl	10008020 <__wrap_printf>
10001f7c:	254c      	movs	r5, #76	; 0x4c
10001f7e:	e000      	b.n	10001f82 <main+0x1a46>
10001f80:	2552      	movs	r5, #82	; 0x52
10001f82:	232f      	movs	r3, #47	; 0x2f
10001f84:	446b      	add	r3, sp
10001f86:	781b      	ldrb	r3, [r3, #0]
10001f88:	2b00      	cmp	r3, #0
10001f8a:	d015      	beq.n	10001fb8 <main+0x1a7c>
10001f8c:	232d      	movs	r3, #45	; 0x2d
10001f8e:	446b      	add	r3, sp
10001f90:	781b      	ldrb	r3, [r3, #0]
10001f92:	2b00      	cmp	r3, #0
10001f94:	d010      	beq.n	10001fb8 <main+0x1a7c>
10001f96:	232e      	movs	r3, #46	; 0x2e
10001f98:	446b      	add	r3, sp
10001f9a:	781b      	ldrb	r3, [r3, #0]
10001f9c:	2b00      	cmp	r3, #0
10001f9e:	d00b      	beq.n	10001fb8 <main+0x1a7c>
10001fa0:	2d52      	cmp	r5, #82	; 0x52
10001fa2:	d049      	beq.n	10002038 <main+0x1afc>
10001fa4:	2d4c      	cmp	r5, #76	; 0x4c
10001fa6:	d052      	beq.n	1000204e <main+0x1b12>
10001fa8:	2d46      	cmp	r5, #70	; 0x46
10001faa:	d05b      	beq.n	10002064 <main+0x1b28>
10001fac:	002b      	movs	r3, r5
10001fae:	9a09      	ldr	r2, [sp, #36]	; 0x24
10001fb0:	990a      	ldr	r1, [sp, #40]	; 0x28
10001fb2:	4841      	ldr	r0, [pc, #260]	; (100020b8 <main+0x1b7c>)
10001fb4:	f006 f834 	bl	10008020 <__wrap_printf>
10001fb8:	9909      	ldr	r1, [sp, #36]	; 0x24
10001fba:	0020      	movs	r0, r4
10001fbc:	f001 fd9a 	bl	10003af4 <updateGridVisited>
10001fc0:	0020      	movs	r0, r4
10001fc2:	f001 fcef 	bl	100039a4 <checkAllNodesHasAtLeast1Edge>
10001fc6:	2800      	cmp	r0, #0
10001fc8:	d157      	bne.n	1000207a <main+0x1b3e>
10001fca:	2357      	movs	r3, #87	; 0x57
10001fcc:	9304      	str	r3, [sp, #16]
10001fce:	3b09      	subs	r3, #9
10001fd0:	9303      	str	r3, [sp, #12]
10001fd2:	262d      	movs	r6, #45	; 0x2d
10001fd4:	446e      	add	r6, sp
10001fd6:	9602      	str	r6, [sp, #8]
10001fd8:	272e      	movs	r7, #46	; 0x2e
10001fda:	446f      	add	r7, sp
10001fdc:	9701      	str	r7, [sp, #4]
10001fde:	252f      	movs	r5, #47	; 0x2f
10001fe0:	446d      	add	r5, sp
10001fe2:	9500      	str	r5, [sp, #0]
10001fe4:	464b      	mov	r3, r9
10001fe6:	9a0a      	ldr	r2, [sp, #40]	; 0x28
10001fe8:	4641      	mov	r1, r8
10001fea:	0020      	movs	r0, r4
10001fec:	f7fe f98e 	bl	1000030c <ifReachStartingPoint>
10001ff0:	2300      	movs	r3, #0
10001ff2:	4698      	mov	r8, r3
10001ff4:	702b      	strb	r3, [r5, #0]
10001ff6:	703b      	strb	r3, [r7, #0]
10001ff8:	7033      	strb	r3, [r6, #0]
10001ffa:	9b0a      	ldr	r3, [sp, #40]	; 0x28
10001ffc:	9309      	str	r3, [sp, #36]	; 0x24
10001ffe:	a908      	add	r1, sp, #32
10002000:	4832      	ldr	r0, [pc, #200]	; (100020cc <main+0x1b90>)
10002002:	f009 f9ff 	bl	1000b404 <strcpy>
10002006:	4643      	mov	r3, r8
10002008:	9301      	str	r3, [sp, #4]
1000200a:	9300      	str	r3, [sp, #0]
1000200c:	ab09      	add	r3, sp, #36	; 0x24
1000200e:	2257      	movs	r2, #87	; 0x57
10002010:	a90a      	add	r1, sp, #40	; 0x28
10002012:	0020      	movs	r0, r4
10002014:	f7fe f99c 	bl	10000350 <moveForward>
10002018:	2346      	movs	r3, #70	; 0x46
1000201a:	9a09      	ldr	r2, [sp, #36]	; 0x24
1000201c:	990a      	ldr	r1, [sp, #40]	; 0x28
1000201e:	4828      	ldr	r0, [pc, #160]	; (100020c0 <main+0x1b84>)
10002020:	f005 fffe 	bl	10008020 <__wrap_printf>
10002024:	782b      	ldrb	r3, [r5, #0]
10002026:	2b00      	cmp	r3, #0
10002028:	d052      	beq.n	100020d0 <main+0x1b94>
1000202a:	7833      	ldrb	r3, [r6, #0]
1000202c:	4543      	cmp	r3, r8
1000202e:	d02c      	beq.n	1000208a <main+0x1b4e>
10002030:	2546      	movs	r5, #70	; 0x46
10002032:	e04e      	b.n	100020d2 <main+0x1b96>
10002034:	2552      	movs	r5, #82	; 0x52
10002036:	e7a4      	b.n	10001f82 <main+0x1a46>
10002038:	ab09      	add	r3, sp, #36	; 0x24
1000203a:	2253      	movs	r2, #83	; 0x53
1000203c:	a90a      	add	r1, sp, #40	; 0x28
1000203e:	0020      	movs	r0, r4
10002040:	f7fe fa4c 	bl	100004dc <reverseRight>
10002044:	232d      	movs	r3, #45	; 0x2d
10002046:	446b      	add	r3, sp
10002048:	2201      	movs	r2, #1
1000204a:	701a      	strb	r2, [r3, #0]
1000204c:	e7aa      	b.n	10001fa4 <main+0x1a68>
1000204e:	ab09      	add	r3, sp, #36	; 0x24
10002050:	2253      	movs	r2, #83	; 0x53
10002052:	a90a      	add	r1, sp, #40	; 0x28
10002054:	0020      	movs	r0, r4
10002056:	f7fe fa4f 	bl	100004f8 <reverseLeft>
1000205a:	232e      	movs	r3, #46	; 0x2e
1000205c:	446b      	add	r3, sp
1000205e:	2201      	movs	r2, #1
10002060:	701a      	strb	r2, [r3, #0]
10002062:	e7a1      	b.n	10001fa8 <main+0x1a6c>
10002064:	ab09      	add	r3, sp, #36	; 0x24
10002066:	2253      	movs	r2, #83	; 0x53
10002068:	a90a      	add	r1, sp, #40	; 0x28
1000206a:	0020      	movs	r0, r4
1000206c:	f7fe fa52 	bl	10000514 <reverseBack>
10002070:	232f      	movs	r3, #47	; 0x2f
10002072:	446b      	add	r3, sp
10002074:	2201      	movs	r2, #1
10002076:	701a      	strb	r2, [r3, #0]
10002078:	e798      	b.n	10001fac <main+0x1a70>
1000207a:	990a      	ldr	r1, [sp, #40]	; 0x28
1000207c:	0020      	movs	r0, r4
1000207e:	f001 fd39 	bl	10003af4 <updateGridVisited>
10002082:	4810      	ldr	r0, [pc, #64]	; (100020c4 <main+0x1b88>)
10002084:	f005 ff9a 	bl	10007fbc <__wrap_puts>
10002088:	e79f      	b.n	10001fca <main+0x1a8e>
1000208a:	9b0a      	ldr	r3, [sp, #40]	; 0x28
1000208c:	9309      	str	r3, [sp, #36]	; 0x24
1000208e:	a908      	add	r1, sp, #32
10002090:	480a      	ldr	r0, [pc, #40]	; (100020bc <main+0x1b80>)
10002092:	f009 f9b7 	bl	1000b404 <strcpy>
10002096:	4643      	mov	r3, r8
10002098:	9301      	str	r3, [sp, #4]
1000209a:	9300      	str	r3, [sp, #0]
1000209c:	ab09      	add	r3, sp, #36	; 0x24
1000209e:	2257      	movs	r2, #87	; 0x57
100020a0:	a90a      	add	r1, sp, #40	; 0x28
100020a2:	0020      	movs	r0, r4
100020a4:	f7fe f992 	bl	100003cc <turnRight>
100020a8:	2352      	movs	r3, #82	; 0x52
100020aa:	9a09      	ldr	r2, [sp, #36]	; 0x24
100020ac:	990a      	ldr	r1, [sp, #40]	; 0x28
100020ae:	4804      	ldr	r0, [pc, #16]	; (100020c0 <main+0x1b84>)
100020b0:	f005 ffb6 	bl	10008020 <__wrap_printf>
100020b4:	2552      	movs	r5, #82	; 0x52
100020b6:	e00c      	b.n	100020d2 <main+0x1b96>
100020b8:	1000c2bc 	.word	0x1000c2bc
100020bc:	1000c2b4 	.word	0x1000c2b4
100020c0:	1000c274 	.word	0x1000c274
100020c4:	1000c304 	.word	0x1000c304
100020c8:	1000c2b8 	.word	0x1000c2b8
100020cc:	1000c270 	.word	0x1000c270
100020d0:	2546      	movs	r5, #70	; 0x46
100020d2:	232f      	movs	r3, #47	; 0x2f
100020d4:	446b      	add	r3, sp
100020d6:	781b      	ldrb	r3, [r3, #0]
100020d8:	2b00      	cmp	r3, #0
100020da:	d009      	beq.n	100020f0 <main+0x1bb4>
100020dc:	232d      	movs	r3, #45	; 0x2d
100020de:	446b      	add	r3, sp
100020e0:	781b      	ldrb	r3, [r3, #0]
100020e2:	2b00      	cmp	r3, #0
100020e4:	d004      	beq.n	100020f0 <main+0x1bb4>
100020e6:	232e      	movs	r3, #46	; 0x2e
100020e8:	446b      	add	r3, sp
100020ea:	781b      	ldrb	r3, [r3, #0]
100020ec:	2b00      	cmp	r3, #0
100020ee:	d03e      	beq.n	1000216e <main+0x1c32>
100020f0:	232f      	movs	r3, #47	; 0x2f
100020f2:	446b      	add	r3, sp
100020f4:	781b      	ldrb	r3, [r3, #0]
100020f6:	2b00      	cmp	r3, #0
100020f8:	d015      	beq.n	10002126 <main+0x1bea>
100020fa:	232d      	movs	r3, #45	; 0x2d
100020fc:	446b      	add	r3, sp
100020fe:	781b      	ldrb	r3, [r3, #0]
10002100:	2b00      	cmp	r3, #0
10002102:	d010      	beq.n	10002126 <main+0x1bea>
10002104:	232e      	movs	r3, #46	; 0x2e
10002106:	446b      	add	r3, sp
10002108:	781b      	ldrb	r3, [r3, #0]
1000210a:	2b00      	cmp	r3, #0
1000210c:	d00b      	beq.n	10002126 <main+0x1bea>
1000210e:	2d52      	cmp	r5, #82	; 0x52
10002110:	d044      	beq.n	1000219c <main+0x1c60>
10002112:	2d4c      	cmp	r5, #76	; 0x4c
10002114:	d04d      	beq.n	100021b2 <main+0x1c76>
10002116:	2d46      	cmp	r5, #70	; 0x46
10002118:	d056      	beq.n	100021c8 <main+0x1c8c>
1000211a:	002b      	movs	r3, r5
1000211c:	9a09      	ldr	r2, [sp, #36]	; 0x24
1000211e:	990a      	ldr	r1, [sp, #40]	; 0x28
10002120:	4833      	ldr	r0, [pc, #204]	; (100021f0 <main+0x1cb4>)
10002122:	f005 ff7d 	bl	10008020 <__wrap_printf>
10002126:	9909      	ldr	r1, [sp, #36]	; 0x24
10002128:	0020      	movs	r0, r4
1000212a:	f001 fce3 	bl	10003af4 <updateGridVisited>
1000212e:	0020      	movs	r0, r4
10002130:	f001 fc38 	bl	100039a4 <checkAllNodesHasAtLeast1Edge>
10002134:	2800      	cmp	r0, #0
10002136:	d152      	bne.n	100021de <main+0x1ca2>
10002138:	482e      	ldr	r0, [pc, #184]	; (100021f4 <main+0x1cb8>)
1000213a:	f005 ff3f 	bl	10007fbc <__wrap_puts>
1000213e:	0020      	movs	r0, r4
10002140:	f001 fc18 	bl	10003974 <printAllMatrix>
10002144:	0020      	movs	r0, r4
10002146:	f001 fd19 	bl	10003b7c <printGridVisited>
1000214a:	2204      	movs	r2, #4
1000214c:	2104      	movs	r1, #4
1000214e:	0020      	movs	r0, r4
10002150:	f001 fae0 	bl	10003714 <printMap>
10002154:	f001 fc6e 	bl	10003a34 <bytesConsumedByMap>
10002158:	0020      	movs	r0, r4
1000215a:	f000 f853 	bl	10002204 <destroyGraph>
1000215e:	2000      	movs	r0, #0
10002160:	b00d      	add	sp, #52	; 0x34
10002162:	bcf0      	pop	{r4, r5, r6, r7}
10002164:	46bb      	mov	fp, r7
10002166:	46b2      	mov	sl, r6
10002168:	46a9      	mov	r9, r5
1000216a:	46a0      	mov	r8, r4
1000216c:	bdf0      	pop	{r4, r5, r6, r7, pc}
1000216e:	9b0a      	ldr	r3, [sp, #40]	; 0x28
10002170:	9309      	str	r3, [sp, #36]	; 0x24
10002172:	a908      	add	r1, sp, #32
10002174:	4820      	ldr	r0, [pc, #128]	; (100021f8 <main+0x1cbc>)
10002176:	f009 f945 	bl	1000b404 <strcpy>
1000217a:	2300      	movs	r3, #0
1000217c:	9301      	str	r3, [sp, #4]
1000217e:	9300      	str	r3, [sp, #0]
10002180:	ab09      	add	r3, sp, #36	; 0x24
10002182:	2257      	movs	r2, #87	; 0x57
10002184:	a90a      	add	r1, sp, #40	; 0x28
10002186:	0020      	movs	r0, r4
10002188:	f7fe f964 	bl	10000454 <turnLeft>
1000218c:	234c      	movs	r3, #76	; 0x4c
1000218e:	9a09      	ldr	r2, [sp, #36]	; 0x24
10002190:	990a      	ldr	r1, [sp, #40]	; 0x28
10002192:	481a      	ldr	r0, [pc, #104]	; (100021fc <main+0x1cc0>)
10002194:	f005 ff44 	bl	10008020 <__wrap_printf>
10002198:	254c      	movs	r5, #76	; 0x4c
1000219a:	e7a9      	b.n	100020f0 <main+0x1bb4>
1000219c:	ab09      	add	r3, sp, #36	; 0x24
1000219e:	2257      	movs	r2, #87	; 0x57
100021a0:	a90a      	add	r1, sp, #40	; 0x28
100021a2:	0020      	movs	r0, r4
100021a4:	f7fe f99a 	bl	100004dc <reverseRight>
100021a8:	232d      	movs	r3, #45	; 0x2d
100021aa:	446b      	add	r3, sp
100021ac:	2201      	movs	r2, #1
100021ae:	701a      	strb	r2, [r3, #0]
100021b0:	e7af      	b.n	10002112 <main+0x1bd6>
100021b2:	ab09      	add	r3, sp, #36	; 0x24
100021b4:	2257      	movs	r2, #87	; 0x57
100021b6:	a90a      	add	r1, sp, #40	; 0x28
100021b8:	0020      	movs	r0, r4
100021ba:	f7fe f99d 	bl	100004f8 <reverseLeft>
100021be:	232e      	movs	r3, #46	; 0x2e
100021c0:	446b      	add	r3, sp
100021c2:	2201      	movs	r2, #1
100021c4:	701a      	strb	r2, [r3, #0]
100021c6:	e7a6      	b.n	10002116 <main+0x1bda>
100021c8:	ab09      	add	r3, sp, #36	; 0x24
100021ca:	2257      	movs	r2, #87	; 0x57
100021cc:	a90a      	add	r1, sp, #40	; 0x28
100021ce:	0020      	movs	r0, r4
100021d0:	f7fe f9a0 	bl	10000514 <reverseBack>
100021d4:	232f      	movs	r3, #47	; 0x2f
100021d6:	446b      	add	r3, sp
100021d8:	2201      	movs	r2, #1
100021da:	701a      	strb	r2, [r3, #0]
100021dc:	e79d      	b.n	1000211a <main+0x1bde>
100021de:	990a      	ldr	r1, [sp, #40]	; 0x28
100021e0:	0020      	movs	r0, r4
100021e2:	f001 fc87 	bl	10003af4 <updateGridVisited>
100021e6:	4806      	ldr	r0, [pc, #24]	; (10002200 <main+0x1cc4>)
100021e8:	f005 fee8 	bl	10007fbc <__wrap_puts>
100021ec:	e7a4      	b.n	10002138 <main+0x1bfc>
100021ee:	46c0      	nop			; (mov r8, r8)
100021f0:	1000c2bc 	.word	0x1000c2bc
100021f4:	1000c314 	.word	0x1000c314
100021f8:	1000c2b8 	.word	0x1000c2b8
100021fc:	1000c274 	.word	0x1000c274
10002200:	1000c304 	.word	0x1000c304

10002204 <destroyGraph>:
10002204:	b570      	push	{r4, r5, r6, lr}
10002206:	0004      	movs	r4, r0
10002208:	7a03      	ldrb	r3, [r0, #8]
1000220a:	7a41      	ldrb	r1, [r0, #9]
1000220c:	0209      	lsls	r1, r1, #8
1000220e:	4319      	orrs	r1, r3
10002210:	7a82      	ldrb	r2, [r0, #10]
10002212:	0412      	lsls	r2, r2, #16
10002214:	4311      	orrs	r1, r2
10002216:	7ac3      	ldrb	r3, [r0, #11]
10002218:	061b      	lsls	r3, r3, #24
1000221a:	430b      	orrs	r3, r1
1000221c:	d001      	beq.n	10002222 <destroyGraph+0x1e>
1000221e:	2500      	movs	r5, #0
10002220:	e011      	b.n	10002246 <destroyGraph+0x42>
10002222:	f005 fd35 	bl	10007c90 <__wrap_free>
10002226:	e7fa      	b.n	1000221e <destroyGraph+0x1a>
10002228:	7a23      	ldrb	r3, [r4, #8]
1000222a:	7a61      	ldrb	r1, [r4, #9]
1000222c:	0209      	lsls	r1, r1, #8
1000222e:	4319      	orrs	r1, r3
10002230:	7aa2      	ldrb	r2, [r4, #10]
10002232:	0412      	lsls	r2, r2, #16
10002234:	4311      	orrs	r1, r2
10002236:	7ae3      	ldrb	r3, [r4, #11]
10002238:	061b      	lsls	r3, r3, #24
1000223a:	430b      	orrs	r3, r1
1000223c:	00aa      	lsls	r2, r5, #2
1000223e:	5898      	ldr	r0, [r3, r2]
10002240:	f005 fd26 	bl	10007c90 <__wrap_free>
10002244:	3501      	adds	r5, #1
10002246:	7923      	ldrb	r3, [r4, #4]
10002248:	7961      	ldrb	r1, [r4, #5]
1000224a:	0209      	lsls	r1, r1, #8
1000224c:	4319      	orrs	r1, r3
1000224e:	79a2      	ldrb	r2, [r4, #6]
10002250:	0412      	lsls	r2, r2, #16
10002252:	4311      	orrs	r1, r2
10002254:	79e3      	ldrb	r3, [r4, #7]
10002256:	061b      	lsls	r3, r3, #24
10002258:	430b      	orrs	r3, r1
1000225a:	42ab      	cmp	r3, r5
1000225c:	dce4      	bgt.n	10002228 <destroyGraph+0x24>
1000225e:	7a20      	ldrb	r0, [r4, #8]
10002260:	7a63      	ldrb	r3, [r4, #9]
10002262:	021b      	lsls	r3, r3, #8
10002264:	4303      	orrs	r3, r0
10002266:	7aa2      	ldrb	r2, [r4, #10]
10002268:	0412      	lsls	r2, r2, #16
1000226a:	4313      	orrs	r3, r2
1000226c:	7ae0      	ldrb	r0, [r4, #11]
1000226e:	0600      	lsls	r0, r0, #24
10002270:	4318      	orrs	r0, r3
10002272:	f005 fd0d 	bl	10007c90 <__wrap_free>
10002276:	bd70      	pop	{r4, r5, r6, pc}

10002278 <createGraph>:
10002278:	b5f8      	push	{r3, r4, r5, r6, r7, lr}
1000227a:	46de      	mov	lr, fp
1000227c:	4657      	mov	r7, sl
1000227e:	464e      	mov	r6, r9
10002280:	4645      	mov	r5, r8
10002282:	b5e0      	push	{r5, r6, r7, lr}
10002284:	0006      	movs	r6, r0
10002286:	000d      	movs	r5, r1
10002288:	2024      	movs	r0, #36	; 0x24
1000228a:	f005 fcdd 	bl	10007c48 <__wrap_malloc>
1000228e:	1e04      	subs	r4, r0, #0
10002290:	d100      	bne.n	10002294 <createGraph+0x1c>
10002292:	e2af      	b.n	100027f4 <createGraph+0x57c>
10002294:	0029      	movs	r1, r5
10002296:	4371      	muls	r1, r6
10002298:	7101      	strb	r1, [r0, #4]
1000229a:	0a0b      	lsrs	r3, r1, #8
1000229c:	7143      	strb	r3, [r0, #5]
1000229e:	0c0b      	lsrs	r3, r1, #16
100022a0:	7183      	strb	r3, [r0, #6]
100022a2:	0e0b      	lsrs	r3, r1, #24
100022a4:	71c3      	strb	r3, [r0, #7]
100022a6:	2004      	movs	r0, #4
100022a8:	f005 fce0 	bl	10007c6c <__wrap_calloc>
100022ac:	7220      	strb	r0, [r4, #8]
100022ae:	0a03      	lsrs	r3, r0, #8
100022b0:	7263      	strb	r3, [r4, #9]
100022b2:	0c03      	lsrs	r3, r0, #16
100022b4:	72a3      	strb	r3, [r4, #10]
100022b6:	0e03      	lsrs	r3, r0, #24
100022b8:	72e3      	strb	r3, [r4, #11]
100022ba:	2800      	cmp	r0, #0
100022bc:	d001      	beq.n	100022c2 <createGraph+0x4a>
100022be:	2600      	movs	r6, #0
100022c0:	e007      	b.n	100022d2 <createGraph+0x5a>
100022c2:	0020      	movs	r0, r4
100022c4:	f7ff ff9e 	bl	10002204 <destroyGraph>
100022c8:	48d5      	ldr	r0, [pc, #852]	; (10002620 <createGraph+0x3a8>)
100022ca:	f005 fea9 	bl	10008020 <__wrap_printf>
100022ce:	e7f6      	b.n	100022be <createGraph+0x46>
100022d0:	3601      	adds	r6, #1
100022d2:	7922      	ldrb	r2, [r4, #4]
100022d4:	7963      	ldrb	r3, [r4, #5]
100022d6:	021b      	lsls	r3, r3, #8
100022d8:	431a      	orrs	r2, r3
100022da:	79a1      	ldrb	r1, [r4, #6]
100022dc:	0409      	lsls	r1, r1, #16
100022de:	4311      	orrs	r1, r2
100022e0:	79e3      	ldrb	r3, [r4, #7]
100022e2:	061b      	lsls	r3, r3, #24
100022e4:	4319      	orrs	r1, r3
100022e6:	42b1      	cmp	r1, r6
100022e8:	dd23      	ble.n	10002332 <createGraph+0xba>
100022ea:	7a25      	ldrb	r5, [r4, #8]
100022ec:	7a62      	ldrb	r2, [r4, #9]
100022ee:	0212      	lsls	r2, r2, #8
100022f0:	432a      	orrs	r2, r5
100022f2:	7aa3      	ldrb	r3, [r4, #10]
100022f4:	041b      	lsls	r3, r3, #16
100022f6:	431a      	orrs	r2, r3
100022f8:	7ae5      	ldrb	r5, [r4, #11]
100022fa:	062d      	lsls	r5, r5, #24
100022fc:	4315      	orrs	r5, r2
100022fe:	00b7      	lsls	r7, r6, #2
10002300:	19ed      	adds	r5, r5, r7
10002302:	2004      	movs	r0, #4
10002304:	f005 fcb2 	bl	10007c6c <__wrap_calloc>
10002308:	6028      	str	r0, [r5, #0]
1000230a:	7a23      	ldrb	r3, [r4, #8]
1000230c:	7a61      	ldrb	r1, [r4, #9]
1000230e:	0209      	lsls	r1, r1, #8
10002310:	4319      	orrs	r1, r3
10002312:	7aa2      	ldrb	r2, [r4, #10]
10002314:	0412      	lsls	r2, r2, #16
10002316:	4311      	orrs	r1, r2
10002318:	7ae3      	ldrb	r3, [r4, #11]
1000231a:	061b      	lsls	r3, r3, #24
1000231c:	430b      	orrs	r3, r1
1000231e:	59db      	ldr	r3, [r3, r7]
10002320:	2b00      	cmp	r3, #0
10002322:	d1d5      	bne.n	100022d0 <createGraph+0x58>
10002324:	0020      	movs	r0, r4
10002326:	f7ff ff6d 	bl	10002204 <destroyGraph>
1000232a:	48be      	ldr	r0, [pc, #760]	; (10002624 <createGraph+0x3ac>)
1000232c:	f005 fe78 	bl	10008020 <__wrap_printf>
10002330:	e7ce      	b.n	100022d0 <createGraph+0x58>
10002332:	2004      	movs	r0, #4
10002334:	f005 fc9a 	bl	10007c6c <__wrap_calloc>
10002338:	7320      	strb	r0, [r4, #12]
1000233a:	0a03      	lsrs	r3, r0, #8
1000233c:	7363      	strb	r3, [r4, #13]
1000233e:	0c03      	lsrs	r3, r0, #16
10002340:	73a3      	strb	r3, [r4, #14]
10002342:	0e03      	lsrs	r3, r0, #24
10002344:	73e3      	strb	r3, [r4, #15]
10002346:	2800      	cmp	r0, #0
10002348:	d001      	beq.n	1000234e <createGraph+0xd6>
1000234a:	2600      	movs	r6, #0
1000234c:	e007      	b.n	1000235e <createGraph+0xe6>
1000234e:	0020      	movs	r0, r4
10002350:	f7ff ff58 	bl	10002204 <destroyGraph>
10002354:	48b4      	ldr	r0, [pc, #720]	; (10002628 <createGraph+0x3b0>)
10002356:	f005 fe63 	bl	10008020 <__wrap_printf>
1000235a:	e7f6      	b.n	1000234a <createGraph+0xd2>
1000235c:	3601      	adds	r6, #1
1000235e:	7922      	ldrb	r2, [r4, #4]
10002360:	7963      	ldrb	r3, [r4, #5]
10002362:	021b      	lsls	r3, r3, #8
10002364:	431a      	orrs	r2, r3
10002366:	79a1      	ldrb	r1, [r4, #6]
10002368:	0409      	lsls	r1, r1, #16
1000236a:	4311      	orrs	r1, r2
1000236c:	79e3      	ldrb	r3, [r4, #7]
1000236e:	061b      	lsls	r3, r3, #24
10002370:	4319      	orrs	r1, r3
10002372:	42b1      	cmp	r1, r6
10002374:	dd23      	ble.n	100023be <createGraph+0x146>
10002376:	7b25      	ldrb	r5, [r4, #12]
10002378:	7b62      	ldrb	r2, [r4, #13]
1000237a:	0212      	lsls	r2, r2, #8
1000237c:	432a      	orrs	r2, r5
1000237e:	7ba3      	ldrb	r3, [r4, #14]
10002380:	041b      	lsls	r3, r3, #16
10002382:	431a      	orrs	r2, r3
10002384:	7be5      	ldrb	r5, [r4, #15]
10002386:	062d      	lsls	r5, r5, #24
10002388:	4315      	orrs	r5, r2
1000238a:	00b7      	lsls	r7, r6, #2
1000238c:	19ed      	adds	r5, r5, r7
1000238e:	2004      	movs	r0, #4
10002390:	f005 fc6c 	bl	10007c6c <__wrap_calloc>
10002394:	6028      	str	r0, [r5, #0]
10002396:	7b23      	ldrb	r3, [r4, #12]
10002398:	7b61      	ldrb	r1, [r4, #13]
1000239a:	0209      	lsls	r1, r1, #8
1000239c:	4319      	orrs	r1, r3
1000239e:	7ba2      	ldrb	r2, [r4, #14]
100023a0:	0412      	lsls	r2, r2, #16
100023a2:	4311      	orrs	r1, r2
100023a4:	7be3      	ldrb	r3, [r4, #15]
100023a6:	061b      	lsls	r3, r3, #24
100023a8:	430b      	orrs	r3, r1
100023aa:	59db      	ldr	r3, [r3, r7]
100023ac:	2b00      	cmp	r3, #0
100023ae:	d1d5      	bne.n	1000235c <createGraph+0xe4>
100023b0:	0020      	movs	r0, r4
100023b2:	f7ff ff27 	bl	10002204 <destroyGraph>
100023b6:	489d      	ldr	r0, [pc, #628]	; (1000262c <createGraph+0x3b4>)
100023b8:	f005 fe32 	bl	10008020 <__wrap_printf>
100023bc:	e7ce      	b.n	1000235c <createGraph+0xe4>
100023be:	2004      	movs	r0, #4
100023c0:	f005 fc54 	bl	10007c6c <__wrap_calloc>
100023c4:	7420      	strb	r0, [r4, #16]
100023c6:	0a03      	lsrs	r3, r0, #8
100023c8:	7463      	strb	r3, [r4, #17]
100023ca:	0c03      	lsrs	r3, r0, #16
100023cc:	74a3      	strb	r3, [r4, #18]
100023ce:	0e03      	lsrs	r3, r0, #24
100023d0:	74e3      	strb	r3, [r4, #19]
100023d2:	2800      	cmp	r0, #0
100023d4:	d001      	beq.n	100023da <createGraph+0x162>
100023d6:	2600      	movs	r6, #0
100023d8:	e007      	b.n	100023ea <createGraph+0x172>
100023da:	0020      	movs	r0, r4
100023dc:	f7ff ff12 	bl	10002204 <destroyGraph>
100023e0:	4893      	ldr	r0, [pc, #588]	; (10002630 <createGraph+0x3b8>)
100023e2:	f005 fe1d 	bl	10008020 <__wrap_printf>
100023e6:	e7f6      	b.n	100023d6 <createGraph+0x15e>
100023e8:	3601      	adds	r6, #1
100023ea:	7922      	ldrb	r2, [r4, #4]
100023ec:	7963      	ldrb	r3, [r4, #5]
100023ee:	021b      	lsls	r3, r3, #8
100023f0:	431a      	orrs	r2, r3
100023f2:	79a1      	ldrb	r1, [r4, #6]
100023f4:	0409      	lsls	r1, r1, #16
100023f6:	4311      	orrs	r1, r2
100023f8:	79e3      	ldrb	r3, [r4, #7]
100023fa:	061b      	lsls	r3, r3, #24
100023fc:	4319      	orrs	r1, r3
100023fe:	42b1      	cmp	r1, r6
10002400:	dd23      	ble.n	1000244a <createGraph+0x1d2>
10002402:	7c25      	ldrb	r5, [r4, #16]
10002404:	7c62      	ldrb	r2, [r4, #17]
10002406:	0212      	lsls	r2, r2, #8
10002408:	432a      	orrs	r2, r5
1000240a:	7ca3      	ldrb	r3, [r4, #18]
1000240c:	041b      	lsls	r3, r3, #16
1000240e:	431a      	orrs	r2, r3
10002410:	7ce5      	ldrb	r5, [r4, #19]
10002412:	062d      	lsls	r5, r5, #24
10002414:	4315      	orrs	r5, r2
10002416:	00b7      	lsls	r7, r6, #2
10002418:	19ed      	adds	r5, r5, r7
1000241a:	2004      	movs	r0, #4
1000241c:	f005 fc26 	bl	10007c6c <__wrap_calloc>
10002420:	6028      	str	r0, [r5, #0]
10002422:	7c23      	ldrb	r3, [r4, #16]
10002424:	7c61      	ldrb	r1, [r4, #17]
10002426:	0209      	lsls	r1, r1, #8
10002428:	4319      	orrs	r1, r3
1000242a:	7ca2      	ldrb	r2, [r4, #18]
1000242c:	0412      	lsls	r2, r2, #16
1000242e:	4311      	orrs	r1, r2
10002430:	7ce3      	ldrb	r3, [r4, #19]
10002432:	061b      	lsls	r3, r3, #24
10002434:	430b      	orrs	r3, r1
10002436:	59db      	ldr	r3, [r3, r7]
10002438:	2b00      	cmp	r3, #0
1000243a:	d1d5      	bne.n	100023e8 <createGraph+0x170>
1000243c:	0020      	movs	r0, r4
1000243e:	f7ff fee1 	bl	10002204 <destroyGraph>
10002442:	487c      	ldr	r0, [pc, #496]	; (10002634 <createGraph+0x3bc>)
10002444:	f005 fdec 	bl	10008020 <__wrap_printf>
10002448:	e7ce      	b.n	100023e8 <createGraph+0x170>
1000244a:	2004      	movs	r0, #4
1000244c:	f005 fc0e 	bl	10007c6c <__wrap_calloc>
10002450:	7520      	strb	r0, [r4, #20]
10002452:	0a03      	lsrs	r3, r0, #8
10002454:	7563      	strb	r3, [r4, #21]
10002456:	0c03      	lsrs	r3, r0, #16
10002458:	75a3      	strb	r3, [r4, #22]
1000245a:	0e03      	lsrs	r3, r0, #24
1000245c:	75e3      	strb	r3, [r4, #23]
1000245e:	2800      	cmp	r0, #0
10002460:	d001      	beq.n	10002466 <createGraph+0x1ee>
10002462:	2600      	movs	r6, #0
10002464:	e007      	b.n	10002476 <createGraph+0x1fe>
10002466:	0020      	movs	r0, r4
10002468:	f7ff fecc 	bl	10002204 <destroyGraph>
1000246c:	4872      	ldr	r0, [pc, #456]	; (10002638 <createGraph+0x3c0>)
1000246e:	f005 fdd7 	bl	10008020 <__wrap_printf>
10002472:	e7f6      	b.n	10002462 <createGraph+0x1ea>
10002474:	3601      	adds	r6, #1
10002476:	7922      	ldrb	r2, [r4, #4]
10002478:	7963      	ldrb	r3, [r4, #5]
1000247a:	021b      	lsls	r3, r3, #8
1000247c:	431a      	orrs	r2, r3
1000247e:	79a1      	ldrb	r1, [r4, #6]
10002480:	0409      	lsls	r1, r1, #16
10002482:	4311      	orrs	r1, r2
10002484:	79e3      	ldrb	r3, [r4, #7]
10002486:	061b      	lsls	r3, r3, #24
10002488:	4319      	orrs	r1, r3
1000248a:	42b1      	cmp	r1, r6
1000248c:	dd23      	ble.n	100024d6 <createGraph+0x25e>
1000248e:	7d25      	ldrb	r5, [r4, #20]
10002490:	7d62      	ldrb	r2, [r4, #21]
10002492:	0212      	lsls	r2, r2, #8
10002494:	432a      	orrs	r2, r5
10002496:	7da3      	ldrb	r3, [r4, #22]
10002498:	041b      	lsls	r3, r3, #16
1000249a:	431a      	orrs	r2, r3
1000249c:	7de5      	ldrb	r5, [r4, #23]
1000249e:	062d      	lsls	r5, r5, #24
100024a0:	4315      	orrs	r5, r2
100024a2:	00b7      	lsls	r7, r6, #2
100024a4:	19ed      	adds	r5, r5, r7
100024a6:	2004      	movs	r0, #4
100024a8:	f005 fbe0 	bl	10007c6c <__wrap_calloc>
100024ac:	6028      	str	r0, [r5, #0]
100024ae:	7d23      	ldrb	r3, [r4, #20]
100024b0:	7d61      	ldrb	r1, [r4, #21]
100024b2:	0209      	lsls	r1, r1, #8
100024b4:	4319      	orrs	r1, r3
100024b6:	7da2      	ldrb	r2, [r4, #22]
100024b8:	0412      	lsls	r2, r2, #16
100024ba:	4311      	orrs	r1, r2
100024bc:	7de3      	ldrb	r3, [r4, #23]
100024be:	061b      	lsls	r3, r3, #24
100024c0:	430b      	orrs	r3, r1
100024c2:	59db      	ldr	r3, [r3, r7]
100024c4:	2b00      	cmp	r3, #0
100024c6:	d1d5      	bne.n	10002474 <createGraph+0x1fc>
100024c8:	0020      	movs	r0, r4
100024ca:	f7ff fe9b 	bl	10002204 <destroyGraph>
100024ce:	485b      	ldr	r0, [pc, #364]	; (1000263c <createGraph+0x3c4>)
100024d0:	f005 fda6 	bl	10008020 <__wrap_printf>
100024d4:	e7ce      	b.n	10002474 <createGraph+0x1fc>
100024d6:	2004      	movs	r0, #4
100024d8:	f005 fbc8 	bl	10007c6c <__wrap_calloc>
100024dc:	7620      	strb	r0, [r4, #24]
100024de:	0a03      	lsrs	r3, r0, #8
100024e0:	7663      	strb	r3, [r4, #25]
100024e2:	0c03      	lsrs	r3, r0, #16
100024e4:	76a3      	strb	r3, [r4, #26]
100024e6:	0e03      	lsrs	r3, r0, #24
100024e8:	76e3      	strb	r3, [r4, #27]
100024ea:	2800      	cmp	r0, #0
100024ec:	d001      	beq.n	100024f2 <createGraph+0x27a>
100024ee:	2600      	movs	r6, #0
100024f0:	e007      	b.n	10002502 <createGraph+0x28a>
100024f2:	0020      	movs	r0, r4
100024f4:	f7ff fe86 	bl	10002204 <destroyGraph>
100024f8:	4851      	ldr	r0, [pc, #324]	; (10002640 <createGraph+0x3c8>)
100024fa:	f005 fd91 	bl	10008020 <__wrap_printf>
100024fe:	e7f6      	b.n	100024ee <createGraph+0x276>
10002500:	3601      	adds	r6, #1
10002502:	7922      	ldrb	r2, [r4, #4]
10002504:	7963      	ldrb	r3, [r4, #5]
10002506:	021b      	lsls	r3, r3, #8
10002508:	431a      	orrs	r2, r3
1000250a:	79a1      	ldrb	r1, [r4, #6]
1000250c:	0409      	lsls	r1, r1, #16
1000250e:	4311      	orrs	r1, r2
10002510:	79e3      	ldrb	r3, [r4, #7]
10002512:	061b      	lsls	r3, r3, #24
10002514:	4319      	orrs	r1, r3
10002516:	42b1      	cmp	r1, r6
10002518:	dd23      	ble.n	10002562 <createGraph+0x2ea>
1000251a:	7e25      	ldrb	r5, [r4, #24]
1000251c:	7e62      	ldrb	r2, [r4, #25]
1000251e:	0212      	lsls	r2, r2, #8
10002520:	432a      	orrs	r2, r5
10002522:	7ea3      	ldrb	r3, [r4, #26]
10002524:	041b      	lsls	r3, r3, #16
10002526:	431a      	orrs	r2, r3
10002528:	7ee5      	ldrb	r5, [r4, #27]
1000252a:	062d      	lsls	r5, r5, #24
1000252c:	4315      	orrs	r5, r2
1000252e:	00b7      	lsls	r7, r6, #2
10002530:	19ed      	adds	r5, r5, r7
10002532:	2004      	movs	r0, #4
10002534:	f005 fb9a 	bl	10007c6c <__wrap_calloc>
10002538:	6028      	str	r0, [r5, #0]
1000253a:	7e23      	ldrb	r3, [r4, #24]
1000253c:	7e61      	ldrb	r1, [r4, #25]
1000253e:	0209      	lsls	r1, r1, #8
10002540:	4319      	orrs	r1, r3
10002542:	7ea2      	ldrb	r2, [r4, #26]
10002544:	0412      	lsls	r2, r2, #16
10002546:	4311      	orrs	r1, r2
10002548:	7ee3      	ldrb	r3, [r4, #27]
1000254a:	061b      	lsls	r3, r3, #24
1000254c:	430b      	orrs	r3, r1
1000254e:	59db      	ldr	r3, [r3, r7]
10002550:	2b00      	cmp	r3, #0
10002552:	d1d5      	bne.n	10002500 <createGraph+0x288>
10002554:	0020      	movs	r0, r4
10002556:	f7ff fe55 	bl	10002204 <destroyGraph>
1000255a:	483a      	ldr	r0, [pc, #232]	; (10002644 <createGraph+0x3cc>)
1000255c:	f005 fd60 	bl	10008020 <__wrap_printf>
10002560:	e7ce      	b.n	10002500 <createGraph+0x288>
10002562:	2004      	movs	r0, #4
10002564:	f005 fb82 	bl	10007c6c <__wrap_calloc>
10002568:	7720      	strb	r0, [r4, #28]
1000256a:	0a03      	lsrs	r3, r0, #8
1000256c:	7763      	strb	r3, [r4, #29]
1000256e:	0c03      	lsrs	r3, r0, #16
10002570:	77a3      	strb	r3, [r4, #30]
10002572:	0e03      	lsrs	r3, r0, #24
10002574:	77e3      	strb	r3, [r4, #31]
10002576:	2800      	cmp	r0, #0
10002578:	d001      	beq.n	1000257e <createGraph+0x306>
1000257a:	2600      	movs	r6, #0
1000257c:	e007      	b.n	1000258e <createGraph+0x316>
1000257e:	0020      	movs	r0, r4
10002580:	f7ff fe40 	bl	10002204 <destroyGraph>
10002584:	4830      	ldr	r0, [pc, #192]	; (10002648 <createGraph+0x3d0>)
10002586:	f005 fd4b 	bl	10008020 <__wrap_printf>
1000258a:	e7f6      	b.n	1000257a <createGraph+0x302>
1000258c:	3601      	adds	r6, #1
1000258e:	7922      	ldrb	r2, [r4, #4]
10002590:	7963      	ldrb	r3, [r4, #5]
10002592:	021b      	lsls	r3, r3, #8
10002594:	431a      	orrs	r2, r3
10002596:	79a1      	ldrb	r1, [r4, #6]
10002598:	0409      	lsls	r1, r1, #16
1000259a:	4311      	orrs	r1, r2
1000259c:	79e3      	ldrb	r3, [r4, #7]
1000259e:	061b      	lsls	r3, r3, #24
100025a0:	4319      	orrs	r1, r3
100025a2:	42b1      	cmp	r1, r6
100025a4:	dd23      	ble.n	100025ee <createGraph+0x376>
100025a6:	7f25      	ldrb	r5, [r4, #28]
100025a8:	7f62      	ldrb	r2, [r4, #29]
100025aa:	0212      	lsls	r2, r2, #8
100025ac:	432a      	orrs	r2, r5
100025ae:	7fa3      	ldrb	r3, [r4, #30]
100025b0:	041b      	lsls	r3, r3, #16
100025b2:	431a      	orrs	r2, r3
100025b4:	7fe5      	ldrb	r5, [r4, #31]
100025b6:	062d      	lsls	r5, r5, #24
100025b8:	4315      	orrs	r5, r2
100025ba:	00b7      	lsls	r7, r6, #2
100025bc:	19ed      	adds	r5, r5, r7
100025be:	2004      	movs	r0, #4
100025c0:	f005 fb54 	bl	10007c6c <__wrap_calloc>
100025c4:	6028      	str	r0, [r5, #0]
100025c6:	7f23      	ldrb	r3, [r4, #28]
100025c8:	7f61      	ldrb	r1, [r4, #29]
100025ca:	0209      	lsls	r1, r1, #8
100025cc:	4319      	orrs	r1, r3
100025ce:	7fa2      	ldrb	r2, [r4, #30]
100025d0:	0412      	lsls	r2, r2, #16
100025d2:	4311      	orrs	r1, r2
100025d4:	7fe3      	ldrb	r3, [r4, #31]
100025d6:	061b      	lsls	r3, r3, #24
100025d8:	430b      	orrs	r3, r1
100025da:	59db      	ldr	r3, [r3, r7]
100025dc:	2b00      	cmp	r3, #0
100025de:	d1d5      	bne.n	1000258c <createGraph+0x314>
100025e0:	0020      	movs	r0, r4
100025e2:	f7ff fe0f 	bl	10002204 <destroyGraph>
100025e6:	4819      	ldr	r0, [pc, #100]	; (1000264c <createGraph+0x3d4>)
100025e8:	f005 fd1a 	bl	10008020 <__wrap_printf>
100025ec:	e7ce      	b.n	1000258c <createGraph+0x314>
100025ee:	2004      	movs	r0, #4
100025f0:	f005 fb3c 	bl	10007c6c <__wrap_calloc>
100025f4:	2320      	movs	r3, #32
100025f6:	54e0      	strb	r0, [r4, r3]
100025f8:	0a02      	lsrs	r2, r0, #8
100025fa:	3301      	adds	r3, #1
100025fc:	54e2      	strb	r2, [r4, r3]
100025fe:	0c02      	lsrs	r2, r0, #16
10002600:	3301      	adds	r3, #1
10002602:	54e2      	strb	r2, [r4, r3]
10002604:	0e02      	lsrs	r2, r0, #24
10002606:	3301      	adds	r3, #1
10002608:	54e2      	strb	r2, [r4, r3]
1000260a:	2800      	cmp	r0, #0
1000260c:	d001      	beq.n	10002612 <createGraph+0x39a>
1000260e:	2600      	movs	r6, #0
10002610:	e021      	b.n	10002656 <createGraph+0x3de>
10002612:	0020      	movs	r0, r4
10002614:	f7ff fdf6 	bl	10002204 <destroyGraph>
10002618:	480d      	ldr	r0, [pc, #52]	; (10002650 <createGraph+0x3d8>)
1000261a:	f005 fd01 	bl	10008020 <__wrap_printf>
1000261e:	e7f6      	b.n	1000260e <createGraph+0x396>
10002620:	1000c318 	.word	0x1000c318
10002624:	1000c33c 	.word	0x1000c33c
10002628:	1000c360 	.word	0x1000c360
1000262c:	1000c384 	.word	0x1000c384
10002630:	1000c3a8 	.word	0x1000c3a8
10002634:	1000c3cc 	.word	0x1000c3cc
10002638:	1000c3f0 	.word	0x1000c3f0
1000263c:	1000c420 	.word	0x1000c420
10002640:	1000c450 	.word	0x1000c450
10002644:	1000c480 	.word	0x1000c480
10002648:	1000c4b0 	.word	0x1000c4b0
1000264c:	1000c4e0 	.word	0x1000c4e0
10002650:	1000c510 	.word	0x1000c510
10002654:	3601      	adds	r6, #1
10002656:	7922      	ldrb	r2, [r4, #4]
10002658:	7963      	ldrb	r3, [r4, #5]
1000265a:	021b      	lsls	r3, r3, #8
1000265c:	431a      	orrs	r2, r3
1000265e:	79a1      	ldrb	r1, [r4, #6]
10002660:	0409      	lsls	r1, r1, #16
10002662:	4311      	orrs	r1, r2
10002664:	79e3      	ldrb	r3, [r4, #7]
10002666:	061b      	lsls	r3, r3, #24
10002668:	4319      	orrs	r1, r3
1000266a:	42b1      	cmp	r1, r6
1000266c:	dd2f      	ble.n	100026ce <createGraph+0x456>
1000266e:	2320      	movs	r3, #32
10002670:	469b      	mov	fp, r3
10002672:	5ce5      	ldrb	r5, [r4, r3]
10002674:	3301      	adds	r3, #1
10002676:	469a      	mov	sl, r3
10002678:	5ce2      	ldrb	r2, [r4, r3]
1000267a:	0212      	lsls	r2, r2, #8
1000267c:	432a      	orrs	r2, r5
1000267e:	3301      	adds	r3, #1
10002680:	4699      	mov	r9, r3
10002682:	5ce3      	ldrb	r3, [r4, r3]
10002684:	041b      	lsls	r3, r3, #16
10002686:	431a      	orrs	r2, r3
10002688:	2323      	movs	r3, #35	; 0x23
1000268a:	4698      	mov	r8, r3
1000268c:	5ce5      	ldrb	r5, [r4, r3]
1000268e:	062d      	lsls	r5, r5, #24
10002690:	4315      	orrs	r5, r2
10002692:	00b7      	lsls	r7, r6, #2
10002694:	19ed      	adds	r5, r5, r7
10002696:	2004      	movs	r0, #4
10002698:	f005 fae8 	bl	10007c6c <__wrap_calloc>
1000269c:	6028      	str	r0, [r5, #0]
1000269e:	465b      	mov	r3, fp
100026a0:	5ce3      	ldrb	r3, [r4, r3]
100026a2:	4652      	mov	r2, sl
100026a4:	5ca1      	ldrb	r1, [r4, r2]
100026a6:	0209      	lsls	r1, r1, #8
100026a8:	4319      	orrs	r1, r3
100026aa:	464b      	mov	r3, r9
100026ac:	5ce2      	ldrb	r2, [r4, r3]
100026ae:	0412      	lsls	r2, r2, #16
100026b0:	4311      	orrs	r1, r2
100026b2:	4643      	mov	r3, r8
100026b4:	5ce3      	ldrb	r3, [r4, r3]
100026b6:	061b      	lsls	r3, r3, #24
100026b8:	430b      	orrs	r3, r1
100026ba:	59db      	ldr	r3, [r3, r7]
100026bc:	2b00      	cmp	r3, #0
100026be:	d1c9      	bne.n	10002654 <createGraph+0x3dc>
100026c0:	0020      	movs	r0, r4
100026c2:	f7ff fd9f 	bl	10002204 <destroyGraph>
100026c6:	484f      	ldr	r0, [pc, #316]	; (10002804 <createGraph+0x58c>)
100026c8:	f005 fcaa 	bl	10008020 <__wrap_printf>
100026cc:	e7c2      	b.n	10002654 <createGraph+0x3dc>
100026ce:	2004      	movs	r0, #4
100026d0:	f005 facc 	bl	10007c6c <__wrap_calloc>
100026d4:	7020      	strb	r0, [r4, #0]
100026d6:	0a03      	lsrs	r3, r0, #8
100026d8:	7063      	strb	r3, [r4, #1]
100026da:	0c03      	lsrs	r3, r0, #16
100026dc:	70a3      	strb	r3, [r4, #2]
100026de:	0e00      	lsrs	r0, r0, #24
100026e0:	70e0      	strb	r0, [r4, #3]
100026e2:	2600      	movs	r6, #0
100026e4:	e06a      	b.n	100027bc <createGraph+0x544>
100026e6:	7a21      	ldrb	r1, [r4, #8]
100026e8:	7a65      	ldrb	r5, [r4, #9]
100026ea:	022d      	lsls	r5, r5, #8
100026ec:	430d      	orrs	r5, r1
100026ee:	7aa0      	ldrb	r0, [r4, #10]
100026f0:	0400      	lsls	r0, r0, #16
100026f2:	4305      	orrs	r5, r0
100026f4:	7ae1      	ldrb	r1, [r4, #11]
100026f6:	0609      	lsls	r1, r1, #24
100026f8:	4329      	orrs	r1, r5
100026fa:	5889      	ldr	r1, [r1, r2]
100026fc:	18c9      	adds	r1, r1, r3
100026fe:	2700      	movs	r7, #0
10002700:	700f      	strb	r7, [r1, #0]
10002702:	7b21      	ldrb	r1, [r4, #12]
10002704:	7b65      	ldrb	r5, [r4, #13]
10002706:	022d      	lsls	r5, r5, #8
10002708:	430d      	orrs	r5, r1
1000270a:	7ba0      	ldrb	r0, [r4, #14]
1000270c:	0400      	lsls	r0, r0, #16
1000270e:	4305      	orrs	r5, r0
10002710:	7be1      	ldrb	r1, [r4, #15]
10002712:	0609      	lsls	r1, r1, #24
10002714:	4329      	orrs	r1, r5
10002716:	5889      	ldr	r1, [r1, r2]
10002718:	18c9      	adds	r1, r1, r3
1000271a:	700f      	strb	r7, [r1, #0]
1000271c:	7c21      	ldrb	r1, [r4, #16]
1000271e:	7c65      	ldrb	r5, [r4, #17]
10002720:	022d      	lsls	r5, r5, #8
10002722:	430d      	orrs	r5, r1
10002724:	7ca0      	ldrb	r0, [r4, #18]
10002726:	0400      	lsls	r0, r0, #16
10002728:	4305      	orrs	r5, r0
1000272a:	7ce1      	ldrb	r1, [r4, #19]
1000272c:	0609      	lsls	r1, r1, #24
1000272e:	4329      	orrs	r1, r5
10002730:	5889      	ldr	r1, [r1, r2]
10002732:	18c9      	adds	r1, r1, r3
10002734:	700f      	strb	r7, [r1, #0]
10002736:	7d21      	ldrb	r1, [r4, #20]
10002738:	7d65      	ldrb	r5, [r4, #21]
1000273a:	022d      	lsls	r5, r5, #8
1000273c:	430d      	orrs	r5, r1
1000273e:	7da0      	ldrb	r0, [r4, #22]
10002740:	0400      	lsls	r0, r0, #16
10002742:	4305      	orrs	r5, r0
10002744:	7de1      	ldrb	r1, [r4, #23]
10002746:	0609      	lsls	r1, r1, #24
10002748:	4329      	orrs	r1, r5
1000274a:	5889      	ldr	r1, [r1, r2]
1000274c:	374e      	adds	r7, #78	; 0x4e
1000274e:	54cf      	strb	r7, [r1, r3]
10002750:	7e21      	ldrb	r1, [r4, #24]
10002752:	7e65      	ldrb	r5, [r4, #25]
10002754:	022d      	lsls	r5, r5, #8
10002756:	430d      	orrs	r5, r1
10002758:	7ea0      	ldrb	r0, [r4, #26]
1000275a:	0400      	lsls	r0, r0, #16
1000275c:	4305      	orrs	r5, r0
1000275e:	7ee1      	ldrb	r1, [r4, #27]
10002760:	0609      	lsls	r1, r1, #24
10002762:	4329      	orrs	r1, r5
10002764:	5889      	ldr	r1, [r1, r2]
10002766:	54cf      	strb	r7, [r1, r3]
10002768:	7f21      	ldrb	r1, [r4, #28]
1000276a:	7f65      	ldrb	r5, [r4, #29]
1000276c:	022d      	lsls	r5, r5, #8
1000276e:	430d      	orrs	r5, r1
10002770:	7fa0      	ldrb	r0, [r4, #30]
10002772:	0400      	lsls	r0, r0, #16
10002774:	4305      	orrs	r5, r0
10002776:	7fe1      	ldrb	r1, [r4, #31]
10002778:	0609      	lsls	r1, r1, #24
1000277a:	4329      	orrs	r1, r5
1000277c:	5889      	ldr	r1, [r1, r2]
1000277e:	54cf      	strb	r7, [r1, r3]
10002780:	2120      	movs	r1, #32
10002782:	5c61      	ldrb	r1, [r4, r1]
10002784:	2021      	movs	r0, #33	; 0x21
10002786:	5c25      	ldrb	r5, [r4, r0]
10002788:	022d      	lsls	r5, r5, #8
1000278a:	430d      	orrs	r5, r1
1000278c:	2122      	movs	r1, #34	; 0x22
1000278e:	5c60      	ldrb	r0, [r4, r1]
10002790:	0400      	lsls	r0, r0, #16
10002792:	4305      	orrs	r5, r0
10002794:	3101      	adds	r1, #1
10002796:	5c61      	ldrb	r1, [r4, r1]
10002798:	0609      	lsls	r1, r1, #24
1000279a:	4329      	orrs	r1, r5
1000279c:	5889      	ldr	r1, [r1, r2]
1000279e:	54cf      	strb	r7, [r1, r3]
100027a0:	3301      	adds	r3, #1
100027a2:	7921      	ldrb	r1, [r4, #4]
100027a4:	7965      	ldrb	r5, [r4, #5]
100027a6:	022d      	lsls	r5, r5, #8
100027a8:	430d      	orrs	r5, r1
100027aa:	79a0      	ldrb	r0, [r4, #6]
100027ac:	0400      	lsls	r0, r0, #16
100027ae:	4305      	orrs	r5, r0
100027b0:	79e1      	ldrb	r1, [r4, #7]
100027b2:	0609      	lsls	r1, r1, #24
100027b4:	4329      	orrs	r1, r5
100027b6:	4299      	cmp	r1, r3
100027b8:	dc95      	bgt.n	100026e6 <createGraph+0x46e>
100027ba:	3601      	adds	r6, #1
100027bc:	7923      	ldrb	r3, [r4, #4]
100027be:	7961      	ldrb	r1, [r4, #5]
100027c0:	0209      	lsls	r1, r1, #8
100027c2:	4319      	orrs	r1, r3
100027c4:	79a2      	ldrb	r2, [r4, #6]
100027c6:	0412      	lsls	r2, r2, #16
100027c8:	4311      	orrs	r1, r2
100027ca:	79e3      	ldrb	r3, [r4, #7]
100027cc:	061b      	lsls	r3, r3, #24
100027ce:	430b      	orrs	r3, r1
100027d0:	42b3      	cmp	r3, r6
100027d2:	dd0f      	ble.n	100027f4 <createGraph+0x57c>
100027d4:	7823      	ldrb	r3, [r4, #0]
100027d6:	7861      	ldrb	r1, [r4, #1]
100027d8:	0209      	lsls	r1, r1, #8
100027da:	4319      	orrs	r1, r3
100027dc:	78a2      	ldrb	r2, [r4, #2]
100027de:	0412      	lsls	r2, r2, #16
100027e0:	4311      	orrs	r1, r2
100027e2:	78e3      	ldrb	r3, [r4, #3]
100027e4:	061b      	lsls	r3, r3, #24
100027e6:	430b      	orrs	r3, r1
100027e8:	00b2      	lsls	r2, r6, #2
100027ea:	2163      	movs	r1, #99	; 0x63
100027ec:	4249      	negs	r1, r1
100027ee:	5099      	str	r1, [r3, r2]
100027f0:	2300      	movs	r3, #0
100027f2:	e7d6      	b.n	100027a2 <createGraph+0x52a>
100027f4:	0020      	movs	r0, r4
100027f6:	bcf0      	pop	{r4, r5, r6, r7}
100027f8:	46bb      	mov	fp, r7
100027fa:	46b2      	mov	sl, r6
100027fc:	46a9      	mov	r9, r5
100027fe:	46a0      	mov	r8, r4
10002800:	bdf8      	pop	{r3, r4, r5, r6, r7, pc}
10002802:	46c0      	nop			; (mov r8, r8)
10002804:	1000c540 	.word	0x1000c540

10002808 <printEdges>:
10002808:	b570      	push	{r4, r5, r6, lr}
1000280a:	0004      	movs	r4, r0
1000280c:	4833      	ldr	r0, [pc, #204]	; (100028dc <printEdges+0xd4>)
1000280e:	f005 fbd5 	bl	10007fbc <__wrap_puts>
10002812:	4833      	ldr	r0, [pc, #204]	; (100028e0 <printEdges+0xd8>)
10002814:	f005 fc04 	bl	10008020 <__wrap_printf>
10002818:	2500      	movs	r5, #0
1000281a:	e004      	b.n	10002826 <printEdges+0x1e>
1000281c:	0029      	movs	r1, r5
1000281e:	4831      	ldr	r0, [pc, #196]	; (100028e4 <printEdges+0xdc>)
10002820:	f005 fbfe 	bl	10008020 <__wrap_printf>
10002824:	3501      	adds	r5, #1
10002826:	7923      	ldrb	r3, [r4, #4]
10002828:	7961      	ldrb	r1, [r4, #5]
1000282a:	0209      	lsls	r1, r1, #8
1000282c:	4319      	orrs	r1, r3
1000282e:	79a2      	ldrb	r2, [r4, #6]
10002830:	0412      	lsls	r2, r2, #16
10002832:	4311      	orrs	r1, r2
10002834:	79e3      	ldrb	r3, [r4, #7]
10002836:	061b      	lsls	r3, r3, #24
10002838:	430b      	orrs	r3, r1
1000283a:	42ab      	cmp	r3, r5
1000283c:	dd07      	ble.n	1000284e <printEdges+0x46>
1000283e:	3b01      	subs	r3, #1
10002840:	42ab      	cmp	r3, r5
10002842:	d0eb      	beq.n	1000281c <printEdges+0x14>
10002844:	0029      	movs	r1, r5
10002846:	4828      	ldr	r0, [pc, #160]	; (100028e8 <printEdges+0xe0>)
10002848:	f005 fbea 	bl	10008020 <__wrap_printf>
1000284c:	e7ea      	b.n	10002824 <printEdges+0x1c>
1000284e:	2600      	movs	r6, #0
10002850:	e031      	b.n	100028b6 <printEdges+0xae>
10002852:	7a23      	ldrb	r3, [r4, #8]
10002854:	7a61      	ldrb	r1, [r4, #9]
10002856:	0209      	lsls	r1, r1, #8
10002858:	4319      	orrs	r1, r3
1000285a:	7aa2      	ldrb	r2, [r4, #10]
1000285c:	0412      	lsls	r2, r2, #16
1000285e:	4311      	orrs	r1, r2
10002860:	7ae3      	ldrb	r3, [r4, #11]
10002862:	061b      	lsls	r3, r3, #24
10002864:	430b      	orrs	r3, r1
10002866:	00b2      	lsls	r2, r6, #2
10002868:	58d3      	ldr	r3, [r2, r3]
1000286a:	5d59      	ldrb	r1, [r3, r5]
1000286c:	481e      	ldr	r0, [pc, #120]	; (100028e8 <printEdges+0xe0>)
1000286e:	f005 fbd7 	bl	10008020 <__wrap_printf>
10002872:	3501      	adds	r5, #1
10002874:	7923      	ldrb	r3, [r4, #4]
10002876:	7961      	ldrb	r1, [r4, #5]
10002878:	0209      	lsls	r1, r1, #8
1000287a:	4319      	orrs	r1, r3
1000287c:	79a2      	ldrb	r2, [r4, #6]
1000287e:	0412      	lsls	r2, r2, #16
10002880:	4311      	orrs	r1, r2
10002882:	79e3      	ldrb	r3, [r4, #7]
10002884:	061b      	lsls	r3, r3, #24
10002886:	430b      	orrs	r3, r1
10002888:	42ab      	cmp	r3, r5
1000288a:	dd13      	ble.n	100028b4 <printEdges+0xac>
1000288c:	3b01      	subs	r3, #1
1000288e:	42ab      	cmp	r3, r5
10002890:	d1df      	bne.n	10002852 <printEdges+0x4a>
10002892:	7a23      	ldrb	r3, [r4, #8]
10002894:	7a61      	ldrb	r1, [r4, #9]
10002896:	0209      	lsls	r1, r1, #8
10002898:	4319      	orrs	r1, r3
1000289a:	7aa2      	ldrb	r2, [r4, #10]
1000289c:	0412      	lsls	r2, r2, #16
1000289e:	4311      	orrs	r1, r2
100028a0:	7ae3      	ldrb	r3, [r4, #11]
100028a2:	061b      	lsls	r3, r3, #24
100028a4:	430b      	orrs	r3, r1
100028a6:	00b2      	lsls	r2, r6, #2
100028a8:	58d3      	ldr	r3, [r2, r3]
100028aa:	5d59      	ldrb	r1, [r3, r5]
100028ac:	480d      	ldr	r0, [pc, #52]	; (100028e4 <printEdges+0xdc>)
100028ae:	f005 fbb7 	bl	10008020 <__wrap_printf>
100028b2:	e7de      	b.n	10002872 <printEdges+0x6a>
100028b4:	3601      	adds	r6, #1
100028b6:	7923      	ldrb	r3, [r4, #4]
100028b8:	7961      	ldrb	r1, [r4, #5]
100028ba:	0209      	lsls	r1, r1, #8
100028bc:	4319      	orrs	r1, r3
100028be:	79a2      	ldrb	r2, [r4, #6]
100028c0:	0412      	lsls	r2, r2, #16
100028c2:	4311      	orrs	r1, r2
100028c4:	79e3      	ldrb	r3, [r4, #7]
100028c6:	061b      	lsls	r3, r3, #24
100028c8:	430b      	orrs	r3, r1
100028ca:	42b3      	cmp	r3, r6
100028cc:	dd05      	ble.n	100028da <printEdges+0xd2>
100028ce:	0031      	movs	r1, r6
100028d0:	4805      	ldr	r0, [pc, #20]	; (100028e8 <printEdges+0xe0>)
100028d2:	f005 fba5 	bl	10008020 <__wrap_printf>
100028d6:	2500      	movs	r5, #0
100028d8:	e7cc      	b.n	10002874 <printEdges+0x6c>
100028da:	bd70      	pop	{r4, r5, r6, pc}
100028dc:	1000c570 	.word	0x1000c570
100028e0:	1000c580 	.word	0x1000c580
100028e4:	1000c584 	.word	0x1000c584
100028e8:	1000c58c 	.word	0x1000c58c

100028ec <printDirectionsWhenNorth>:
100028ec:	b570      	push	{r4, r5, r6, lr}
100028ee:	0004      	movs	r4, r0
100028f0:	4833      	ldr	r0, [pc, #204]	; (100029c0 <printDirectionsWhenNorth+0xd4>)
100028f2:	f005 fb63 	bl	10007fbc <__wrap_puts>
100028f6:	4833      	ldr	r0, [pc, #204]	; (100029c4 <printDirectionsWhenNorth+0xd8>)
100028f8:	f005 fb92 	bl	10008020 <__wrap_printf>
100028fc:	2500      	movs	r5, #0
100028fe:	e004      	b.n	1000290a <printDirectionsWhenNorth+0x1e>
10002900:	0029      	movs	r1, r5
10002902:	4831      	ldr	r0, [pc, #196]	; (100029c8 <printDirectionsWhenNorth+0xdc>)
10002904:	f005 fb8c 	bl	10008020 <__wrap_printf>
10002908:	3501      	adds	r5, #1
1000290a:	7923      	ldrb	r3, [r4, #4]
1000290c:	7961      	ldrb	r1, [r4, #5]
1000290e:	0209      	lsls	r1, r1, #8
10002910:	4319      	orrs	r1, r3
10002912:	79a2      	ldrb	r2, [r4, #6]
10002914:	0412      	lsls	r2, r2, #16
10002916:	4311      	orrs	r1, r2
10002918:	79e3      	ldrb	r3, [r4, #7]
1000291a:	061b      	lsls	r3, r3, #24
1000291c:	430b      	orrs	r3, r1
1000291e:	42ab      	cmp	r3, r5
10002920:	dd07      	ble.n	10002932 <printDirectionsWhenNorth+0x46>
10002922:	3b01      	subs	r3, #1
10002924:	42ab      	cmp	r3, r5
10002926:	d0eb      	beq.n	10002900 <printDirectionsWhenNorth+0x14>
10002928:	0029      	movs	r1, r5
1000292a:	4828      	ldr	r0, [pc, #160]	; (100029cc <printDirectionsWhenNorth+0xe0>)
1000292c:	f005 fb78 	bl	10008020 <__wrap_printf>
10002930:	e7ea      	b.n	10002908 <printDirectionsWhenNorth+0x1c>
10002932:	2600      	movs	r6, #0
10002934:	e031      	b.n	1000299a <printDirectionsWhenNorth+0xae>
10002936:	7d23      	ldrb	r3, [r4, #20]
10002938:	7d61      	ldrb	r1, [r4, #21]
1000293a:	0209      	lsls	r1, r1, #8
1000293c:	4319      	orrs	r1, r3
1000293e:	7da2      	ldrb	r2, [r4, #22]
10002940:	0412      	lsls	r2, r2, #16
10002942:	4311      	orrs	r1, r2
10002944:	7de3      	ldrb	r3, [r4, #23]
10002946:	061b      	lsls	r3, r3, #24
10002948:	430b      	orrs	r3, r1
1000294a:	00b2      	lsls	r2, r6, #2
1000294c:	58d3      	ldr	r3, [r2, r3]
1000294e:	5d59      	ldrb	r1, [r3, r5]
10002950:	481f      	ldr	r0, [pc, #124]	; (100029d0 <printDirectionsWhenNorth+0xe4>)
10002952:	f005 fb65 	bl	10008020 <__wrap_printf>
10002956:	3501      	adds	r5, #1
10002958:	7923      	ldrb	r3, [r4, #4]
1000295a:	7961      	ldrb	r1, [r4, #5]
1000295c:	0209      	lsls	r1, r1, #8
1000295e:	4319      	orrs	r1, r3
10002960:	79a2      	ldrb	r2, [r4, #6]
10002962:	0412      	lsls	r2, r2, #16
10002964:	4311      	orrs	r1, r2
10002966:	79e3      	ldrb	r3, [r4, #7]
10002968:	061b      	lsls	r3, r3, #24
1000296a:	430b      	orrs	r3, r1
1000296c:	42ab      	cmp	r3, r5
1000296e:	dd13      	ble.n	10002998 <printDirectionsWhenNorth+0xac>
10002970:	3b01      	subs	r3, #1
10002972:	42ab      	cmp	r3, r5
10002974:	d1df      	bne.n	10002936 <printDirectionsWhenNorth+0x4a>
10002976:	7d23      	ldrb	r3, [r4, #20]
10002978:	7d61      	ldrb	r1, [r4, #21]
1000297a:	0209      	lsls	r1, r1, #8
1000297c:	4319      	orrs	r1, r3
1000297e:	7da2      	ldrb	r2, [r4, #22]
10002980:	0412      	lsls	r2, r2, #16
10002982:	4311      	orrs	r1, r2
10002984:	7de3      	ldrb	r3, [r4, #23]
10002986:	061b      	lsls	r3, r3, #24
10002988:	430b      	orrs	r3, r1
1000298a:	00b2      	lsls	r2, r6, #2
1000298c:	58d3      	ldr	r3, [r2, r3]
1000298e:	5d59      	ldrb	r1, [r3, r5]
10002990:	4810      	ldr	r0, [pc, #64]	; (100029d4 <printDirectionsWhenNorth+0xe8>)
10002992:	f005 fb45 	bl	10008020 <__wrap_printf>
10002996:	e7de      	b.n	10002956 <printDirectionsWhenNorth+0x6a>
10002998:	3601      	adds	r6, #1
1000299a:	7923      	ldrb	r3, [r4, #4]
1000299c:	7961      	ldrb	r1, [r4, #5]
1000299e:	0209      	lsls	r1, r1, #8
100029a0:	4319      	orrs	r1, r3
100029a2:	79a2      	ldrb	r2, [r4, #6]
100029a4:	0412      	lsls	r2, r2, #16
100029a6:	4311      	orrs	r1, r2
100029a8:	79e3      	ldrb	r3, [r4, #7]
100029aa:	061b      	lsls	r3, r3, #24
100029ac:	430b      	orrs	r3, r1
100029ae:	42b3      	cmp	r3, r6
100029b0:	dd05      	ble.n	100029be <printDirectionsWhenNorth+0xd2>
100029b2:	0031      	movs	r1, r6
100029b4:	4805      	ldr	r0, [pc, #20]	; (100029cc <printDirectionsWhenNorth+0xe0>)
100029b6:	f005 fb33 	bl	10008020 <__wrap_printf>
100029ba:	2500      	movs	r5, #0
100029bc:	e7cc      	b.n	10002958 <printDirectionsWhenNorth+0x6c>
100029be:	bd70      	pop	{r4, r5, r6, pc}
100029c0:	1000c594 	.word	0x1000c594
100029c4:	1000c580 	.word	0x1000c580
100029c8:	1000c584 	.word	0x1000c584
100029cc:	1000c58c 	.word	0x1000c58c
100029d0:	1000c5b8 	.word	0x1000c5b8
100029d4:	1000c5b0 	.word	0x1000c5b0

100029d8 <printDirectionsWhenSouth>:
100029d8:	b570      	push	{r4, r5, r6, lr}
100029da:	0004      	movs	r4, r0
100029dc:	4833      	ldr	r0, [pc, #204]	; (10002aac <printDirectionsWhenSouth+0xd4>)
100029de:	f005 faed 	bl	10007fbc <__wrap_puts>
100029e2:	4833      	ldr	r0, [pc, #204]	; (10002ab0 <printDirectionsWhenSouth+0xd8>)
100029e4:	f005 fb1c 	bl	10008020 <__wrap_printf>
100029e8:	2500      	movs	r5, #0
100029ea:	e004      	b.n	100029f6 <printDirectionsWhenSouth+0x1e>
100029ec:	0029      	movs	r1, r5
100029ee:	4831      	ldr	r0, [pc, #196]	; (10002ab4 <printDirectionsWhenSouth+0xdc>)
100029f0:	f005 fb16 	bl	10008020 <__wrap_printf>
100029f4:	3501      	adds	r5, #1
100029f6:	7923      	ldrb	r3, [r4, #4]
100029f8:	7961      	ldrb	r1, [r4, #5]
100029fa:	0209      	lsls	r1, r1, #8
100029fc:	4319      	orrs	r1, r3
100029fe:	79a2      	ldrb	r2, [r4, #6]
10002a00:	0412      	lsls	r2, r2, #16
10002a02:	4311      	orrs	r1, r2
10002a04:	79e3      	ldrb	r3, [r4, #7]
10002a06:	061b      	lsls	r3, r3, #24
10002a08:	430b      	orrs	r3, r1
10002a0a:	42ab      	cmp	r3, r5
10002a0c:	dd07      	ble.n	10002a1e <printDirectionsWhenSouth+0x46>
10002a0e:	3b01      	subs	r3, #1
10002a10:	42ab      	cmp	r3, r5
10002a12:	d0eb      	beq.n	100029ec <printDirectionsWhenSouth+0x14>
10002a14:	0029      	movs	r1, r5
10002a16:	4828      	ldr	r0, [pc, #160]	; (10002ab8 <printDirectionsWhenSouth+0xe0>)
10002a18:	f005 fb02 	bl	10008020 <__wrap_printf>
10002a1c:	e7ea      	b.n	100029f4 <printDirectionsWhenSouth+0x1c>
10002a1e:	2600      	movs	r6, #0
10002a20:	e031      	b.n	10002a86 <printDirectionsWhenSouth+0xae>
10002a22:	7e23      	ldrb	r3, [r4, #24]
10002a24:	7e61      	ldrb	r1, [r4, #25]
10002a26:	0209      	lsls	r1, r1, #8
10002a28:	4319      	orrs	r1, r3
10002a2a:	7ea2      	ldrb	r2, [r4, #26]
10002a2c:	0412      	lsls	r2, r2, #16
10002a2e:	4311      	orrs	r1, r2
10002a30:	7ee3      	ldrb	r3, [r4, #27]
10002a32:	061b      	lsls	r3, r3, #24
10002a34:	430b      	orrs	r3, r1
10002a36:	00b2      	lsls	r2, r6, #2
10002a38:	58d3      	ldr	r3, [r2, r3]
10002a3a:	5d59      	ldrb	r1, [r3, r5]
10002a3c:	481f      	ldr	r0, [pc, #124]	; (10002abc <printDirectionsWhenSouth+0xe4>)
10002a3e:	f005 faef 	bl	10008020 <__wrap_printf>
10002a42:	3501      	adds	r5, #1
10002a44:	7923      	ldrb	r3, [r4, #4]
10002a46:	7961      	ldrb	r1, [r4, #5]
10002a48:	0209      	lsls	r1, r1, #8
10002a4a:	4319      	orrs	r1, r3
10002a4c:	79a2      	ldrb	r2, [r4, #6]
10002a4e:	0412      	lsls	r2, r2, #16
10002a50:	4311      	orrs	r1, r2
10002a52:	79e3      	ldrb	r3, [r4, #7]
10002a54:	061b      	lsls	r3, r3, #24
10002a56:	430b      	orrs	r3, r1
10002a58:	42ab      	cmp	r3, r5
10002a5a:	dd13      	ble.n	10002a84 <printDirectionsWhenSouth+0xac>
10002a5c:	3b01      	subs	r3, #1
10002a5e:	42ab      	cmp	r3, r5
10002a60:	d1df      	bne.n	10002a22 <printDirectionsWhenSouth+0x4a>
10002a62:	7e23      	ldrb	r3, [r4, #24]
10002a64:	7e61      	ldrb	r1, [r4, #25]
10002a66:	0209      	lsls	r1, r1, #8
10002a68:	4319      	orrs	r1, r3
10002a6a:	7ea2      	ldrb	r2, [r4, #26]
10002a6c:	0412      	lsls	r2, r2, #16
10002a6e:	4311      	orrs	r1, r2
10002a70:	7ee3      	ldrb	r3, [r4, #27]
10002a72:	061b      	lsls	r3, r3, #24
10002a74:	430b      	orrs	r3, r1
10002a76:	00b2      	lsls	r2, r6, #2
10002a78:	58d3      	ldr	r3, [r2, r3]
10002a7a:	5d59      	ldrb	r1, [r3, r5]
10002a7c:	4810      	ldr	r0, [pc, #64]	; (10002ac0 <printDirectionsWhenSouth+0xe8>)
10002a7e:	f005 facf 	bl	10008020 <__wrap_printf>
10002a82:	e7de      	b.n	10002a42 <printDirectionsWhenSouth+0x6a>
10002a84:	3601      	adds	r6, #1
10002a86:	7923      	ldrb	r3, [r4, #4]
10002a88:	7961      	ldrb	r1, [r4, #5]
10002a8a:	0209      	lsls	r1, r1, #8
10002a8c:	4319      	orrs	r1, r3
10002a8e:	79a2      	ldrb	r2, [r4, #6]
10002a90:	0412      	lsls	r2, r2, #16
10002a92:	4311      	orrs	r1, r2
10002a94:	79e3      	ldrb	r3, [r4, #7]
10002a96:	061b      	lsls	r3, r3, #24
10002a98:	430b      	orrs	r3, r1
10002a9a:	42b3      	cmp	r3, r6
10002a9c:	dd05      	ble.n	10002aaa <printDirectionsWhenSouth+0xd2>
10002a9e:	0031      	movs	r1, r6
10002aa0:	4805      	ldr	r0, [pc, #20]	; (10002ab8 <printDirectionsWhenSouth+0xe0>)
10002aa2:	f005 fabd 	bl	10008020 <__wrap_printf>
10002aa6:	2500      	movs	r5, #0
10002aa8:	e7cc      	b.n	10002a44 <printDirectionsWhenSouth+0x6c>
10002aaa:	bd70      	pop	{r4, r5, r6, pc}
10002aac:	1000c5c0 	.word	0x1000c5c0
10002ab0:	1000c580 	.word	0x1000c580
10002ab4:	1000c584 	.word	0x1000c584
10002ab8:	1000c58c 	.word	0x1000c58c
10002abc:	1000c5b8 	.word	0x1000c5b8
10002ac0:	1000c5b0 	.word	0x1000c5b0

10002ac4 <printDirectionsWhenWest>:
10002ac4:	b570      	push	{r4, r5, r6, lr}
10002ac6:	0004      	movs	r4, r0
10002ac8:	4833      	ldr	r0, [pc, #204]	; (10002b98 <printDirectionsWhenWest+0xd4>)
10002aca:	f005 fa77 	bl	10007fbc <__wrap_puts>
10002ace:	4833      	ldr	r0, [pc, #204]	; (10002b9c <printDirectionsWhenWest+0xd8>)
10002ad0:	f005 faa6 	bl	10008020 <__wrap_printf>
10002ad4:	2500      	movs	r5, #0
10002ad6:	e004      	b.n	10002ae2 <printDirectionsWhenWest+0x1e>
10002ad8:	0029      	movs	r1, r5
10002ada:	4831      	ldr	r0, [pc, #196]	; (10002ba0 <printDirectionsWhenWest+0xdc>)
10002adc:	f005 faa0 	bl	10008020 <__wrap_printf>
10002ae0:	3501      	adds	r5, #1
10002ae2:	7923      	ldrb	r3, [r4, #4]
10002ae4:	7961      	ldrb	r1, [r4, #5]
10002ae6:	0209      	lsls	r1, r1, #8
10002ae8:	4319      	orrs	r1, r3
10002aea:	79a2      	ldrb	r2, [r4, #6]
10002aec:	0412      	lsls	r2, r2, #16
10002aee:	4311      	orrs	r1, r2
10002af0:	79e3      	ldrb	r3, [r4, #7]
10002af2:	061b      	lsls	r3, r3, #24
10002af4:	430b      	orrs	r3, r1
10002af6:	42ab      	cmp	r3, r5
10002af8:	dd07      	ble.n	10002b0a <printDirectionsWhenWest+0x46>
10002afa:	3b01      	subs	r3, #1
10002afc:	42ab      	cmp	r3, r5
10002afe:	d0eb      	beq.n	10002ad8 <printDirectionsWhenWest+0x14>
10002b00:	0029      	movs	r1, r5
10002b02:	4828      	ldr	r0, [pc, #160]	; (10002ba4 <printDirectionsWhenWest+0xe0>)
10002b04:	f005 fa8c 	bl	10008020 <__wrap_printf>
10002b08:	e7ea      	b.n	10002ae0 <printDirectionsWhenWest+0x1c>
10002b0a:	2600      	movs	r6, #0
10002b0c:	e031      	b.n	10002b72 <printDirectionsWhenWest+0xae>
10002b0e:	7f23      	ldrb	r3, [r4, #28]
10002b10:	7f61      	ldrb	r1, [r4, #29]
10002b12:	0209      	lsls	r1, r1, #8
10002b14:	4319      	orrs	r1, r3
10002b16:	7fa2      	ldrb	r2, [r4, #30]
10002b18:	0412      	lsls	r2, r2, #16
10002b1a:	4311      	orrs	r1, r2
10002b1c:	7fe3      	ldrb	r3, [r4, #31]
10002b1e:	061b      	lsls	r3, r3, #24
10002b20:	430b      	orrs	r3, r1
10002b22:	00b2      	lsls	r2, r6, #2
10002b24:	58d3      	ldr	r3, [r2, r3]
10002b26:	5d59      	ldrb	r1, [r3, r5]
10002b28:	481f      	ldr	r0, [pc, #124]	; (10002ba8 <printDirectionsWhenWest+0xe4>)
10002b2a:	f005 fa79 	bl	10008020 <__wrap_printf>
10002b2e:	3501      	adds	r5, #1
10002b30:	7923      	ldrb	r3, [r4, #4]
10002b32:	7961      	ldrb	r1, [r4, #5]
10002b34:	0209      	lsls	r1, r1, #8
10002b36:	4319      	orrs	r1, r3
10002b38:	79a2      	ldrb	r2, [r4, #6]
10002b3a:	0412      	lsls	r2, r2, #16
10002b3c:	4311      	orrs	r1, r2
10002b3e:	79e3      	ldrb	r3, [r4, #7]
10002b40:	061b      	lsls	r3, r3, #24
10002b42:	430b      	orrs	r3, r1
10002b44:	42ab      	cmp	r3, r5
10002b46:	dd13      	ble.n	10002b70 <printDirectionsWhenWest+0xac>
10002b48:	3b01      	subs	r3, #1
10002b4a:	42ab      	cmp	r3, r5
10002b4c:	d1df      	bne.n	10002b0e <printDirectionsWhenWest+0x4a>
10002b4e:	7f23      	ldrb	r3, [r4, #28]
10002b50:	7f61      	ldrb	r1, [r4, #29]
10002b52:	0209      	lsls	r1, r1, #8
10002b54:	4319      	orrs	r1, r3
10002b56:	7fa2      	ldrb	r2, [r4, #30]
10002b58:	0412      	lsls	r2, r2, #16
10002b5a:	4311      	orrs	r1, r2
10002b5c:	7fe3      	ldrb	r3, [r4, #31]
10002b5e:	061b      	lsls	r3, r3, #24
10002b60:	430b      	orrs	r3, r1
10002b62:	00b2      	lsls	r2, r6, #2
10002b64:	58d3      	ldr	r3, [r2, r3]
10002b66:	5d59      	ldrb	r1, [r3, r5]
10002b68:	4810      	ldr	r0, [pc, #64]	; (10002bac <printDirectionsWhenWest+0xe8>)
10002b6a:	f005 fa59 	bl	10008020 <__wrap_printf>
10002b6e:	e7de      	b.n	10002b2e <printDirectionsWhenWest+0x6a>
10002b70:	3601      	adds	r6, #1
10002b72:	7923      	ldrb	r3, [r4, #4]
10002b74:	7961      	ldrb	r1, [r4, #5]
10002b76:	0209      	lsls	r1, r1, #8
10002b78:	4319      	orrs	r1, r3
10002b7a:	79a2      	ldrb	r2, [r4, #6]
10002b7c:	0412      	lsls	r2, r2, #16
10002b7e:	4311      	orrs	r1, r2
10002b80:	79e3      	ldrb	r3, [r4, #7]
10002b82:	061b      	lsls	r3, r3, #24
10002b84:	430b      	orrs	r3, r1
10002b86:	42b3      	cmp	r3, r6
10002b88:	dd05      	ble.n	10002b96 <printDirectionsWhenWest+0xd2>
10002b8a:	0031      	movs	r1, r6
10002b8c:	4805      	ldr	r0, [pc, #20]	; (10002ba4 <printDirectionsWhenWest+0xe0>)
10002b8e:	f005 fa47 	bl	10008020 <__wrap_printf>
10002b92:	2500      	movs	r5, #0
10002b94:	e7cc      	b.n	10002b30 <printDirectionsWhenWest+0x6c>
10002b96:	bd70      	pop	{r4, r5, r6, pc}
10002b98:	1000c5dc 	.word	0x1000c5dc
10002b9c:	1000c580 	.word	0x1000c580
10002ba0:	1000c584 	.word	0x1000c584
10002ba4:	1000c58c 	.word	0x1000c58c
10002ba8:	1000c5b8 	.word	0x1000c5b8
10002bac:	1000c5b0 	.word	0x1000c5b0

10002bb0 <printDirectionsWhenEast>:
10002bb0:	b570      	push	{r4, r5, r6, lr}
10002bb2:	0004      	movs	r4, r0
10002bb4:	4837      	ldr	r0, [pc, #220]	; (10002c94 <printDirectionsWhenEast+0xe4>)
10002bb6:	f005 fa01 	bl	10007fbc <__wrap_puts>
10002bba:	4837      	ldr	r0, [pc, #220]	; (10002c98 <printDirectionsWhenEast+0xe8>)
10002bbc:	f005 fa30 	bl	10008020 <__wrap_printf>
10002bc0:	2500      	movs	r5, #0
10002bc2:	e004      	b.n	10002bce <printDirectionsWhenEast+0x1e>
10002bc4:	0029      	movs	r1, r5
10002bc6:	4835      	ldr	r0, [pc, #212]	; (10002c9c <printDirectionsWhenEast+0xec>)
10002bc8:	f005 fa2a 	bl	10008020 <__wrap_printf>
10002bcc:	3501      	adds	r5, #1
10002bce:	7923      	ldrb	r3, [r4, #4]
10002bd0:	7961      	ldrb	r1, [r4, #5]
10002bd2:	0209      	lsls	r1, r1, #8
10002bd4:	4319      	orrs	r1, r3
10002bd6:	79a2      	ldrb	r2, [r4, #6]
10002bd8:	0412      	lsls	r2, r2, #16
10002bda:	4311      	orrs	r1, r2
10002bdc:	79e3      	ldrb	r3, [r4, #7]
10002bde:	061b      	lsls	r3, r3, #24
10002be0:	430b      	orrs	r3, r1
10002be2:	42ab      	cmp	r3, r5
10002be4:	dd07      	ble.n	10002bf6 <printDirectionsWhenEast+0x46>
10002be6:	3b01      	subs	r3, #1
10002be8:	42ab      	cmp	r3, r5
10002bea:	d0eb      	beq.n	10002bc4 <printDirectionsWhenEast+0x14>
10002bec:	0029      	movs	r1, r5
10002bee:	482c      	ldr	r0, [pc, #176]	; (10002ca0 <printDirectionsWhenEast+0xf0>)
10002bf0:	f005 fa16 	bl	10008020 <__wrap_printf>
10002bf4:	e7ea      	b.n	10002bcc <printDirectionsWhenEast+0x1c>
10002bf6:	2600      	movs	r6, #0
10002bf8:	e039      	b.n	10002c6e <printDirectionsWhenEast+0xbe>
10002bfa:	2320      	movs	r3, #32
10002bfc:	5ce3      	ldrb	r3, [r4, r3]
10002bfe:	2221      	movs	r2, #33	; 0x21
10002c00:	5ca1      	ldrb	r1, [r4, r2]
10002c02:	0209      	lsls	r1, r1, #8
10002c04:	4319      	orrs	r1, r3
10002c06:	2322      	movs	r3, #34	; 0x22
10002c08:	5ce2      	ldrb	r2, [r4, r3]
10002c0a:	0412      	lsls	r2, r2, #16
10002c0c:	4311      	orrs	r1, r2
10002c0e:	3301      	adds	r3, #1
10002c10:	5ce3      	ldrb	r3, [r4, r3]
10002c12:	061b      	lsls	r3, r3, #24
10002c14:	430b      	orrs	r3, r1
10002c16:	00b2      	lsls	r2, r6, #2
10002c18:	58d3      	ldr	r3, [r2, r3]
10002c1a:	5d59      	ldrb	r1, [r3, r5]
10002c1c:	4821      	ldr	r0, [pc, #132]	; (10002ca4 <printDirectionsWhenEast+0xf4>)
10002c1e:	f005 f9ff 	bl	10008020 <__wrap_printf>
10002c22:	3501      	adds	r5, #1
10002c24:	7923      	ldrb	r3, [r4, #4]
10002c26:	7961      	ldrb	r1, [r4, #5]
10002c28:	0209      	lsls	r1, r1, #8
10002c2a:	4319      	orrs	r1, r3
10002c2c:	79a2      	ldrb	r2, [r4, #6]
10002c2e:	0412      	lsls	r2, r2, #16
10002c30:	4311      	orrs	r1, r2
10002c32:	79e3      	ldrb	r3, [r4, #7]
10002c34:	061b      	lsls	r3, r3, #24
10002c36:	430b      	orrs	r3, r1
10002c38:	42ab      	cmp	r3, r5
10002c3a:	dd17      	ble.n	10002c6c <printDirectionsWhenEast+0xbc>
10002c3c:	3b01      	subs	r3, #1
10002c3e:	42ab      	cmp	r3, r5
10002c40:	d1db      	bne.n	10002bfa <printDirectionsWhenEast+0x4a>
10002c42:	2320      	movs	r3, #32
10002c44:	5ce3      	ldrb	r3, [r4, r3]
10002c46:	2221      	movs	r2, #33	; 0x21
10002c48:	5ca1      	ldrb	r1, [r4, r2]
10002c4a:	0209      	lsls	r1, r1, #8
10002c4c:	4319      	orrs	r1, r3
10002c4e:	2322      	movs	r3, #34	; 0x22
10002c50:	5ce2      	ldrb	r2, [r4, r3]
10002c52:	0412      	lsls	r2, r2, #16
10002c54:	4311      	orrs	r1, r2
10002c56:	3301      	adds	r3, #1
10002c58:	5ce3      	ldrb	r3, [r4, r3]
10002c5a:	061b      	lsls	r3, r3, #24
10002c5c:	430b      	orrs	r3, r1
10002c5e:	00b2      	lsls	r2, r6, #2
10002c60:	58d3      	ldr	r3, [r2, r3]
10002c62:	5d59      	ldrb	r1, [r3, r5]
10002c64:	4810      	ldr	r0, [pc, #64]	; (10002ca8 <printDirectionsWhenEast+0xf8>)
10002c66:	f005 f9db 	bl	10008020 <__wrap_printf>
10002c6a:	e7da      	b.n	10002c22 <printDirectionsWhenEast+0x72>
10002c6c:	3601      	adds	r6, #1
10002c6e:	7923      	ldrb	r3, [r4, #4]
10002c70:	7961      	ldrb	r1, [r4, #5]
10002c72:	0209      	lsls	r1, r1, #8
10002c74:	4319      	orrs	r1, r3
10002c76:	79a2      	ldrb	r2, [r4, #6]
10002c78:	0412      	lsls	r2, r2, #16
10002c7a:	4311      	orrs	r1, r2
10002c7c:	79e3      	ldrb	r3, [r4, #7]
10002c7e:	061b      	lsls	r3, r3, #24
10002c80:	430b      	orrs	r3, r1
10002c82:	42b3      	cmp	r3, r6
10002c84:	dd05      	ble.n	10002c92 <printDirectionsWhenEast+0xe2>
10002c86:	0031      	movs	r1, r6
10002c88:	4805      	ldr	r0, [pc, #20]	; (10002ca0 <printDirectionsWhenEast+0xf0>)
10002c8a:	f005 f9c9 	bl	10008020 <__wrap_printf>
10002c8e:	2500      	movs	r5, #0
10002c90:	e7c8      	b.n	10002c24 <printDirectionsWhenEast+0x74>
10002c92:	bd70      	pop	{r4, r5, r6, pc}
10002c94:	1000c5f8 	.word	0x1000c5f8
10002c98:	1000c580 	.word	0x1000c580
10002c9c:	1000c584 	.word	0x1000c584
10002ca0:	1000c58c 	.word	0x1000c58c
10002ca4:	1000c5b8 	.word	0x1000c5b8
10002ca8:	1000c5b0 	.word	0x1000c5b0

10002cac <printBarcodes>:
10002cac:	b570      	push	{r4, r5, r6, lr}
10002cae:	0004      	movs	r4, r0
10002cb0:	4833      	ldr	r0, [pc, #204]	; (10002d80 <printBarcodes+0xd4>)
10002cb2:	f005 f983 	bl	10007fbc <__wrap_puts>
10002cb6:	4833      	ldr	r0, [pc, #204]	; (10002d84 <printBarcodes+0xd8>)
10002cb8:	f005 f9b2 	bl	10008020 <__wrap_printf>
10002cbc:	2500      	movs	r5, #0
10002cbe:	e004      	b.n	10002cca <printBarcodes+0x1e>
10002cc0:	0029      	movs	r1, r5
10002cc2:	4831      	ldr	r0, [pc, #196]	; (10002d88 <printBarcodes+0xdc>)
10002cc4:	f005 f9ac 	bl	10008020 <__wrap_printf>
10002cc8:	3501      	adds	r5, #1
10002cca:	7923      	ldrb	r3, [r4, #4]
10002ccc:	7961      	ldrb	r1, [r4, #5]
10002cce:	0209      	lsls	r1, r1, #8
10002cd0:	4319      	orrs	r1, r3
10002cd2:	79a2      	ldrb	r2, [r4, #6]
10002cd4:	0412      	lsls	r2, r2, #16
10002cd6:	4311      	orrs	r1, r2
10002cd8:	79e3      	ldrb	r3, [r4, #7]
10002cda:	061b      	lsls	r3, r3, #24
10002cdc:	430b      	orrs	r3, r1
10002cde:	42ab      	cmp	r3, r5
10002ce0:	dd07      	ble.n	10002cf2 <printBarcodes+0x46>
10002ce2:	3b01      	subs	r3, #1
10002ce4:	42ab      	cmp	r3, r5
10002ce6:	d0eb      	beq.n	10002cc0 <printBarcodes+0x14>
10002ce8:	0029      	movs	r1, r5
10002cea:	4828      	ldr	r0, [pc, #160]	; (10002d8c <printBarcodes+0xe0>)
10002cec:	f005 f998 	bl	10008020 <__wrap_printf>
10002cf0:	e7ea      	b.n	10002cc8 <printBarcodes+0x1c>
10002cf2:	2600      	movs	r6, #0
10002cf4:	e031      	b.n	10002d5a <printBarcodes+0xae>
10002cf6:	7b23      	ldrb	r3, [r4, #12]
10002cf8:	7b61      	ldrb	r1, [r4, #13]
10002cfa:	0209      	lsls	r1, r1, #8
10002cfc:	4319      	orrs	r1, r3
10002cfe:	7ba2      	ldrb	r2, [r4, #14]
10002d00:	0412      	lsls	r2, r2, #16
10002d02:	4311      	orrs	r1, r2
10002d04:	7be3      	ldrb	r3, [r4, #15]
10002d06:	061b      	lsls	r3, r3, #24
10002d08:	430b      	orrs	r3, r1
10002d0a:	00b2      	lsls	r2, r6, #2
10002d0c:	58d3      	ldr	r3, [r2, r3]
10002d0e:	5d59      	ldrb	r1, [r3, r5]
10002d10:	481e      	ldr	r0, [pc, #120]	; (10002d8c <printBarcodes+0xe0>)
10002d12:	f005 f985 	bl	10008020 <__wrap_printf>
10002d16:	3501      	adds	r5, #1
10002d18:	7923      	ldrb	r3, [r4, #4]
10002d1a:	7961      	ldrb	r1, [r4, #5]
10002d1c:	0209      	lsls	r1, r1, #8
10002d1e:	4319      	orrs	r1, r3
10002d20:	79a2      	ldrb	r2, [r4, #6]
10002d22:	0412      	lsls	r2, r2, #16
10002d24:	4311      	orrs	r1, r2
10002d26:	79e3      	ldrb	r3, [r4, #7]
10002d28:	061b      	lsls	r3, r3, #24
10002d2a:	430b      	orrs	r3, r1
10002d2c:	42ab      	cmp	r3, r5
10002d2e:	dd13      	ble.n	10002d58 <printBarcodes+0xac>
10002d30:	3b01      	subs	r3, #1
10002d32:	42ab      	cmp	r3, r5
10002d34:	d1df      	bne.n	10002cf6 <printBarcodes+0x4a>
10002d36:	7b23      	ldrb	r3, [r4, #12]
10002d38:	7b61      	ldrb	r1, [r4, #13]
10002d3a:	0209      	lsls	r1, r1, #8
10002d3c:	4319      	orrs	r1, r3
10002d3e:	7ba2      	ldrb	r2, [r4, #14]
10002d40:	0412      	lsls	r2, r2, #16
10002d42:	4311      	orrs	r1, r2
10002d44:	7be3      	ldrb	r3, [r4, #15]
10002d46:	061b      	lsls	r3, r3, #24
10002d48:	430b      	orrs	r3, r1
10002d4a:	00b2      	lsls	r2, r6, #2
10002d4c:	58d3      	ldr	r3, [r2, r3]
10002d4e:	5d59      	ldrb	r1, [r3, r5]
10002d50:	480d      	ldr	r0, [pc, #52]	; (10002d88 <printBarcodes+0xdc>)
10002d52:	f005 f965 	bl	10008020 <__wrap_printf>
10002d56:	e7de      	b.n	10002d16 <printBarcodes+0x6a>
10002d58:	3601      	adds	r6, #1
10002d5a:	7923      	ldrb	r3, [r4, #4]
10002d5c:	7961      	ldrb	r1, [r4, #5]
10002d5e:	0209      	lsls	r1, r1, #8
10002d60:	4319      	orrs	r1, r3
10002d62:	79a2      	ldrb	r2, [r4, #6]
10002d64:	0412      	lsls	r2, r2, #16
10002d66:	4311      	orrs	r1, r2
10002d68:	79e3      	ldrb	r3, [r4, #7]
10002d6a:	061b      	lsls	r3, r3, #24
10002d6c:	430b      	orrs	r3, r1
10002d6e:	42b3      	cmp	r3, r6
10002d70:	dd05      	ble.n	10002d7e <printBarcodes+0xd2>
10002d72:	0031      	movs	r1, r6
10002d74:	4805      	ldr	r0, [pc, #20]	; (10002d8c <printBarcodes+0xe0>)
10002d76:	f005 f953 	bl	10008020 <__wrap_printf>
10002d7a:	2500      	movs	r5, #0
10002d7c:	e7cc      	b.n	10002d18 <printBarcodes+0x6c>
10002d7e:	bd70      	pop	{r4, r5, r6, pc}
10002d80:	1000c614 	.word	0x1000c614
10002d84:	1000c580 	.word	0x1000c580
10002d88:	1000c584 	.word	0x1000c584
10002d8c:	1000c58c 	.word	0x1000c58c

10002d90 <printHumps>:
10002d90:	b570      	push	{r4, r5, r6, lr}
10002d92:	0004      	movs	r4, r0
10002d94:	4833      	ldr	r0, [pc, #204]	; (10002e64 <printHumps+0xd4>)
10002d96:	f005 f911 	bl	10007fbc <__wrap_puts>
10002d9a:	4833      	ldr	r0, [pc, #204]	; (10002e68 <printHumps+0xd8>)
10002d9c:	f005 f940 	bl	10008020 <__wrap_printf>
10002da0:	2500      	movs	r5, #0
10002da2:	e004      	b.n	10002dae <printHumps+0x1e>
10002da4:	0029      	movs	r1, r5
10002da6:	4831      	ldr	r0, [pc, #196]	; (10002e6c <printHumps+0xdc>)
10002da8:	f005 f93a 	bl	10008020 <__wrap_printf>
10002dac:	3501      	adds	r5, #1
10002dae:	7923      	ldrb	r3, [r4, #4]
10002db0:	7961      	ldrb	r1, [r4, #5]
10002db2:	0209      	lsls	r1, r1, #8
10002db4:	4319      	orrs	r1, r3
10002db6:	79a2      	ldrb	r2, [r4, #6]
10002db8:	0412      	lsls	r2, r2, #16
10002dba:	4311      	orrs	r1, r2
10002dbc:	79e3      	ldrb	r3, [r4, #7]
10002dbe:	061b      	lsls	r3, r3, #24
10002dc0:	430b      	orrs	r3, r1
10002dc2:	42ab      	cmp	r3, r5
10002dc4:	dd07      	ble.n	10002dd6 <printHumps+0x46>
10002dc6:	3b01      	subs	r3, #1
10002dc8:	42ab      	cmp	r3, r5
10002dca:	d0eb      	beq.n	10002da4 <printHumps+0x14>
10002dcc:	0029      	movs	r1, r5
10002dce:	4828      	ldr	r0, [pc, #160]	; (10002e70 <printHumps+0xe0>)
10002dd0:	f005 f926 	bl	10008020 <__wrap_printf>
10002dd4:	e7ea      	b.n	10002dac <printHumps+0x1c>
10002dd6:	2600      	movs	r6, #0
10002dd8:	e031      	b.n	10002e3e <printHumps+0xae>
10002dda:	7c23      	ldrb	r3, [r4, #16]
10002ddc:	7c61      	ldrb	r1, [r4, #17]
10002dde:	0209      	lsls	r1, r1, #8
10002de0:	4319      	orrs	r1, r3
10002de2:	7ca2      	ldrb	r2, [r4, #18]
10002de4:	0412      	lsls	r2, r2, #16
10002de6:	4311      	orrs	r1, r2
10002de8:	7ce3      	ldrb	r3, [r4, #19]
10002dea:	061b      	lsls	r3, r3, #24
10002dec:	430b      	orrs	r3, r1
10002dee:	00b2      	lsls	r2, r6, #2
10002df0:	58d3      	ldr	r3, [r2, r3]
10002df2:	5d59      	ldrb	r1, [r3, r5]
10002df4:	481e      	ldr	r0, [pc, #120]	; (10002e70 <printHumps+0xe0>)
10002df6:	f005 f913 	bl	10008020 <__wrap_printf>
10002dfa:	3501      	adds	r5, #1
10002dfc:	7923      	ldrb	r3, [r4, #4]
10002dfe:	7961      	ldrb	r1, [r4, #5]
10002e00:	0209      	lsls	r1, r1, #8
10002e02:	4319      	orrs	r1, r3
10002e04:	79a2      	ldrb	r2, [r4, #6]
10002e06:	0412      	lsls	r2, r2, #16
10002e08:	4311      	orrs	r1, r2
10002e0a:	79e3      	ldrb	r3, [r4, #7]
10002e0c:	061b      	lsls	r3, r3, #24
10002e0e:	430b      	orrs	r3, r1
10002e10:	42ab      	cmp	r3, r5
10002e12:	dd13      	ble.n	10002e3c <printHumps+0xac>
10002e14:	3b01      	subs	r3, #1
10002e16:	42ab      	cmp	r3, r5
10002e18:	d1df      	bne.n	10002dda <printHumps+0x4a>
10002e1a:	7c23      	ldrb	r3, [r4, #16]
10002e1c:	7c61      	ldrb	r1, [r4, #17]
10002e1e:	0209      	lsls	r1, r1, #8
10002e20:	4319      	orrs	r1, r3
10002e22:	7ca2      	ldrb	r2, [r4, #18]
10002e24:	0412      	lsls	r2, r2, #16
10002e26:	4311      	orrs	r1, r2
10002e28:	7ce3      	ldrb	r3, [r4, #19]
10002e2a:	061b      	lsls	r3, r3, #24
10002e2c:	430b      	orrs	r3, r1
10002e2e:	00b2      	lsls	r2, r6, #2
10002e30:	58d3      	ldr	r3, [r2, r3]
10002e32:	5d59      	ldrb	r1, [r3, r5]
10002e34:	480d      	ldr	r0, [pc, #52]	; (10002e6c <printHumps+0xdc>)
10002e36:	f005 f8f3 	bl	10008020 <__wrap_printf>
10002e3a:	e7de      	b.n	10002dfa <printHumps+0x6a>
10002e3c:	3601      	adds	r6, #1
10002e3e:	7923      	ldrb	r3, [r4, #4]
10002e40:	7961      	ldrb	r1, [r4, #5]
10002e42:	0209      	lsls	r1, r1, #8
10002e44:	4319      	orrs	r1, r3
10002e46:	79a2      	ldrb	r2, [r4, #6]
10002e48:	0412      	lsls	r2, r2, #16
10002e4a:	4311      	orrs	r1, r2
10002e4c:	79e3      	ldrb	r3, [r4, #7]
10002e4e:	061b      	lsls	r3, r3, #24
10002e50:	430b      	orrs	r3, r1
10002e52:	42b3      	cmp	r3, r6
10002e54:	dd05      	ble.n	10002e62 <printHumps+0xd2>
10002e56:	0031      	movs	r1, r6
10002e58:	4805      	ldr	r0, [pc, #20]	; (10002e70 <printHumps+0xe0>)
10002e5a:	f005 f8e1 	bl	10008020 <__wrap_printf>
10002e5e:	2500      	movs	r5, #0
10002e60:	e7cc      	b.n	10002dfc <printHumps+0x6c>
10002e62:	bd70      	pop	{r4, r5, r6, pc}
10002e64:	1000c624 	.word	0x1000c624
10002e68:	1000c580 	.word	0x1000c580
10002e6c:	1000c584 	.word	0x1000c584
10002e70:	1000c58c 	.word	0x1000c58c

10002e74 <hasDirectionNorth>:
10002e74:	b530      	push	{r4, r5, lr}
10002e76:	7d03      	ldrb	r3, [r0, #20]
10002e78:	7d44      	ldrb	r4, [r0, #21]
10002e7a:	0224      	lsls	r4, r4, #8
10002e7c:	431c      	orrs	r4, r3
10002e7e:	7d85      	ldrb	r5, [r0, #22]
10002e80:	042d      	lsls	r5, r5, #16
10002e82:	432c      	orrs	r4, r5
10002e84:	7dc3      	ldrb	r3, [r0, #23]
10002e86:	061b      	lsls	r3, r3, #24
10002e88:	4323      	orrs	r3, r4
10002e8a:	0089      	lsls	r1, r1, #2
10002e8c:	58cb      	ldr	r3, [r1, r3]
10002e8e:	5c98      	ldrb	r0, [r3, r2]
10002e90:	bd30      	pop	{r4, r5, pc}

10002e92 <addDirectionNorth>:
10002e92:	b5f8      	push	{r3, r4, r5, r6, r7, lr}
10002e94:	0004      	movs	r4, r0
10002e96:	000e      	movs	r6, r1
10002e98:	0015      	movs	r5, r2
10002e9a:	001f      	movs	r7, r3
10002e9c:	f7ff ffea 	bl	10002e74 <hasDirectionNorth>
10002ea0:	284e      	cmp	r0, #78	; 0x4e
10002ea2:	d001      	beq.n	10002ea8 <addDirectionNorth+0x16>
10002ea4:	2000      	movs	r0, #0
10002ea6:	bdf8      	pop	{r3, r4, r5, r6, r7, pc}
10002ea8:	7d23      	ldrb	r3, [r4, #20]
10002eaa:	7d61      	ldrb	r1, [r4, #21]
10002eac:	0209      	lsls	r1, r1, #8
10002eae:	4319      	orrs	r1, r3
10002eb0:	7da2      	ldrb	r2, [r4, #22]
10002eb2:	0412      	lsls	r2, r2, #16
10002eb4:	4311      	orrs	r1, r2
10002eb6:	7de3      	ldrb	r3, [r4, #23]
10002eb8:	061b      	lsls	r3, r3, #24
10002eba:	430b      	orrs	r3, r1
10002ebc:	00b2      	lsls	r2, r6, #2
10002ebe:	58d3      	ldr	r3, [r2, r3]
10002ec0:	555f      	strb	r7, [r3, r5]
10002ec2:	2f46      	cmp	r7, #70	; 0x46
10002ec4:	d014      	beq.n	10002ef0 <addDirectionNorth+0x5e>
10002ec6:	2f42      	cmp	r7, #66	; 0x42
10002ec8:	d022      	beq.n	10002f10 <addDirectionNorth+0x7e>
10002eca:	2f4c      	cmp	r7, #76	; 0x4c
10002ecc:	d02f      	beq.n	10002f2e <addDirectionNorth+0x9c>
10002ece:	2f52      	cmp	r7, #82	; 0x52
10002ed0:	d11c      	bne.n	10002f0c <addDirectionNorth+0x7a>
10002ed2:	7d23      	ldrb	r3, [r4, #20]
10002ed4:	7d61      	ldrb	r1, [r4, #21]
10002ed6:	0209      	lsls	r1, r1, #8
10002ed8:	4319      	orrs	r1, r3
10002eda:	7da2      	ldrb	r2, [r4, #22]
10002edc:	0412      	lsls	r2, r2, #16
10002ede:	4311      	orrs	r1, r2
10002ee0:	7de3      	ldrb	r3, [r4, #23]
10002ee2:	061b      	lsls	r3, r3, #24
10002ee4:	430b      	orrs	r3, r1
10002ee6:	00ad      	lsls	r5, r5, #2
10002ee8:	58eb      	ldr	r3, [r5, r3]
10002eea:	224c      	movs	r2, #76	; 0x4c
10002eec:	559a      	strb	r2, [r3, r6]
10002eee:	e00d      	b.n	10002f0c <addDirectionNorth+0x7a>
10002ef0:	7d23      	ldrb	r3, [r4, #20]
10002ef2:	7d61      	ldrb	r1, [r4, #21]
10002ef4:	0209      	lsls	r1, r1, #8
10002ef6:	4319      	orrs	r1, r3
10002ef8:	7da2      	ldrb	r2, [r4, #22]
10002efa:	0412      	lsls	r2, r2, #16
10002efc:	4311      	orrs	r1, r2
10002efe:	7de3      	ldrb	r3, [r4, #23]
10002f00:	061b      	lsls	r3, r3, #24
10002f02:	430b      	orrs	r3, r1
10002f04:	00ad      	lsls	r5, r5, #2
10002f06:	58eb      	ldr	r3, [r5, r3]
10002f08:	2242      	movs	r2, #66	; 0x42
10002f0a:	559a      	strb	r2, [r3, r6]
10002f0c:	2001      	movs	r0, #1
10002f0e:	e7ca      	b.n	10002ea6 <addDirectionNorth+0x14>
10002f10:	7d23      	ldrb	r3, [r4, #20]
10002f12:	7d61      	ldrb	r1, [r4, #21]
10002f14:	0209      	lsls	r1, r1, #8
10002f16:	4319      	orrs	r1, r3
10002f18:	7da2      	ldrb	r2, [r4, #22]
10002f1a:	0412      	lsls	r2, r2, #16
10002f1c:	4311      	orrs	r1, r2
10002f1e:	7de3      	ldrb	r3, [r4, #23]
10002f20:	061b      	lsls	r3, r3, #24
10002f22:	430b      	orrs	r3, r1
10002f24:	00ad      	lsls	r5, r5, #2
10002f26:	58eb      	ldr	r3, [r5, r3]
10002f28:	2246      	movs	r2, #70	; 0x46
10002f2a:	559a      	strb	r2, [r3, r6]
10002f2c:	e7ee      	b.n	10002f0c <addDirectionNorth+0x7a>
10002f2e:	7d23      	ldrb	r3, [r4, #20]
10002f30:	7d61      	ldrb	r1, [r4, #21]
10002f32:	0209      	lsls	r1, r1, #8
10002f34:	4319      	orrs	r1, r3
10002f36:	7da2      	ldrb	r2, [r4, #22]
10002f38:	0412      	lsls	r2, r2, #16
10002f3a:	4311      	orrs	r1, r2
10002f3c:	7de3      	ldrb	r3, [r4, #23]
10002f3e:	061b      	lsls	r3, r3, #24
10002f40:	430b      	orrs	r3, r1
10002f42:	00ad      	lsls	r5, r5, #2
10002f44:	58eb      	ldr	r3, [r5, r3]
10002f46:	2252      	movs	r2, #82	; 0x52
10002f48:	559a      	strb	r2, [r3, r6]
10002f4a:	e7df      	b.n	10002f0c <addDirectionNorth+0x7a>

10002f4c <hasDirectionSouth>:
10002f4c:	b530      	push	{r4, r5, lr}
10002f4e:	7e03      	ldrb	r3, [r0, #24]
10002f50:	7e44      	ldrb	r4, [r0, #25]
10002f52:	0224      	lsls	r4, r4, #8
10002f54:	431c      	orrs	r4, r3
10002f56:	7e85      	ldrb	r5, [r0, #26]
10002f58:	042d      	lsls	r5, r5, #16
10002f5a:	432c      	orrs	r4, r5
10002f5c:	7ec3      	ldrb	r3, [r0, #27]
10002f5e:	061b      	lsls	r3, r3, #24
10002f60:	4323      	orrs	r3, r4
10002f62:	0089      	lsls	r1, r1, #2
10002f64:	58cb      	ldr	r3, [r1, r3]
10002f66:	5c98      	ldrb	r0, [r3, r2]
10002f68:	bd30      	pop	{r4, r5, pc}

10002f6a <addDirectionSouth>:
10002f6a:	b5f8      	push	{r3, r4, r5, r6, r7, lr}
10002f6c:	0004      	movs	r4, r0
10002f6e:	000e      	movs	r6, r1
10002f70:	0015      	movs	r5, r2
10002f72:	001f      	movs	r7, r3
10002f74:	f7ff ffea 	bl	10002f4c <hasDirectionSouth>
10002f78:	284e      	cmp	r0, #78	; 0x4e
10002f7a:	d001      	beq.n	10002f80 <addDirectionSouth+0x16>
10002f7c:	2000      	movs	r0, #0
10002f7e:	bdf8      	pop	{r3, r4, r5, r6, r7, pc}
10002f80:	7e23      	ldrb	r3, [r4, #24]
10002f82:	7e61      	ldrb	r1, [r4, #25]
10002f84:	0209      	lsls	r1, r1, #8
10002f86:	4319      	orrs	r1, r3
10002f88:	7ea2      	ldrb	r2, [r4, #26]
10002f8a:	0412      	lsls	r2, r2, #16
10002f8c:	4311      	orrs	r1, r2
10002f8e:	7ee3      	ldrb	r3, [r4, #27]
10002f90:	061b      	lsls	r3, r3, #24
10002f92:	430b      	orrs	r3, r1
10002f94:	00b2      	lsls	r2, r6, #2
10002f96:	58d3      	ldr	r3, [r2, r3]
10002f98:	555f      	strb	r7, [r3, r5]
10002f9a:	2f46      	cmp	r7, #70	; 0x46
10002f9c:	d014      	beq.n	10002fc8 <addDirectionSouth+0x5e>
10002f9e:	2f42      	cmp	r7, #66	; 0x42
10002fa0:	d022      	beq.n	10002fe8 <addDirectionSouth+0x7e>
10002fa2:	2f4c      	cmp	r7, #76	; 0x4c
10002fa4:	d02f      	beq.n	10003006 <addDirectionSouth+0x9c>
10002fa6:	2f52      	cmp	r7, #82	; 0x52
10002fa8:	d11c      	bne.n	10002fe4 <addDirectionSouth+0x7a>
10002faa:	7e23      	ldrb	r3, [r4, #24]
10002fac:	7e61      	ldrb	r1, [r4, #25]
10002fae:	0209      	lsls	r1, r1, #8
10002fb0:	4319      	orrs	r1, r3
10002fb2:	7ea2      	ldrb	r2, [r4, #26]
10002fb4:	0412      	lsls	r2, r2, #16
10002fb6:	4311      	orrs	r1, r2
10002fb8:	7ee3      	ldrb	r3, [r4, #27]
10002fba:	061b      	lsls	r3, r3, #24
10002fbc:	430b      	orrs	r3, r1
10002fbe:	00ad      	lsls	r5, r5, #2
10002fc0:	58eb      	ldr	r3, [r5, r3]
10002fc2:	224c      	movs	r2, #76	; 0x4c
10002fc4:	559a      	strb	r2, [r3, r6]
10002fc6:	e00d      	b.n	10002fe4 <addDirectionSouth+0x7a>
10002fc8:	7e23      	ldrb	r3, [r4, #24]
10002fca:	7e61      	ldrb	r1, [r4, #25]
10002fcc:	0209      	lsls	r1, r1, #8
10002fce:	4319      	orrs	r1, r3
10002fd0:	7ea2      	ldrb	r2, [r4, #26]
10002fd2:	0412      	lsls	r2, r2, #16
10002fd4:	4311      	orrs	r1, r2
10002fd6:	7ee3      	ldrb	r3, [r4, #27]
10002fd8:	061b      	lsls	r3, r3, #24
10002fda:	430b      	orrs	r3, r1
10002fdc:	00ad      	lsls	r5, r5, #2
10002fde:	58eb      	ldr	r3, [r5, r3]
10002fe0:	2242      	movs	r2, #66	; 0x42
10002fe2:	559a      	strb	r2, [r3, r6]
10002fe4:	2001      	movs	r0, #1
10002fe6:	e7ca      	b.n	10002f7e <addDirectionSouth+0x14>
10002fe8:	7e23      	ldrb	r3, [r4, #24]
10002fea:	7e61      	ldrb	r1, [r4, #25]
10002fec:	0209      	lsls	r1, r1, #8
10002fee:	4319      	orrs	r1, r3
10002ff0:	7ea2      	ldrb	r2, [r4, #26]
10002ff2:	0412      	lsls	r2, r2, #16
10002ff4:	4311      	orrs	r1, r2
10002ff6:	7ee3      	ldrb	r3, [r4, #27]
10002ff8:	061b      	lsls	r3, r3, #24
10002ffa:	430b      	orrs	r3, r1
10002ffc:	00ad      	lsls	r5, r5, #2
10002ffe:	58eb      	ldr	r3, [r5, r3]
10003000:	2246      	movs	r2, #70	; 0x46
10003002:	559a      	strb	r2, [r3, r6]
10003004:	e7ee      	b.n	10002fe4 <addDirectionSouth+0x7a>
10003006:	7e23      	ldrb	r3, [r4, #24]
10003008:	7e61      	ldrb	r1, [r4, #25]
1000300a:	0209      	lsls	r1, r1, #8
1000300c:	4319      	orrs	r1, r3
1000300e:	7ea2      	ldrb	r2, [r4, #26]
10003010:	0412      	lsls	r2, r2, #16
10003012:	4311      	orrs	r1, r2
10003014:	7ee3      	ldrb	r3, [r4, #27]
10003016:	061b      	lsls	r3, r3, #24
10003018:	430b      	orrs	r3, r1
1000301a:	00ad      	lsls	r5, r5, #2
1000301c:	58eb      	ldr	r3, [r5, r3]
1000301e:	2252      	movs	r2, #82	; 0x52
10003020:	559a      	strb	r2, [r3, r6]
10003022:	e7df      	b.n	10002fe4 <addDirectionSouth+0x7a>

10003024 <hasDirectionWest>:
10003024:	b530      	push	{r4, r5, lr}
10003026:	7f03      	ldrb	r3, [r0, #28]
10003028:	7f44      	ldrb	r4, [r0, #29]
1000302a:	0224      	lsls	r4, r4, #8
1000302c:	431c      	orrs	r4, r3
1000302e:	7f85      	ldrb	r5, [r0, #30]
10003030:	042d      	lsls	r5, r5, #16
10003032:	432c      	orrs	r4, r5
10003034:	7fc3      	ldrb	r3, [r0, #31]
10003036:	061b      	lsls	r3, r3, #24
10003038:	4323      	orrs	r3, r4
1000303a:	0089      	lsls	r1, r1, #2
1000303c:	58cb      	ldr	r3, [r1, r3]
1000303e:	5c98      	ldrb	r0, [r3, r2]
10003040:	bd30      	pop	{r4, r5, pc}

10003042 <addDirectionWest>:
10003042:	b5f8      	push	{r3, r4, r5, r6, r7, lr}
10003044:	0004      	movs	r4, r0
10003046:	000e      	movs	r6, r1
10003048:	0015      	movs	r5, r2
1000304a:	001f      	movs	r7, r3
1000304c:	f7ff ffea 	bl	10003024 <hasDirectionWest>
10003050:	284e      	cmp	r0, #78	; 0x4e
10003052:	d001      	beq.n	10003058 <addDirectionWest+0x16>
10003054:	2000      	movs	r0, #0
10003056:	bdf8      	pop	{r3, r4, r5, r6, r7, pc}
10003058:	7f23      	ldrb	r3, [r4, #28]
1000305a:	7f61      	ldrb	r1, [r4, #29]
1000305c:	0209      	lsls	r1, r1, #8
1000305e:	4319      	orrs	r1, r3
10003060:	7fa2      	ldrb	r2, [r4, #30]
10003062:	0412      	lsls	r2, r2, #16
10003064:	4311      	orrs	r1, r2
10003066:	7fe3      	ldrb	r3, [r4, #31]
10003068:	061b      	lsls	r3, r3, #24
1000306a:	430b      	orrs	r3, r1
1000306c:	00b2      	lsls	r2, r6, #2
1000306e:	58d3      	ldr	r3, [r2, r3]
10003070:	555f      	strb	r7, [r3, r5]
10003072:	2f46      	cmp	r7, #70	; 0x46
10003074:	d014      	beq.n	100030a0 <addDirectionWest+0x5e>
10003076:	2f42      	cmp	r7, #66	; 0x42
10003078:	d022      	beq.n	100030c0 <addDirectionWest+0x7e>
1000307a:	2f4c      	cmp	r7, #76	; 0x4c
1000307c:	d02f      	beq.n	100030de <addDirectionWest+0x9c>
1000307e:	2f52      	cmp	r7, #82	; 0x52
10003080:	d11c      	bne.n	100030bc <addDirectionWest+0x7a>
10003082:	7f23      	ldrb	r3, [r4, #28]
10003084:	7f61      	ldrb	r1, [r4, #29]
10003086:	0209      	lsls	r1, r1, #8
10003088:	4319      	orrs	r1, r3
1000308a:	7fa2      	ldrb	r2, [r4, #30]
1000308c:	0412      	lsls	r2, r2, #16
1000308e:	4311      	orrs	r1, r2
10003090:	7fe3      	ldrb	r3, [r4, #31]
10003092:	061b      	lsls	r3, r3, #24
10003094:	430b      	orrs	r3, r1
10003096:	00ad      	lsls	r5, r5, #2
10003098:	58eb      	ldr	r3, [r5, r3]
1000309a:	224c      	movs	r2, #76	; 0x4c
1000309c:	559a      	strb	r2, [r3, r6]
1000309e:	e00d      	b.n	100030bc <addDirectionWest+0x7a>
100030a0:	7f23      	ldrb	r3, [r4, #28]
100030a2:	7f61      	ldrb	r1, [r4, #29]
100030a4:	0209      	lsls	r1, r1, #8
100030a6:	4319      	orrs	r1, r3
100030a8:	7fa2      	ldrb	r2, [r4, #30]
100030aa:	0412      	lsls	r2, r2, #16
100030ac:	4311      	orrs	r1, r2
100030ae:	7fe3      	ldrb	r3, [r4, #31]
100030b0:	061b      	lsls	r3, r3, #24
100030b2:	430b      	orrs	r3, r1
100030b4:	00ad      	lsls	r5, r5, #2
100030b6:	58eb      	ldr	r3, [r5, r3]
100030b8:	2242      	movs	r2, #66	; 0x42
100030ba:	559a      	strb	r2, [r3, r6]
100030bc:	2001      	movs	r0, #1
100030be:	e7ca      	b.n	10003056 <addDirectionWest+0x14>
100030c0:	7f23      	ldrb	r3, [r4, #28]
100030c2:	7f61      	ldrb	r1, [r4, #29]
100030c4:	0209      	lsls	r1, r1, #8
100030c6:	4319      	orrs	r1, r3
100030c8:	7fa2      	ldrb	r2, [r4, #30]
100030ca:	0412      	lsls	r2, r2, #16
100030cc:	4311      	orrs	r1, r2
100030ce:	7fe3      	ldrb	r3, [r4, #31]
100030d0:	061b      	lsls	r3, r3, #24
100030d2:	430b      	orrs	r3, r1
100030d4:	00ad      	lsls	r5, r5, #2
100030d6:	58eb      	ldr	r3, [r5, r3]
100030d8:	2246      	movs	r2, #70	; 0x46
100030da:	559a      	strb	r2, [r3, r6]
100030dc:	e7ee      	b.n	100030bc <addDirectionWest+0x7a>
100030de:	7f23      	ldrb	r3, [r4, #28]
100030e0:	7f61      	ldrb	r1, [r4, #29]
100030e2:	0209      	lsls	r1, r1, #8
100030e4:	4319      	orrs	r1, r3
100030e6:	7fa2      	ldrb	r2, [r4, #30]
100030e8:	0412      	lsls	r2, r2, #16
100030ea:	4311      	orrs	r1, r2
100030ec:	7fe3      	ldrb	r3, [r4, #31]
100030ee:	061b      	lsls	r3, r3, #24
100030f0:	430b      	orrs	r3, r1
100030f2:	00ad      	lsls	r5, r5, #2
100030f4:	58eb      	ldr	r3, [r5, r3]
100030f6:	2252      	movs	r2, #82	; 0x52
100030f8:	559a      	strb	r2, [r3, r6]
100030fa:	e7df      	b.n	100030bc <addDirectionWest+0x7a>

100030fc <hasDirectionEast>:
100030fc:	b530      	push	{r4, r5, lr}
100030fe:	2320      	movs	r3, #32
10003100:	5cc3      	ldrb	r3, [r0, r3]
10003102:	2421      	movs	r4, #33	; 0x21
10003104:	5d04      	ldrb	r4, [r0, r4]
10003106:	0224      	lsls	r4, r4, #8
10003108:	431c      	orrs	r4, r3
1000310a:	2322      	movs	r3, #34	; 0x22
1000310c:	5cc5      	ldrb	r5, [r0, r3]
1000310e:	042d      	lsls	r5, r5, #16
10003110:	432c      	orrs	r4, r5
10003112:	3301      	adds	r3, #1
10003114:	5cc3      	ldrb	r3, [r0, r3]
10003116:	061b      	lsls	r3, r3, #24
10003118:	4323      	orrs	r3, r4
1000311a:	0089      	lsls	r1, r1, #2
1000311c:	58cb      	ldr	r3, [r1, r3]
1000311e:	5c98      	ldrb	r0, [r3, r2]
10003120:	bd30      	pop	{r4, r5, pc}

10003122 <addDirectionEast>:
10003122:	b5f8      	push	{r3, r4, r5, r6, r7, lr}
10003124:	0004      	movs	r4, r0
10003126:	000e      	movs	r6, r1
10003128:	0015      	movs	r5, r2
1000312a:	001f      	movs	r7, r3
1000312c:	f7ff ffe6 	bl	100030fc <hasDirectionEast>
10003130:	284e      	cmp	r0, #78	; 0x4e
10003132:	d001      	beq.n	10003138 <addDirectionEast+0x16>
10003134:	2000      	movs	r0, #0
10003136:	bdf8      	pop	{r3, r4, r5, r6, r7, pc}
10003138:	2320      	movs	r3, #32
1000313a:	5ce3      	ldrb	r3, [r4, r3]
1000313c:	2221      	movs	r2, #33	; 0x21
1000313e:	5ca1      	ldrb	r1, [r4, r2]
10003140:	0209      	lsls	r1, r1, #8
10003142:	4319      	orrs	r1, r3
10003144:	2322      	movs	r3, #34	; 0x22
10003146:	5ce2      	ldrb	r2, [r4, r3]
10003148:	0412      	lsls	r2, r2, #16
1000314a:	4311      	orrs	r1, r2
1000314c:	3301      	adds	r3, #1
1000314e:	5ce3      	ldrb	r3, [r4, r3]
10003150:	061b      	lsls	r3, r3, #24
10003152:	430b      	orrs	r3, r1
10003154:	00b2      	lsls	r2, r6, #2
10003156:	58d3      	ldr	r3, [r2, r3]
10003158:	555f      	strb	r7, [r3, r5]
1000315a:	2f46      	cmp	r7, #70	; 0x46
1000315c:	d018      	beq.n	10003190 <addDirectionEast+0x6e>
1000315e:	2f42      	cmp	r7, #66	; 0x42
10003160:	d02a      	beq.n	100031b8 <addDirectionEast+0x96>
10003162:	2f4c      	cmp	r7, #76	; 0x4c
10003164:	d03b      	beq.n	100031de <addDirectionEast+0xbc>
10003166:	2f52      	cmp	r7, #82	; 0x52
10003168:	d124      	bne.n	100031b4 <addDirectionEast+0x92>
1000316a:	2320      	movs	r3, #32
1000316c:	5ce3      	ldrb	r3, [r4, r3]
1000316e:	2221      	movs	r2, #33	; 0x21
10003170:	5ca1      	ldrb	r1, [r4, r2]
10003172:	0209      	lsls	r1, r1, #8
10003174:	4319      	orrs	r1, r3
10003176:	2322      	movs	r3, #34	; 0x22
10003178:	5ce2      	ldrb	r2, [r4, r3]
1000317a:	0412      	lsls	r2, r2, #16
1000317c:	4311      	orrs	r1, r2
1000317e:	3301      	adds	r3, #1
10003180:	5ce3      	ldrb	r3, [r4, r3]
10003182:	061b      	lsls	r3, r3, #24
10003184:	430b      	orrs	r3, r1
10003186:	00ad      	lsls	r5, r5, #2
10003188:	58eb      	ldr	r3, [r5, r3]
1000318a:	224c      	movs	r2, #76	; 0x4c
1000318c:	559a      	strb	r2, [r3, r6]
1000318e:	e011      	b.n	100031b4 <addDirectionEast+0x92>
10003190:	2320      	movs	r3, #32
10003192:	5ce3      	ldrb	r3, [r4, r3]
10003194:	2221      	movs	r2, #33	; 0x21
10003196:	5ca1      	ldrb	r1, [r4, r2]
10003198:	0209      	lsls	r1, r1, #8
1000319a:	4319      	orrs	r1, r3
1000319c:	2322      	movs	r3, #34	; 0x22
1000319e:	5ce2      	ldrb	r2, [r4, r3]
100031a0:	0412      	lsls	r2, r2, #16
100031a2:	4311      	orrs	r1, r2
100031a4:	3301      	adds	r3, #1
100031a6:	5ce3      	ldrb	r3, [r4, r3]
100031a8:	061b      	lsls	r3, r3, #24
100031aa:	430b      	orrs	r3, r1
100031ac:	00ad      	lsls	r5, r5, #2
100031ae:	58eb      	ldr	r3, [r5, r3]
100031b0:	2242      	movs	r2, #66	; 0x42
100031b2:	559a      	strb	r2, [r3, r6]
100031b4:	2001      	movs	r0, #1
100031b6:	e7be      	b.n	10003136 <addDirectionEast+0x14>
100031b8:	2320      	movs	r3, #32
100031ba:	5ce3      	ldrb	r3, [r4, r3]
100031bc:	2221      	movs	r2, #33	; 0x21
100031be:	5ca1      	ldrb	r1, [r4, r2]
100031c0:	0209      	lsls	r1, r1, #8
100031c2:	4319      	orrs	r1, r3
100031c4:	2322      	movs	r3, #34	; 0x22
100031c6:	5ce2      	ldrb	r2, [r4, r3]
100031c8:	0412      	lsls	r2, r2, #16
100031ca:	4311      	orrs	r1, r2
100031cc:	3301      	adds	r3, #1
100031ce:	5ce3      	ldrb	r3, [r4, r3]
100031d0:	061b      	lsls	r3, r3, #24
100031d2:	430b      	orrs	r3, r1
100031d4:	00ad      	lsls	r5, r5, #2
100031d6:	58eb      	ldr	r3, [r5, r3]
100031d8:	2246      	movs	r2, #70	; 0x46
100031da:	559a      	strb	r2, [r3, r6]
100031dc:	e7ea      	b.n	100031b4 <addDirectionEast+0x92>
100031de:	2320      	movs	r3, #32
100031e0:	5ce3      	ldrb	r3, [r4, r3]
100031e2:	2221      	movs	r2, #33	; 0x21
100031e4:	5ca1      	ldrb	r1, [r4, r2]
100031e6:	0209      	lsls	r1, r1, #8
100031e8:	4319      	orrs	r1, r3
100031ea:	2322      	movs	r3, #34	; 0x22
100031ec:	5ce2      	ldrb	r2, [r4, r3]
100031ee:	0412      	lsls	r2, r2, #16
100031f0:	4311      	orrs	r1, r2
100031f2:	3301      	adds	r3, #1
100031f4:	5ce3      	ldrb	r3, [r4, r3]
100031f6:	061b      	lsls	r3, r3, #24
100031f8:	430b      	orrs	r3, r1
100031fa:	00ad      	lsls	r5, r5, #2
100031fc:	58eb      	ldr	r3, [r5, r3]
100031fe:	2252      	movs	r2, #82	; 0x52
10003200:	559a      	strb	r2, [r3, r6]
10003202:	e7d7      	b.n	100031b4 <addDirectionEast+0x92>

10003204 <addDirection>:
10003204:	b5f0      	push	{r4, r5, r6, r7, lr}
10003206:	46c6      	mov	lr, r8
10003208:	b500      	push	{lr}
1000320a:	0004      	movs	r4, r0
1000320c:	000d      	movs	r5, r1
1000320e:	0016      	movs	r6, r2
10003210:	001f      	movs	r7, r3
10003212:	ab06      	add	r3, sp, #24
10003214:	781b      	ldrb	r3, [r3, #0]
10003216:	4698      	mov	r8, r3
10003218:	f7ff fe2c 	bl	10002e74 <hasDirectionNorth>
1000321c:	284e      	cmp	r0, #78	; 0x4e
1000321e:	d016      	beq.n	1000324e <addDirection+0x4a>
10003220:	0032      	movs	r2, r6
10003222:	0029      	movs	r1, r5
10003224:	0020      	movs	r0, r4
10003226:	f7ff fe91 	bl	10002f4c <hasDirectionSouth>
1000322a:	284e      	cmp	r0, #78	; 0x4e
1000322c:	d00f      	beq.n	1000324e <addDirection+0x4a>
1000322e:	0032      	movs	r2, r6
10003230:	0029      	movs	r1, r5
10003232:	0020      	movs	r0, r4
10003234:	f7ff fef6 	bl	10003024 <hasDirectionWest>
10003238:	284e      	cmp	r0, #78	; 0x4e
1000323a:	d008      	beq.n	1000324e <addDirection+0x4a>
1000323c:	0032      	movs	r2, r6
1000323e:	0029      	movs	r1, r5
10003240:	0020      	movs	r0, r4
10003242:	f7ff ff5b 	bl	100030fc <hasDirectionEast>
10003246:	284e      	cmp	r0, #78	; 0x4e
10003248:	d001      	beq.n	1000324e <addDirection+0x4a>
1000324a:	2000      	movs	r0, #0
1000324c:	e00c      	b.n	10003268 <addDirection+0x64>
1000324e:	4643      	mov	r3, r8
10003250:	2b4e      	cmp	r3, #78	; 0x4e
10003252:	d00c      	beq.n	1000326e <addDirection+0x6a>
10003254:	2b53      	cmp	r3, #83	; 0x53
10003256:	d100      	bne.n	1000325a <addDirection+0x56>
10003258:	e075      	b.n	10003346 <addDirection+0x142>
1000325a:	2b57      	cmp	r3, #87	; 0x57
1000325c:	d100      	bne.n	10003260 <addDirection+0x5c>
1000325e:	e0df      	b.n	10003420 <addDirection+0x21c>
10003260:	2b45      	cmp	r3, #69	; 0x45
10003262:	d100      	bne.n	10003266 <addDirection+0x62>
10003264:	e149      	b.n	100034fa <addDirection+0x2f6>
10003266:	2001      	movs	r0, #1
10003268:	bc80      	pop	{r7}
1000326a:	46b8      	mov	r8, r7
1000326c:	bdf0      	pop	{r4, r5, r6, r7, pc}
1000326e:	2f46      	cmp	r7, #70	; 0x46
10003270:	d01e      	beq.n	100032b0 <addDirection+0xac>
10003272:	2f42      	cmp	r7, #66	; 0x42
10003274:	d035      	beq.n	100032e2 <addDirection+0xde>
10003276:	2f4c      	cmp	r7, #76	; 0x4c
10003278:	d04c      	beq.n	10003314 <addDirection+0x110>
1000327a:	2f52      	cmp	r7, #82	; 0x52
1000327c:	d1f3      	bne.n	10003266 <addDirection+0x62>
1000327e:	003b      	movs	r3, r7
10003280:	0032      	movs	r2, r6
10003282:	0029      	movs	r1, r5
10003284:	0020      	movs	r0, r4
10003286:	f7ff fe04 	bl	10002e92 <addDirectionNorth>
1000328a:	234c      	movs	r3, #76	; 0x4c
1000328c:	0032      	movs	r2, r6
1000328e:	0029      	movs	r1, r5
10003290:	0020      	movs	r0, r4
10003292:	f7ff fe6a 	bl	10002f6a <addDirectionSouth>
10003296:	2342      	movs	r3, #66	; 0x42
10003298:	0032      	movs	r2, r6
1000329a:	0029      	movs	r1, r5
1000329c:	0020      	movs	r0, r4
1000329e:	f7ff fed0 	bl	10003042 <addDirectionWest>
100032a2:	2346      	movs	r3, #70	; 0x46
100032a4:	0032      	movs	r2, r6
100032a6:	0029      	movs	r1, r5
100032a8:	0020      	movs	r0, r4
100032aa:	f7ff ff3a 	bl	10003122 <addDirectionEast>
100032ae:	e7da      	b.n	10003266 <addDirection+0x62>
100032b0:	003b      	movs	r3, r7
100032b2:	0032      	movs	r2, r6
100032b4:	0029      	movs	r1, r5
100032b6:	0020      	movs	r0, r4
100032b8:	f7ff fdeb 	bl	10002e92 <addDirectionNorth>
100032bc:	2342      	movs	r3, #66	; 0x42
100032be:	0032      	movs	r2, r6
100032c0:	0029      	movs	r1, r5
100032c2:	0020      	movs	r0, r4
100032c4:	f7ff fe51 	bl	10002f6a <addDirectionSouth>
100032c8:	2352      	movs	r3, #82	; 0x52
100032ca:	0032      	movs	r2, r6
100032cc:	0029      	movs	r1, r5
100032ce:	0020      	movs	r0, r4
100032d0:	f7ff feb7 	bl	10003042 <addDirectionWest>
100032d4:	234c      	movs	r3, #76	; 0x4c
100032d6:	0032      	movs	r2, r6
100032d8:	0029      	movs	r1, r5
100032da:	0020      	movs	r0, r4
100032dc:	f7ff ff21 	bl	10003122 <addDirectionEast>
100032e0:	e7c1      	b.n	10003266 <addDirection+0x62>
100032e2:	003b      	movs	r3, r7
100032e4:	0032      	movs	r2, r6
100032e6:	0029      	movs	r1, r5
100032e8:	0020      	movs	r0, r4
100032ea:	f7ff fdd2 	bl	10002e92 <addDirectionNorth>
100032ee:	2346      	movs	r3, #70	; 0x46
100032f0:	0032      	movs	r2, r6
100032f2:	0029      	movs	r1, r5
100032f4:	0020      	movs	r0, r4
100032f6:	f7ff fe38 	bl	10002f6a <addDirectionSouth>
100032fa:	234c      	movs	r3, #76	; 0x4c
100032fc:	0032      	movs	r2, r6
100032fe:	0029      	movs	r1, r5
10003300:	0020      	movs	r0, r4
10003302:	f7ff fe9e 	bl	10003042 <addDirectionWest>
10003306:	2352      	movs	r3, #82	; 0x52
10003308:	0032      	movs	r2, r6
1000330a:	0029      	movs	r1, r5
1000330c:	0020      	movs	r0, r4
1000330e:	f7ff ff08 	bl	10003122 <addDirectionEast>
10003312:	e7a8      	b.n	10003266 <addDirection+0x62>
10003314:	003b      	movs	r3, r7
10003316:	0032      	movs	r2, r6
10003318:	0029      	movs	r1, r5
1000331a:	0020      	movs	r0, r4
1000331c:	f7ff fdb9 	bl	10002e92 <addDirectionNorth>
10003320:	2352      	movs	r3, #82	; 0x52
10003322:	0032      	movs	r2, r6
10003324:	0029      	movs	r1, r5
10003326:	0020      	movs	r0, r4
10003328:	f7ff fe1f 	bl	10002f6a <addDirectionSouth>
1000332c:	2346      	movs	r3, #70	; 0x46
1000332e:	0032      	movs	r2, r6
10003330:	0029      	movs	r1, r5
10003332:	0020      	movs	r0, r4
10003334:	f7ff fe85 	bl	10003042 <addDirectionWest>
10003338:	2342      	movs	r3, #66	; 0x42
1000333a:	0032      	movs	r2, r6
1000333c:	0029      	movs	r1, r5
1000333e:	0020      	movs	r0, r4
10003340:	f7ff feef 	bl	10003122 <addDirectionEast>
10003344:	e78f      	b.n	10003266 <addDirection+0x62>
10003346:	2f46      	cmp	r7, #70	; 0x46
10003348:	d01f      	beq.n	1000338a <addDirection+0x186>
1000334a:	2f42      	cmp	r7, #66	; 0x42
1000334c:	d036      	beq.n	100033bc <addDirection+0x1b8>
1000334e:	2f4c      	cmp	r7, #76	; 0x4c
10003350:	d04d      	beq.n	100033ee <addDirection+0x1ea>
10003352:	2f52      	cmp	r7, #82	; 0x52
10003354:	d000      	beq.n	10003358 <addDirection+0x154>
10003356:	e786      	b.n	10003266 <addDirection+0x62>
10003358:	003b      	movs	r3, r7
1000335a:	0032      	movs	r2, r6
1000335c:	0029      	movs	r1, r5
1000335e:	0020      	movs	r0, r4
10003360:	f7ff fe03 	bl	10002f6a <addDirectionSouth>
10003364:	234c      	movs	r3, #76	; 0x4c
10003366:	0032      	movs	r2, r6
10003368:	0029      	movs	r1, r5
1000336a:	0020      	movs	r0, r4
1000336c:	f7ff fd91 	bl	10002e92 <addDirectionNorth>
10003370:	2346      	movs	r3, #70	; 0x46
10003372:	0032      	movs	r2, r6
10003374:	0029      	movs	r1, r5
10003376:	0020      	movs	r0, r4
10003378:	f7ff fe63 	bl	10003042 <addDirectionWest>
1000337c:	2342      	movs	r3, #66	; 0x42
1000337e:	0032      	movs	r2, r6
10003380:	0029      	movs	r1, r5
10003382:	0020      	movs	r0, r4
10003384:	f7ff fecd 	bl	10003122 <addDirectionEast>
10003388:	e76d      	b.n	10003266 <addDirection+0x62>
1000338a:	003b      	movs	r3, r7
1000338c:	0032      	movs	r2, r6
1000338e:	0029      	movs	r1, r5
10003390:	0020      	movs	r0, r4
10003392:	f7ff fdea 	bl	10002f6a <addDirectionSouth>
10003396:	2342      	movs	r3, #66	; 0x42
10003398:	0032      	movs	r2, r6
1000339a:	0029      	movs	r1, r5
1000339c:	0020      	movs	r0, r4
1000339e:	f7ff fd78 	bl	10002e92 <addDirectionNorth>
100033a2:	234c      	movs	r3, #76	; 0x4c
100033a4:	0032      	movs	r2, r6
100033a6:	0029      	movs	r1, r5
100033a8:	0020      	movs	r0, r4
100033aa:	f7ff fe4a 	bl	10003042 <addDirectionWest>
100033ae:	2352      	movs	r3, #82	; 0x52
100033b0:	0032      	movs	r2, r6
100033b2:	0029      	movs	r1, r5
100033b4:	0020      	movs	r0, r4
100033b6:	f7ff feb4 	bl	10003122 <addDirectionEast>
100033ba:	e754      	b.n	10003266 <addDirection+0x62>
100033bc:	003b      	movs	r3, r7
100033be:	0032      	movs	r2, r6
100033c0:	0029      	movs	r1, r5
100033c2:	0020      	movs	r0, r4
100033c4:	f7ff fdd1 	bl	10002f6a <addDirectionSouth>
100033c8:	2346      	movs	r3, #70	; 0x46
100033ca:	0032      	movs	r2, r6
100033cc:	0029      	movs	r1, r5
100033ce:	0020      	movs	r0, r4
100033d0:	f7ff fd5f 	bl	10002e92 <addDirectionNorth>
100033d4:	2352      	movs	r3, #82	; 0x52
100033d6:	0032      	movs	r2, r6
100033d8:	0029      	movs	r1, r5
100033da:	0020      	movs	r0, r4
100033dc:	f7ff fe31 	bl	10003042 <addDirectionWest>
100033e0:	234c      	movs	r3, #76	; 0x4c
100033e2:	0032      	movs	r2, r6
100033e4:	0029      	movs	r1, r5
100033e6:	0020      	movs	r0, r4
100033e8:	f7ff fe9b 	bl	10003122 <addDirectionEast>
100033ec:	e73b      	b.n	10003266 <addDirection+0x62>
100033ee:	003b      	movs	r3, r7
100033f0:	0032      	movs	r2, r6
100033f2:	0029      	movs	r1, r5
100033f4:	0020      	movs	r0, r4
100033f6:	f7ff fdb8 	bl	10002f6a <addDirectionSouth>
100033fa:	2352      	movs	r3, #82	; 0x52
100033fc:	0032      	movs	r2, r6
100033fe:	0029      	movs	r1, r5
10003400:	0020      	movs	r0, r4
10003402:	f7ff fd46 	bl	10002e92 <addDirectionNorth>
10003406:	2342      	movs	r3, #66	; 0x42
10003408:	0032      	movs	r2, r6
1000340a:	0029      	movs	r1, r5
1000340c:	0020      	movs	r0, r4
1000340e:	f7ff fe18 	bl	10003042 <addDirectionWest>
10003412:	2346      	movs	r3, #70	; 0x46
10003414:	0032      	movs	r2, r6
10003416:	0029      	movs	r1, r5
10003418:	0020      	movs	r0, r4
1000341a:	f7ff fe82 	bl	10003122 <addDirectionEast>
1000341e:	e722      	b.n	10003266 <addDirection+0x62>
10003420:	2f46      	cmp	r7, #70	; 0x46
10003422:	d01f      	beq.n	10003464 <addDirection+0x260>
10003424:	2f42      	cmp	r7, #66	; 0x42
10003426:	d036      	beq.n	10003496 <addDirection+0x292>
10003428:	2f4c      	cmp	r7, #76	; 0x4c
1000342a:	d04d      	beq.n	100034c8 <addDirection+0x2c4>
1000342c:	2f52      	cmp	r7, #82	; 0x52
1000342e:	d000      	beq.n	10003432 <addDirection+0x22e>
10003430:	e719      	b.n	10003266 <addDirection+0x62>
10003432:	003b      	movs	r3, r7
10003434:	0032      	movs	r2, r6
10003436:	0029      	movs	r1, r5
10003438:	0020      	movs	r0, r4
1000343a:	f7ff fe02 	bl	10003042 <addDirectionWest>
1000343e:	2346      	movs	r3, #70	; 0x46
10003440:	0032      	movs	r2, r6
10003442:	0029      	movs	r1, r5
10003444:	0020      	movs	r0, r4
10003446:	f7ff fd24 	bl	10002e92 <addDirectionNorth>
1000344a:	2342      	movs	r3, #66	; 0x42
1000344c:	0032      	movs	r2, r6
1000344e:	0029      	movs	r1, r5
10003450:	0020      	movs	r0, r4
10003452:	f7ff fd8a 	bl	10002f6a <addDirectionSouth>
10003456:	234c      	movs	r3, #76	; 0x4c
10003458:	0032      	movs	r2, r6
1000345a:	0029      	movs	r1, r5
1000345c:	0020      	movs	r0, r4
1000345e:	f7ff fe60 	bl	10003122 <addDirectionEast>
10003462:	e700      	b.n	10003266 <addDirection+0x62>
10003464:	003b      	movs	r3, r7
10003466:	0032      	movs	r2, r6
10003468:	0029      	movs	r1, r5
1000346a:	0020      	movs	r0, r4
1000346c:	f7ff fde9 	bl	10003042 <addDirectionWest>
10003470:	234c      	movs	r3, #76	; 0x4c
10003472:	0032      	movs	r2, r6
10003474:	0029      	movs	r1, r5
10003476:	0020      	movs	r0, r4
10003478:	f7ff fd0b 	bl	10002e92 <addDirectionNorth>
1000347c:	2352      	movs	r3, #82	; 0x52
1000347e:	0032      	movs	r2, r6
10003480:	0029      	movs	r1, r5
10003482:	0020      	movs	r0, r4
10003484:	f7ff fd71 	bl	10002f6a <addDirectionSouth>
10003488:	2342      	movs	r3, #66	; 0x42
1000348a:	0032      	movs	r2, r6
1000348c:	0029      	movs	r1, r5
1000348e:	0020      	movs	r0, r4
10003490:	f7ff fe47 	bl	10003122 <addDirectionEast>
10003494:	e6e7      	b.n	10003266 <addDirection+0x62>
10003496:	003b      	movs	r3, r7
10003498:	0032      	movs	r2, r6
1000349a:	0029      	movs	r1, r5
1000349c:	0020      	movs	r0, r4
1000349e:	f7ff fdd0 	bl	10003042 <addDirectionWest>
100034a2:	2352      	movs	r3, #82	; 0x52
100034a4:	0032      	movs	r2, r6
100034a6:	0029      	movs	r1, r5
100034a8:	0020      	movs	r0, r4
100034aa:	f7ff fcf2 	bl	10002e92 <addDirectionNorth>
100034ae:	234c      	movs	r3, #76	; 0x4c
100034b0:	0032      	movs	r2, r6
100034b2:	0029      	movs	r1, r5
100034b4:	0020      	movs	r0, r4
100034b6:	f7ff fd58 	bl	10002f6a <addDirectionSouth>
100034ba:	2346      	movs	r3, #70	; 0x46
100034bc:	0032      	movs	r2, r6
100034be:	0029      	movs	r1, r5
100034c0:	0020      	movs	r0, r4
100034c2:	f7ff fe2e 	bl	10003122 <addDirectionEast>
100034c6:	e6ce      	b.n	10003266 <addDirection+0x62>
100034c8:	003b      	movs	r3, r7
100034ca:	0032      	movs	r2, r6
100034cc:	0029      	movs	r1, r5
100034ce:	0020      	movs	r0, r4
100034d0:	f7ff fdb7 	bl	10003042 <addDirectionWest>
100034d4:	2342      	movs	r3, #66	; 0x42
100034d6:	0032      	movs	r2, r6
100034d8:	0029      	movs	r1, r5
100034da:	0020      	movs	r0, r4
100034dc:	f7ff fcd9 	bl	10002e92 <addDirectionNorth>
100034e0:	2346      	movs	r3, #70	; 0x46
100034e2:	0032      	movs	r2, r6
100034e4:	0029      	movs	r1, r5
100034e6:	0020      	movs	r0, r4
100034e8:	f7ff fd3f 	bl	10002f6a <addDirectionSouth>
100034ec:	2352      	movs	r3, #82	; 0x52
100034ee:	0032      	movs	r2, r6
100034f0:	0029      	movs	r1, r5
100034f2:	0020      	movs	r0, r4
100034f4:	f7ff fe15 	bl	10003122 <addDirectionEast>
100034f8:	e6b5      	b.n	10003266 <addDirection+0x62>
100034fa:	2f46      	cmp	r7, #70	; 0x46
100034fc:	d01f      	beq.n	1000353e <addDirection+0x33a>
100034fe:	2f42      	cmp	r7, #66	; 0x42
10003500:	d036      	beq.n	10003570 <addDirection+0x36c>
10003502:	2f4c      	cmp	r7, #76	; 0x4c
10003504:	d04d      	beq.n	100035a2 <addDirection+0x39e>
10003506:	2f52      	cmp	r7, #82	; 0x52
10003508:	d000      	beq.n	1000350c <addDirection+0x308>
1000350a:	e6ac      	b.n	10003266 <addDirection+0x62>
1000350c:	003b      	movs	r3, r7
1000350e:	0032      	movs	r2, r6
10003510:	0029      	movs	r1, r5
10003512:	0020      	movs	r0, r4
10003514:	f7ff fe05 	bl	10003122 <addDirectionEast>
10003518:	2342      	movs	r3, #66	; 0x42
1000351a:	0032      	movs	r2, r6
1000351c:	0029      	movs	r1, r5
1000351e:	0020      	movs	r0, r4
10003520:	f7ff fcb7 	bl	10002e92 <addDirectionNorth>
10003524:	2346      	movs	r3, #70	; 0x46
10003526:	0032      	movs	r2, r6
10003528:	0029      	movs	r1, r5
1000352a:	0020      	movs	r0, r4
1000352c:	f7ff fd1d 	bl	10002f6a <addDirectionSouth>
10003530:	234c      	movs	r3, #76	; 0x4c
10003532:	0032      	movs	r2, r6
10003534:	0029      	movs	r1, r5
10003536:	0020      	movs	r0, r4
10003538:	f7ff fd83 	bl	10003042 <addDirectionWest>
1000353c:	e693      	b.n	10003266 <addDirection+0x62>
1000353e:	003b      	movs	r3, r7
10003540:	0032      	movs	r2, r6
10003542:	0029      	movs	r1, r5
10003544:	0020      	movs	r0, r4
10003546:	f7ff fdec 	bl	10003122 <addDirectionEast>
1000354a:	2352      	movs	r3, #82	; 0x52
1000354c:	0032      	movs	r2, r6
1000354e:	0029      	movs	r1, r5
10003550:	0020      	movs	r0, r4
10003552:	f7ff fc9e 	bl	10002e92 <addDirectionNorth>
10003556:	234c      	movs	r3, #76	; 0x4c
10003558:	0032      	movs	r2, r6
1000355a:	0029      	movs	r1, r5
1000355c:	0020      	movs	r0, r4
1000355e:	f7ff fd04 	bl	10002f6a <addDirectionSouth>
10003562:	2342      	movs	r3, #66	; 0x42
10003564:	0032      	movs	r2, r6
10003566:	0029      	movs	r1, r5
10003568:	0020      	movs	r0, r4
1000356a:	f7ff fd6a 	bl	10003042 <addDirectionWest>
1000356e:	e67a      	b.n	10003266 <addDirection+0x62>
10003570:	003b      	movs	r3, r7
10003572:	0032      	movs	r2, r6
10003574:	0029      	movs	r1, r5
10003576:	0020      	movs	r0, r4
10003578:	f7ff fdd3 	bl	10003122 <addDirectionEast>
1000357c:	234c      	movs	r3, #76	; 0x4c
1000357e:	0032      	movs	r2, r6
10003580:	0029      	movs	r1, r5
10003582:	0020      	movs	r0, r4
10003584:	f7ff fc85 	bl	10002e92 <addDirectionNorth>
10003588:	2352      	movs	r3, #82	; 0x52
1000358a:	0032      	movs	r2, r6
1000358c:	0029      	movs	r1, r5
1000358e:	0020      	movs	r0, r4
10003590:	f7ff fceb 	bl	10002f6a <addDirectionSouth>
10003594:	2346      	movs	r3, #70	; 0x46
10003596:	0032      	movs	r2, r6
10003598:	0029      	movs	r1, r5
1000359a:	0020      	movs	r0, r4
1000359c:	f7ff fd51 	bl	10003042 <addDirectionWest>
100035a0:	e661      	b.n	10003266 <addDirection+0x62>
100035a2:	003b      	movs	r3, r7
100035a4:	0032      	movs	r2, r6
100035a6:	0029      	movs	r1, r5
100035a8:	0020      	movs	r0, r4
100035aa:	f7ff fdba 	bl	10003122 <addDirectionEast>
100035ae:	2346      	movs	r3, #70	; 0x46
100035b0:	0032      	movs	r2, r6
100035b2:	0029      	movs	r1, r5
100035b4:	0020      	movs	r0, r4
100035b6:	f7ff fc6c 	bl	10002e92 <addDirectionNorth>
100035ba:	2342      	movs	r3, #66	; 0x42
100035bc:	0032      	movs	r2, r6
100035be:	0029      	movs	r1, r5
100035c0:	0020      	movs	r0, r4
100035c2:	f7ff fcd2 	bl	10002f6a <addDirectionSouth>
100035c6:	2352      	movs	r3, #82	; 0x52
100035c8:	0032      	movs	r2, r6
100035ca:	0029      	movs	r1, r5
100035cc:	0020      	movs	r0, r4
100035ce:	f7ff fd38 	bl	10003042 <addDirectionWest>
100035d2:	e648      	b.n	10003266 <addDirection+0x62>

100035d4 <hasEdge>:
100035d4:	b530      	push	{r4, r5, lr}
100035d6:	7a03      	ldrb	r3, [r0, #8]
100035d8:	7a44      	ldrb	r4, [r0, #9]
100035da:	0224      	lsls	r4, r4, #8
100035dc:	431c      	orrs	r4, r3
100035de:	7a85      	ldrb	r5, [r0, #10]
100035e0:	042d      	lsls	r5, r5, #16
100035e2:	432c      	orrs	r4, r5
100035e4:	7ac3      	ldrb	r3, [r0, #11]
100035e6:	061b      	lsls	r3, r3, #24
100035e8:	4323      	orrs	r3, r4
100035ea:	0089      	lsls	r1, r1, #2
100035ec:	58cb      	ldr	r3, [r1, r3]
100035ee:	5c98      	ldrb	r0, [r3, r2]
100035f0:	bd30      	pop	{r4, r5, pc}

100035f2 <addEdge>:
100035f2:	b570      	push	{r4, r5, r6, lr}
100035f4:	0004      	movs	r4, r0
100035f6:	000e      	movs	r6, r1
100035f8:	0015      	movs	r5, r2
100035fa:	f7ff ffeb 	bl	100035d4 <hasEdge>
100035fe:	2800      	cmp	r0, #0
10003600:	d11b      	bne.n	1000363a <addEdge+0x48>
10003602:	7a23      	ldrb	r3, [r4, #8]
10003604:	7a61      	ldrb	r1, [r4, #9]
10003606:	0209      	lsls	r1, r1, #8
10003608:	4319      	orrs	r1, r3
1000360a:	7aa2      	ldrb	r2, [r4, #10]
1000360c:	0412      	lsls	r2, r2, #16
1000360e:	4311      	orrs	r1, r2
10003610:	7ae3      	ldrb	r3, [r4, #11]
10003612:	061b      	lsls	r3, r3, #24
10003614:	430b      	orrs	r3, r1
10003616:	00b2      	lsls	r2, r6, #2
10003618:	58d3      	ldr	r3, [r2, r3]
1000361a:	3001      	adds	r0, #1
1000361c:	5558      	strb	r0, [r3, r5]
1000361e:	7a23      	ldrb	r3, [r4, #8]
10003620:	7a61      	ldrb	r1, [r4, #9]
10003622:	0209      	lsls	r1, r1, #8
10003624:	4319      	orrs	r1, r3
10003626:	7aa2      	ldrb	r2, [r4, #10]
10003628:	0412      	lsls	r2, r2, #16
1000362a:	4311      	orrs	r1, r2
1000362c:	7ae3      	ldrb	r3, [r4, #11]
1000362e:	061b      	lsls	r3, r3, #24
10003630:	430b      	orrs	r3, r1
10003632:	00ad      	lsls	r5, r5, #2
10003634:	58eb      	ldr	r3, [r5, r3]
10003636:	5598      	strb	r0, [r3, r6]
10003638:	bd70      	pop	{r4, r5, r6, pc}
1000363a:	2000      	movs	r0, #0
1000363c:	e7fc      	b.n	10003638 <addEdge+0x46>

1000363e <hasBarcode>:
1000363e:	b530      	push	{r4, r5, lr}
10003640:	7b03      	ldrb	r3, [r0, #12]
10003642:	7b44      	ldrb	r4, [r0, #13]
10003644:	0224      	lsls	r4, r4, #8
10003646:	431c      	orrs	r4, r3
10003648:	7b85      	ldrb	r5, [r0, #14]
1000364a:	042d      	lsls	r5, r5, #16
1000364c:	432c      	orrs	r4, r5
1000364e:	7bc3      	ldrb	r3, [r0, #15]
10003650:	061b      	lsls	r3, r3, #24
10003652:	4323      	orrs	r3, r4
10003654:	0089      	lsls	r1, r1, #2
10003656:	58cb      	ldr	r3, [r1, r3]
10003658:	5c98      	ldrb	r0, [r3, r2]
1000365a:	bd30      	pop	{r4, r5, pc}

1000365c <addBarcode>:
1000365c:	b570      	push	{r4, r5, r6, lr}
1000365e:	0004      	movs	r4, r0
10003660:	000e      	movs	r6, r1
10003662:	0015      	movs	r5, r2
10003664:	f7ff ffeb 	bl	1000363e <hasBarcode>
10003668:	2800      	cmp	r0, #0
1000366a:	d11b      	bne.n	100036a4 <addBarcode+0x48>
1000366c:	7b23      	ldrb	r3, [r4, #12]
1000366e:	7b61      	ldrb	r1, [r4, #13]
10003670:	0209      	lsls	r1, r1, #8
10003672:	4319      	orrs	r1, r3
10003674:	7ba2      	ldrb	r2, [r4, #14]
10003676:	0412      	lsls	r2, r2, #16
10003678:	4311      	orrs	r1, r2
1000367a:	7be3      	ldrb	r3, [r4, #15]
1000367c:	061b      	lsls	r3, r3, #24
1000367e:	430b      	orrs	r3, r1
10003680:	00b2      	lsls	r2, r6, #2
10003682:	58d3      	ldr	r3, [r2, r3]
10003684:	3001      	adds	r0, #1
10003686:	5558      	strb	r0, [r3, r5]
10003688:	7b23      	ldrb	r3, [r4, #12]
1000368a:	7b61      	ldrb	r1, [r4, #13]
1000368c:	0209      	lsls	r1, r1, #8
1000368e:	4319      	orrs	r1, r3
10003690:	7ba2      	ldrb	r2, [r4, #14]
10003692:	0412      	lsls	r2, r2, #16
10003694:	4311      	orrs	r1, r2
10003696:	7be3      	ldrb	r3, [r4, #15]
10003698:	061b      	lsls	r3, r3, #24
1000369a:	430b      	orrs	r3, r1
1000369c:	00ad      	lsls	r5, r5, #2
1000369e:	58eb      	ldr	r3, [r5, r3]
100036a0:	5598      	strb	r0, [r3, r6]
100036a2:	bd70      	pop	{r4, r5, r6, pc}
100036a4:	2000      	movs	r0, #0
100036a6:	e7fc      	b.n	100036a2 <addBarcode+0x46>

100036a8 <hasHump>:
100036a8:	b530      	push	{r4, r5, lr}
100036aa:	7c03      	ldrb	r3, [r0, #16]
100036ac:	7c44      	ldrb	r4, [r0, #17]
100036ae:	0224      	lsls	r4, r4, #8
100036b0:	431c      	orrs	r4, r3
100036b2:	7c85      	ldrb	r5, [r0, #18]
100036b4:	042d      	lsls	r5, r5, #16
100036b6:	432c      	orrs	r4, r5
100036b8:	7cc3      	ldrb	r3, [r0, #19]
100036ba:	061b      	lsls	r3, r3, #24
100036bc:	4323      	orrs	r3, r4
100036be:	0089      	lsls	r1, r1, #2
100036c0:	58cb      	ldr	r3, [r1, r3]
100036c2:	5c98      	ldrb	r0, [r3, r2]
100036c4:	bd30      	pop	{r4, r5, pc}

100036c6 <addHump>:
100036c6:	b570      	push	{r4, r5, r6, lr}
100036c8:	0004      	movs	r4, r0
100036ca:	000e      	movs	r6, r1
100036cc:	0015      	movs	r5, r2
100036ce:	f7ff ffeb 	bl	100036a8 <hasHump>
100036d2:	2800      	cmp	r0, #0
100036d4:	d11b      	bne.n	1000370e <addHump+0x48>
100036d6:	7c23      	ldrb	r3, [r4, #16]
100036d8:	7c61      	ldrb	r1, [r4, #17]
100036da:	0209      	lsls	r1, r1, #8
100036dc:	4319      	orrs	r1, r3
100036de:	7ca2      	ldrb	r2, [r4, #18]
100036e0:	0412      	lsls	r2, r2, #16
100036e2:	4311      	orrs	r1, r2
100036e4:	7ce3      	ldrb	r3, [r4, #19]
100036e6:	061b      	lsls	r3, r3, #24
100036e8:	430b      	orrs	r3, r1
100036ea:	00b2      	lsls	r2, r6, #2
100036ec:	58d3      	ldr	r3, [r2, r3]
100036ee:	3001      	adds	r0, #1
100036f0:	5558      	strb	r0, [r3, r5]
100036f2:	7c23      	ldrb	r3, [r4, #16]
100036f4:	7c61      	ldrb	r1, [r4, #17]
100036f6:	0209      	lsls	r1, r1, #8
100036f8:	4319      	orrs	r1, r3
100036fa:	7ca2      	ldrb	r2, [r4, #18]
100036fc:	0412      	lsls	r2, r2, #16
100036fe:	4311      	orrs	r1, r2
10003700:	7ce3      	ldrb	r3, [r4, #19]
10003702:	061b      	lsls	r3, r3, #24
10003704:	430b      	orrs	r3, r1
10003706:	00ad      	lsls	r5, r5, #2
10003708:	58eb      	ldr	r3, [r5, r3]
1000370a:	5598      	strb	r0, [r3, r6]
1000370c:	bd70      	pop	{r4, r5, r6, pc}
1000370e:	2000      	movs	r0, #0
10003710:	e7fc      	b.n	1000370c <addHump+0x46>
	...

10003714 <printMap>:
10003714:	b5f0      	push	{r4, r5, r6, r7, lr}
10003716:	46de      	mov	lr, fp
10003718:	4657      	mov	r7, sl
1000371a:	464e      	mov	r6, r9
1000371c:	4645      	mov	r5, r8
1000371e:	b5e0      	push	{r5, r6, r7, lr}
10003720:	b087      	sub	sp, #28
10003722:	af00      	add	r7, sp, #0
10003724:	6178      	str	r0, [r7, #20]
10003726:	6039      	str	r1, [r7, #0]
10003728:	0015      	movs	r5, r2
1000372a:	613a      	str	r2, [r7, #16]
1000372c:	1e53      	subs	r3, r2, #1
1000372e:	60fb      	str	r3, [r7, #12]
10003730:	0096      	lsls	r6, r2, #2
10003732:	60be      	str	r6, [r7, #8]
10003734:	000a      	movs	r2, r1
10003736:	1e4b      	subs	r3, r1, #1
10003738:	607b      	str	r3, [r7, #4]
1000373a:	002b      	movs	r3, r5
1000373c:	434b      	muls	r3, r1
1000373e:	009b      	lsls	r3, r3, #2
10003740:	3307      	adds	r3, #7
10003742:	08db      	lsrs	r3, r3, #3
10003744:	00db      	lsls	r3, r3, #3
10003746:	4669      	mov	r1, sp
10003748:	1acb      	subs	r3, r1, r3
1000374a:	469d      	mov	sp, r3
1000374c:	466c      	mov	r4, sp
1000374e:	2000      	movs	r0, #0
10003750:	2100      	movs	r1, #0
10003752:	4694      	mov	ip, r2
10003754:	e009      	b.n	1000376a <printMap+0x56>
10003756:	08b3      	lsrs	r3, r6, #2
10003758:	4343      	muls	r3, r0
1000375a:	189b      	adds	r3, r3, r2
1000375c:	009b      	lsls	r3, r3, #2
1000375e:	5119      	str	r1, [r3, r4]
10003760:	3201      	adds	r2, #1
10003762:	3101      	adds	r1, #1
10003764:	42aa      	cmp	r2, r5
10003766:	dbf6      	blt.n	10003756 <printMap+0x42>
10003768:	3001      	adds	r0, #1
1000376a:	4560      	cmp	r0, ip
1000376c:	da01      	bge.n	10003772 <printMap+0x5e>
1000376e:	2200      	movs	r2, #0
10003770:	e7f8      	b.n	10003764 <printMap+0x50>
10003772:	200a      	movs	r0, #10
10003774:	f004 fbca 	bl	10007f0c <__wrap_putchar>
10003778:	2300      	movs	r3, #0
1000377a:	469a      	mov	sl, r3
1000377c:	e0e4      	b.n	10003948 <printMap+0x234>
1000377e:	68bb      	ldr	r3, [r7, #8]
10003780:	089b      	lsrs	r3, r3, #2
10003782:	4699      	mov	r9, r3
10003784:	4656      	mov	r6, sl
10003786:	435e      	muls	r6, r3
10003788:	1973      	adds	r3, r6, r5
1000378a:	009b      	lsls	r3, r3, #2
1000378c:	4698      	mov	r8, r3
1000378e:	5919      	ldr	r1, [r3, r4]
10003790:	4874      	ldr	r0, [pc, #464]	; (10003964 <printMap+0x250>)
10003792:	f004 fc45 	bl	10008020 <__wrap_printf>
10003796:	1c6b      	adds	r3, r5, #1
10003798:	469b      	mov	fp, r3
1000379a:	445e      	add	r6, fp
1000379c:	00b6      	lsls	r6, r6, #2
1000379e:	5932      	ldr	r2, [r6, r4]
100037a0:	4643      	mov	r3, r8
100037a2:	5919      	ldr	r1, [r3, r4]
100037a4:	6978      	ldr	r0, [r7, #20]
100037a6:	f7ff ff15 	bl	100035d4 <hasEdge>
100037aa:	2800      	cmp	r0, #0
100037ac:	d107      	bne.n	100037be <printMap+0xaa>
100037ae:	200a      	movs	r0, #10
100037b0:	f004 fbac 	bl	10007f0c <__wrap_putchar>
100037b4:	2600      	movs	r6, #0
100037b6:	46ab      	mov	fp, r5
100037b8:	4655      	mov	r5, sl
100037ba:	46a0      	mov	r8, r4
100037bc:	e047      	b.n	1000384e <printMap+0x13a>
100037be:	202d      	movs	r0, #45	; 0x2d
100037c0:	f004 fba4 	bl	10007f0c <__wrap_putchar>
100037c4:	4642      	mov	r2, r8
100037c6:	5912      	ldr	r2, [r2, r4]
100037c8:	4690      	mov	r8, r2
100037ca:	5936      	ldr	r6, [r6, r4]
100037cc:	0032      	movs	r2, r6
100037ce:	4641      	mov	r1, r8
100037d0:	6978      	ldr	r0, [r7, #20]
100037d2:	f7ff ff34 	bl	1000363e <hasBarcode>
100037d6:	2800      	cmp	r0, #0
100037d8:	d10d      	bne.n	100037f6 <printMap+0xe2>
100037da:	0032      	movs	r2, r6
100037dc:	4641      	mov	r1, r8
100037de:	6978      	ldr	r0, [r7, #20]
100037e0:	f7ff ff62 	bl	100036a8 <hasHump>
100037e4:	2800      	cmp	r0, #0
100037e6:	d00a      	beq.n	100037fe <printMap+0xea>
100037e8:	2068      	movs	r0, #104	; 0x68
100037ea:	f004 fb8f 	bl	10007f0c <__wrap_putchar>
100037ee:	202d      	movs	r0, #45	; 0x2d
100037f0:	f004 fb8c 	bl	10007f0c <__wrap_putchar>
100037f4:	e7db      	b.n	100037ae <printMap+0x9a>
100037f6:	2062      	movs	r0, #98	; 0x62
100037f8:	f004 fb88 	bl	10007f0c <__wrap_putchar>
100037fc:	e7f7      	b.n	100037ee <printMap+0xda>
100037fe:	202d      	movs	r0, #45	; 0x2d
10003800:	f004 fb84 	bl	10007f0c <__wrap_putchar>
10003804:	e7f3      	b.n	100037ee <printMap+0xda>
10003806:	207c      	movs	r0, #124	; 0x7c
10003808:	f004 fb80 	bl	10007f0c <__wrap_putchar>
1000380c:	464b      	mov	r3, r9
1000380e:	436b      	muls	r3, r5
10003810:	199b      	adds	r3, r3, r6
10003812:	009b      	lsls	r3, r3, #2
10003814:	4642      	mov	r2, r8
10003816:	589b      	ldr	r3, [r3, r2]
10003818:	469a      	mov	sl, r3
1000381a:	464b      	mov	r3, r9
1000381c:	435c      	muls	r4, r3
1000381e:	19a4      	adds	r4, r4, r6
10003820:	00a4      	lsls	r4, r4, #2
10003822:	58a4      	ldr	r4, [r4, r2]
10003824:	0022      	movs	r2, r4
10003826:	4651      	mov	r1, sl
10003828:	6978      	ldr	r0, [r7, #20]
1000382a:	f7ff ff3d 	bl	100036a8 <hasHump>
1000382e:	2800      	cmp	r0, #0
10003830:	d129      	bne.n	10003886 <printMap+0x172>
10003832:	0022      	movs	r2, r4
10003834:	4651      	mov	r1, sl
10003836:	6978      	ldr	r0, [r7, #20]
10003838:	f7ff ff01 	bl	1000363e <hasBarcode>
1000383c:	2800      	cmp	r0, #0
1000383e:	d026      	beq.n	1000388e <printMap+0x17a>
10003840:	2062      	movs	r0, #98	; 0x62
10003842:	f004 fb63 	bl	10007f0c <__wrap_putchar>
10003846:	4848      	ldr	r0, [pc, #288]	; (10003968 <printMap+0x254>)
10003848:	f004 fbea 	bl	10008020 <__wrap_printf>
1000384c:	3601      	adds	r6, #1
1000384e:	693b      	ldr	r3, [r7, #16]
10003850:	429e      	cmp	r6, r3
10003852:	da20      	bge.n	10003896 <printMap+0x182>
10003854:	1c6c      	adds	r4, r5, #1
10003856:	464b      	mov	r3, r9
10003858:	4363      	muls	r3, r4
1000385a:	199b      	adds	r3, r3, r6
1000385c:	009b      	lsls	r3, r3, #2
1000385e:	4642      	mov	r2, r8
10003860:	589a      	ldr	r2, [r3, r2]
10003862:	464b      	mov	r3, r9
10003864:	436b      	muls	r3, r5
10003866:	199b      	adds	r3, r3, r6
10003868:	009b      	lsls	r3, r3, #2
1000386a:	4641      	mov	r1, r8
1000386c:	5859      	ldr	r1, [r3, r1]
1000386e:	6978      	ldr	r0, [r7, #20]
10003870:	f7ff feb0 	bl	100035d4 <hasEdge>
10003874:	2800      	cmp	r0, #0
10003876:	d1c6      	bne.n	10003806 <printMap+0xf2>
10003878:	687b      	ldr	r3, [r7, #4]
1000387a:	42ab      	cmp	r3, r5
1000387c:	d0e6      	beq.n	1000384c <printMap+0x138>
1000387e:	483b      	ldr	r0, [pc, #236]	; (1000396c <printMap+0x258>)
10003880:	f004 fbce 	bl	10008020 <__wrap_printf>
10003884:	e7e2      	b.n	1000384c <printMap+0x138>
10003886:	2068      	movs	r0, #104	; 0x68
10003888:	f004 fb40 	bl	10007f0c <__wrap_putchar>
1000388c:	e7db      	b.n	10003846 <printMap+0x132>
1000388e:	207c      	movs	r0, #124	; 0x7c
10003890:	f004 fb3c 	bl	10007f0c <__wrap_putchar>
10003894:	e7d7      	b.n	10003846 <printMap+0x132>
10003896:	46aa      	mov	sl, r5
10003898:	465d      	mov	r5, fp
1000389a:	4644      	mov	r4, r8
1000389c:	200a      	movs	r0, #10
1000389e:	f004 fb35 	bl	10007f0c <__wrap_putchar>
100038a2:	e009      	b.n	100038b8 <printMap+0x1a4>
100038a4:	2062      	movs	r0, #98	; 0x62
100038a6:	f004 fb31 	bl	10007f0c <__wrap_putchar>
100038aa:	e002      	b.n	100038b2 <printMap+0x19e>
100038ac:	202d      	movs	r0, #45	; 0x2d
100038ae:	f004 fb2d 	bl	10007f0c <__wrap_putchar>
100038b2:	202d      	movs	r0, #45	; 0x2d
100038b4:	f004 fb2a 	bl	10007f0c <__wrap_putchar>
100038b8:	3501      	adds	r5, #1
100038ba:	693b      	ldr	r3, [r7, #16]
100038bc:	429d      	cmp	r5, r3
100038be:	da40      	bge.n	10003942 <printMap+0x22e>
100038c0:	68fb      	ldr	r3, [r7, #12]
100038c2:	42ab      	cmp	r3, r5
100038c4:	d100      	bne.n	100038c8 <printMap+0x1b4>
100038c6:	e75a      	b.n	1000377e <printMap+0x6a>
100038c8:	68bb      	ldr	r3, [r7, #8]
100038ca:	089b      	lsrs	r3, r3, #2
100038cc:	4698      	mov	r8, r3
100038ce:	4656      	mov	r6, sl
100038d0:	435e      	muls	r6, r3
100038d2:	1973      	adds	r3, r6, r5
100038d4:	009b      	lsls	r3, r3, #2
100038d6:	4699      	mov	r9, r3
100038d8:	5919      	ldr	r1, [r3, r4]
100038da:	4822      	ldr	r0, [pc, #136]	; (10003964 <printMap+0x250>)
100038dc:	f004 fba0 	bl	10008020 <__wrap_printf>
100038e0:	1c6b      	adds	r3, r5, #1
100038e2:	469b      	mov	fp, r3
100038e4:	445e      	add	r6, fp
100038e6:	00b6      	lsls	r6, r6, #2
100038e8:	5932      	ldr	r2, [r6, r4]
100038ea:	464b      	mov	r3, r9
100038ec:	5919      	ldr	r1, [r3, r4]
100038ee:	697b      	ldr	r3, [r7, #20]
100038f0:	4699      	mov	r9, r3
100038f2:	0018      	movs	r0, r3
100038f4:	f7ff fe6e 	bl	100035d4 <hasEdge>
100038f8:	2800      	cmp	r0, #0
100038fa:	d01e      	beq.n	1000393a <printMap+0x226>
100038fc:	202d      	movs	r0, #45	; 0x2d
100038fe:	f004 fb05 	bl	10007f0c <__wrap_putchar>
10003902:	4643      	mov	r3, r8
10003904:	4652      	mov	r2, sl
10003906:	4353      	muls	r3, r2
10003908:	195a      	adds	r2, r3, r5
1000390a:	0092      	lsls	r2, r2, #2
1000390c:	5916      	ldr	r6, [r2, r4]
1000390e:	445b      	add	r3, fp
10003910:	009b      	lsls	r3, r3, #2
10003912:	591b      	ldr	r3, [r3, r4]
10003914:	4698      	mov	r8, r3
10003916:	001a      	movs	r2, r3
10003918:	0031      	movs	r1, r6
1000391a:	4648      	mov	r0, r9
1000391c:	f7ff fe8f 	bl	1000363e <hasBarcode>
10003920:	2800      	cmp	r0, #0
10003922:	d1bf      	bne.n	100038a4 <printMap+0x190>
10003924:	4642      	mov	r2, r8
10003926:	0031      	movs	r1, r6
10003928:	6978      	ldr	r0, [r7, #20]
1000392a:	f7ff febd 	bl	100036a8 <hasHump>
1000392e:	2800      	cmp	r0, #0
10003930:	d0bc      	beq.n	100038ac <printMap+0x198>
10003932:	2068      	movs	r0, #104	; 0x68
10003934:	f004 faea 	bl	10007f0c <__wrap_putchar>
10003938:	e7bb      	b.n	100038b2 <printMap+0x19e>
1000393a:	480d      	ldr	r0, [pc, #52]	; (10003970 <printMap+0x25c>)
1000393c:	f004 fb70 	bl	10008020 <__wrap_printf>
10003940:	e7ba      	b.n	100038b8 <printMap+0x1a4>
10003942:	2301      	movs	r3, #1
10003944:	469c      	mov	ip, r3
10003946:	44e2      	add	sl, ip
10003948:	683b      	ldr	r3, [r7, #0]
1000394a:	459a      	cmp	sl, r3
1000394c:	da01      	bge.n	10003952 <printMap+0x23e>
1000394e:	2500      	movs	r5, #0
10003950:	e7b3      	b.n	100038ba <printMap+0x1a6>
10003952:	46bd      	mov	sp, r7
10003954:	b007      	add	sp, #28
10003956:	bcf0      	pop	{r4, r5, r6, r7}
10003958:	46bb      	mov	fp, r7
1000395a:	46b2      	mov	sl, r6
1000395c:	46a9      	mov	r9, r5
1000395e:	46a0      	mov	r8, r4
10003960:	bdf0      	pop	{r4, r5, r6, r7, pc}
10003962:	46c0      	nop			; (mov r8, r8)
10003964:	1000c634 	.word	0x1000c634
10003968:	1000c63c 	.word	0x1000c63c
1000396c:	1000c644 	.word	0x1000c644
10003970:	1000c650 	.word	0x1000c650

10003974 <printAllMatrix>:
10003974:	b510      	push	{r4, lr}
10003976:	0004      	movs	r4, r0
10003978:	f7fe ff46 	bl	10002808 <printEdges>
1000397c:	0020      	movs	r0, r4
1000397e:	f7ff fa07 	bl	10002d90 <printHumps>
10003982:	0020      	movs	r0, r4
10003984:	f7ff f992 	bl	10002cac <printBarcodes>
10003988:	0020      	movs	r0, r4
1000398a:	f7fe ffaf 	bl	100028ec <printDirectionsWhenNorth>
1000398e:	0020      	movs	r0, r4
10003990:	f7ff f822 	bl	100029d8 <printDirectionsWhenSouth>
10003994:	0020      	movs	r0, r4
10003996:	f7ff f895 	bl	10002ac4 <printDirectionsWhenWest>
1000399a:	0020      	movs	r0, r4
1000399c:	f7ff f908 	bl	10002bb0 <printDirectionsWhenEast>
100039a0:	bd10      	pop	{r4, pc}
	...

100039a4 <checkAllNodesHasAtLeast1Edge>:
100039a4:	b5f0      	push	{r4, r5, r6, r7, lr}
100039a6:	46c6      	mov	lr, r8
100039a8:	b500      	push	{lr}
100039aa:	0004      	movs	r4, r0
100039ac:	2600      	movs	r6, #0
100039ae:	2300      	movs	r3, #0
100039b0:	469c      	mov	ip, r3
100039b2:	e01d      	b.n	100039f0 <checkAllNodesHasAtLeast1Edge+0x4c>
100039b4:	1e6b      	subs	r3, r5, #1
100039b6:	4283      	cmp	r3, r0
100039b8:	d013      	beq.n	100039e2 <checkAllNodesHasAtLeast1Edge+0x3e>
100039ba:	3001      	adds	r0, #1
100039bc:	4285      	cmp	r5, r0
100039be:	dd16      	ble.n	100039ee <checkAllNodesHasAtLeast1Edge+0x4a>
100039c0:	7a23      	ldrb	r3, [r4, #8]
100039c2:	7a61      	ldrb	r1, [r4, #9]
100039c4:	0209      	lsls	r1, r1, #8
100039c6:	4319      	orrs	r1, r3
100039c8:	7aa2      	ldrb	r2, [r4, #10]
100039ca:	0412      	lsls	r2, r2, #16
100039cc:	4311      	orrs	r1, r2
100039ce:	7ae3      	ldrb	r3, [r4, #11]
100039d0:	061b      	lsls	r3, r3, #24
100039d2:	430b      	orrs	r3, r1
100039d4:	00b2      	lsls	r2, r6, #2
100039d6:	58d3      	ldr	r3, [r2, r3]
100039d8:	5c1b      	ldrb	r3, [r3, r0]
100039da:	2b00      	cmp	r3, #0
100039dc:	d0ea      	beq.n	100039b4 <checkAllNodesHasAtLeast1Edge+0x10>
100039de:	3701      	adds	r7, #1
100039e0:	e7e8      	b.n	100039b4 <checkAllNodesHasAtLeast1Edge+0x10>
100039e2:	2f00      	cmp	r7, #0
100039e4:	d0e9      	beq.n	100039ba <checkAllNodesHasAtLeast1Edge+0x16>
100039e6:	2301      	movs	r3, #1
100039e8:	4698      	mov	r8, r3
100039ea:	44c4      	add	ip, r8
100039ec:	e7e5      	b.n	100039ba <checkAllNodesHasAtLeast1Edge+0x16>
100039ee:	3601      	adds	r6, #1
100039f0:	7922      	ldrb	r2, [r4, #4]
100039f2:	7963      	ldrb	r3, [r4, #5]
100039f4:	021b      	lsls	r3, r3, #8
100039f6:	431a      	orrs	r2, r3
100039f8:	79a5      	ldrb	r5, [r4, #6]
100039fa:	042d      	lsls	r5, r5, #16
100039fc:	4315      	orrs	r5, r2
100039fe:	79e3      	ldrb	r3, [r4, #7]
10003a00:	061b      	lsls	r3, r3, #24
10003a02:	431d      	orrs	r5, r3
10003a04:	42b5      	cmp	r5, r6
10003a06:	dd02      	ble.n	10003a0e <checkAllNodesHasAtLeast1Edge+0x6a>
10003a08:	2000      	movs	r0, #0
10003a0a:	2700      	movs	r7, #0
10003a0c:	e7d6      	b.n	100039bc <checkAllNodesHasAtLeast1Edge+0x18>
10003a0e:	4565      	cmp	r5, ip
10003a10:	d006      	beq.n	10003a20 <checkAllNodesHasAtLeast1Edge+0x7c>
10003a12:	4806      	ldr	r0, [pc, #24]	; (10003a2c <checkAllNodesHasAtLeast1Edge+0x88>)
10003a14:	f004 fad2 	bl	10007fbc <__wrap_puts>
10003a18:	2000      	movs	r0, #0
10003a1a:	bc80      	pop	{r7}
10003a1c:	46b8      	mov	r8, r7
10003a1e:	bdf0      	pop	{r4, r5, r6, r7, pc}
10003a20:	4803      	ldr	r0, [pc, #12]	; (10003a30 <checkAllNodesHasAtLeast1Edge+0x8c>)
10003a22:	f004 facb 	bl	10007fbc <__wrap_puts>
10003a26:	2001      	movs	r0, #1
10003a28:	e7f7      	b.n	10003a1a <checkAllNodesHasAtLeast1Edge+0x76>
10003a2a:	46c0      	nop			; (mov r8, r8)
10003a2c:	1000c674 	.word	0x1000c674
10003a30:	1000c654 	.word	0x1000c654

10003a34 <bytesConsumedByMap>:
10003a34:	b510      	push	{r4, lr}
10003a36:	2124      	movs	r1, #36	; 0x24
10003a38:	4801      	ldr	r0, [pc, #4]	; (10003a40 <bytesConsumedByMap+0xc>)
10003a3a:	f004 faf1 	bl	10008020 <__wrap_printf>
10003a3e:	bd10      	pop	{r4, pc}
10003a40:	1000c694 	.word	0x1000c694

10003a44 <nextGrid>:
10003a44:	2b4e      	cmp	r3, #78	; 0x4e
10003a46:	d00f      	beq.n	10003a68 <nextGrid+0x24>
10003a48:	2b53      	cmp	r3, #83	; 0x53
10003a4a:	d01d      	beq.n	10003a88 <nextGrid+0x44>
10003a4c:	2b45      	cmp	r3, #69	; 0x45
10003a4e:	d02b      	beq.n	10003aa8 <nextGrid+0x64>
10003a50:	2b57      	cmp	r3, #87	; 0x57
10003a52:	d148      	bne.n	10003ae6 <nextGrid+0xa2>
10003a54:	2a46      	cmp	r2, #70	; 0x46
10003a56:	d037      	beq.n	10003ac8 <nextGrid+0x84>
10003a58:	2a42      	cmp	r2, #66	; 0x42
10003a5a:	d037      	beq.n	10003acc <nextGrid+0x88>
10003a5c:	2a52      	cmp	r2, #82	; 0x52
10003a5e:	d037      	beq.n	10003ad0 <nextGrid+0x8c>
10003a60:	2a4c      	cmp	r2, #76	; 0x4c
10003a62:	d143      	bne.n	10003aec <nextGrid+0xa8>
10003a64:	1840      	adds	r0, r0, r1
10003a66:	e008      	b.n	10003a7a <nextGrid+0x36>
10003a68:	2a46      	cmp	r2, #70	; 0x46
10003a6a:	d007      	beq.n	10003a7c <nextGrid+0x38>
10003a6c:	2a42      	cmp	r2, #66	; 0x42
10003a6e:	d007      	beq.n	10003a80 <nextGrid+0x3c>
10003a70:	2a52      	cmp	r2, #82	; 0x52
10003a72:	d007      	beq.n	10003a84 <nextGrid+0x40>
10003a74:	2a4c      	cmp	r2, #76	; 0x4c
10003a76:	d12d      	bne.n	10003ad4 <nextGrid+0x90>
10003a78:	3801      	subs	r0, #1
10003a7a:	4770      	bx	lr
10003a7c:	1a40      	subs	r0, r0, r1
10003a7e:	e7fc      	b.n	10003a7a <nextGrid+0x36>
10003a80:	1840      	adds	r0, r0, r1
10003a82:	e7fa      	b.n	10003a7a <nextGrid+0x36>
10003a84:	3001      	adds	r0, #1
10003a86:	e7f8      	b.n	10003a7a <nextGrid+0x36>
10003a88:	2a46      	cmp	r2, #70	; 0x46
10003a8a:	d007      	beq.n	10003a9c <nextGrid+0x58>
10003a8c:	2a42      	cmp	r2, #66	; 0x42
10003a8e:	d007      	beq.n	10003aa0 <nextGrid+0x5c>
10003a90:	2a52      	cmp	r2, #82	; 0x52
10003a92:	d007      	beq.n	10003aa4 <nextGrid+0x60>
10003a94:	2a4c      	cmp	r2, #76	; 0x4c
10003a96:	d120      	bne.n	10003ada <nextGrid+0x96>
10003a98:	3001      	adds	r0, #1
10003a9a:	e7ee      	b.n	10003a7a <nextGrid+0x36>
10003a9c:	1840      	adds	r0, r0, r1
10003a9e:	e7ec      	b.n	10003a7a <nextGrid+0x36>
10003aa0:	1a40      	subs	r0, r0, r1
10003aa2:	e7ea      	b.n	10003a7a <nextGrid+0x36>
10003aa4:	3801      	subs	r0, #1
10003aa6:	e7e8      	b.n	10003a7a <nextGrid+0x36>
10003aa8:	2a46      	cmp	r2, #70	; 0x46
10003aaa:	d007      	beq.n	10003abc <nextGrid+0x78>
10003aac:	2a42      	cmp	r2, #66	; 0x42
10003aae:	d007      	beq.n	10003ac0 <nextGrid+0x7c>
10003ab0:	2a52      	cmp	r2, #82	; 0x52
10003ab2:	d007      	beq.n	10003ac4 <nextGrid+0x80>
10003ab4:	2a4c      	cmp	r2, #76	; 0x4c
10003ab6:	d113      	bne.n	10003ae0 <nextGrid+0x9c>
10003ab8:	1a40      	subs	r0, r0, r1
10003aba:	e7de      	b.n	10003a7a <nextGrid+0x36>
10003abc:	3001      	adds	r0, #1
10003abe:	e7dc      	b.n	10003a7a <nextGrid+0x36>
10003ac0:	3801      	subs	r0, #1
10003ac2:	e7da      	b.n	10003a7a <nextGrid+0x36>
10003ac4:	1840      	adds	r0, r0, r1
10003ac6:	e7d8      	b.n	10003a7a <nextGrid+0x36>
10003ac8:	3801      	subs	r0, #1
10003aca:	e7d6      	b.n	10003a7a <nextGrid+0x36>
10003acc:	3001      	adds	r0, #1
10003ace:	e7d4      	b.n	10003a7a <nextGrid+0x36>
10003ad0:	1a40      	subs	r0, r0, r1
10003ad2:	e7d2      	b.n	10003a7a <nextGrid+0x36>
10003ad4:	2063      	movs	r0, #99	; 0x63
10003ad6:	4240      	negs	r0, r0
10003ad8:	e7cf      	b.n	10003a7a <nextGrid+0x36>
10003ada:	2063      	movs	r0, #99	; 0x63
10003adc:	4240      	negs	r0, r0
10003ade:	e7cc      	b.n	10003a7a <nextGrid+0x36>
10003ae0:	2063      	movs	r0, #99	; 0x63
10003ae2:	4240      	negs	r0, r0
10003ae4:	e7c9      	b.n	10003a7a <nextGrid+0x36>
10003ae6:	2063      	movs	r0, #99	; 0x63
10003ae8:	4240      	negs	r0, r0
10003aea:	e7c6      	b.n	10003a7a <nextGrid+0x36>
10003aec:	2063      	movs	r0, #99	; 0x63
10003aee:	4240      	negs	r0, r0
10003af0:	e7c3      	b.n	10003a7a <nextGrid+0x36>
	...

10003af4 <updateGridVisited>:
10003af4:	b5f8      	push	{r3, r4, r5, r6, r7, lr}
10003af6:	0004      	movs	r4, r0
10003af8:	000f      	movs	r7, r1
10003afa:	2600      	movs	r6, #0
10003afc:	2100      	movs	r1, #0
10003afe:	e002      	b.n	10003b06 <updateGridVisited+0x12>
10003b00:	42bb      	cmp	r3, r7
10003b02:	d01e      	beq.n	10003b42 <updateGridVisited+0x4e>
10003b04:	3601      	adds	r6, #1
10003b06:	7923      	ldrb	r3, [r4, #4]
10003b08:	7960      	ldrb	r0, [r4, #5]
10003b0a:	0200      	lsls	r0, r0, #8
10003b0c:	4318      	orrs	r0, r3
10003b0e:	79a2      	ldrb	r2, [r4, #6]
10003b10:	0412      	lsls	r2, r2, #16
10003b12:	4310      	orrs	r0, r2
10003b14:	79e3      	ldrb	r3, [r4, #7]
10003b16:	061b      	lsls	r3, r3, #24
10003b18:	4303      	orrs	r3, r0
10003b1a:	42b3      	cmp	r3, r6
10003b1c:	dd16      	ble.n	10003b4c <updateGridVisited+0x58>
10003b1e:	7823      	ldrb	r3, [r4, #0]
10003b20:	7860      	ldrb	r0, [r4, #1]
10003b22:	0200      	lsls	r0, r0, #8
10003b24:	4318      	orrs	r0, r3
10003b26:	78a2      	ldrb	r2, [r4, #2]
10003b28:	0412      	lsls	r2, r2, #16
10003b2a:	4310      	orrs	r0, r2
10003b2c:	78e3      	ldrb	r3, [r4, #3]
10003b2e:	061b      	lsls	r3, r3, #24
10003b30:	4303      	orrs	r3, r0
10003b32:	00b2      	lsls	r2, r6, #2
10003b34:	58d3      	ldr	r3, [r2, r3]
10003b36:	001a      	movs	r2, r3
10003b38:	3263      	adds	r2, #99	; 0x63
10003b3a:	d1e1      	bne.n	10003b00 <updateGridVisited+0xc>
10003b3c:	0035      	movs	r5, r6
10003b3e:	2101      	movs	r1, #1
10003b40:	e7de      	b.n	10003b00 <updateGridVisited+0xc>
10003b42:	480c      	ldr	r0, [pc, #48]	; (10003b74 <updateGridVisited+0x80>)
10003b44:	f004 fa3a 	bl	10007fbc <__wrap_puts>
10003b48:	2100      	movs	r1, #0
10003b4a:	e7db      	b.n	10003b04 <updateGridVisited+0x10>
10003b4c:	2900      	cmp	r1, #0
10003b4e:	d100      	bne.n	10003b52 <updateGridVisited+0x5e>
10003b50:	bdf8      	pop	{r3, r4, r5, r6, r7, pc}
10003b52:	7823      	ldrb	r3, [r4, #0]
10003b54:	7861      	ldrb	r1, [r4, #1]
10003b56:	0209      	lsls	r1, r1, #8
10003b58:	4319      	orrs	r1, r3
10003b5a:	78a2      	ldrb	r2, [r4, #2]
10003b5c:	0412      	lsls	r2, r2, #16
10003b5e:	4311      	orrs	r1, r2
10003b60:	78e3      	ldrb	r3, [r4, #3]
10003b62:	061b      	lsls	r3, r3, #24
10003b64:	430b      	orrs	r3, r1
10003b66:	00ad      	lsls	r5, r5, #2
10003b68:	515f      	str	r7, [r3, r5]
10003b6a:	4803      	ldr	r0, [pc, #12]	; (10003b78 <updateGridVisited+0x84>)
10003b6c:	f004 fa26 	bl	10007fbc <__wrap_puts>
10003b70:	e7ee      	b.n	10003b50 <updateGridVisited+0x5c>
10003b72:	46c0      	nop			; (mov r8, r8)
10003b74:	1000c6ac 	.word	0x1000c6ac
10003b78:	1000c6b4 	.word	0x1000c6b4

10003b7c <printGridVisited>:
10003b7c:	b570      	push	{r4, r5, r6, lr}
10003b7e:	0004      	movs	r4, r0
10003b80:	4812      	ldr	r0, [pc, #72]	; (10003bcc <printGridVisited+0x50>)
10003b82:	f004 fa4d 	bl	10008020 <__wrap_printf>
10003b86:	2500      	movs	r5, #0
10003b88:	e00f      	b.n	10003baa <printGridVisited+0x2e>
10003b8a:	7823      	ldrb	r3, [r4, #0]
10003b8c:	7861      	ldrb	r1, [r4, #1]
10003b8e:	0209      	lsls	r1, r1, #8
10003b90:	4319      	orrs	r1, r3
10003b92:	78a2      	ldrb	r2, [r4, #2]
10003b94:	0412      	lsls	r2, r2, #16
10003b96:	4311      	orrs	r1, r2
10003b98:	78e3      	ldrb	r3, [r4, #3]
10003b9a:	061b      	lsls	r3, r3, #24
10003b9c:	430b      	orrs	r3, r1
10003b9e:	00aa      	lsls	r2, r5, #2
10003ba0:	5899      	ldr	r1, [r3, r2]
10003ba2:	480b      	ldr	r0, [pc, #44]	; (10003bd0 <printGridVisited+0x54>)
10003ba4:	f004 fa3c 	bl	10008020 <__wrap_printf>
10003ba8:	3501      	adds	r5, #1
10003baa:	7923      	ldrb	r3, [r4, #4]
10003bac:	7961      	ldrb	r1, [r4, #5]
10003bae:	0209      	lsls	r1, r1, #8
10003bb0:	4319      	orrs	r1, r3
10003bb2:	79a2      	ldrb	r2, [r4, #6]
10003bb4:	0412      	lsls	r2, r2, #16
10003bb6:	4311      	orrs	r1, r2
10003bb8:	79e3      	ldrb	r3, [r4, #7]
10003bba:	061b      	lsls	r3, r3, #24
10003bbc:	430b      	orrs	r3, r1
10003bbe:	42ab      	cmp	r3, r5
10003bc0:	dce3      	bgt.n	10003b8a <printGridVisited+0xe>
10003bc2:	200a      	movs	r0, #10
10003bc4:	f004 f9a2 	bl	10007f0c <__wrap_putchar>
10003bc8:	bd70      	pop	{r4, r5, r6, pc}
10003bca:	46c0      	nop			; (mov r8, r8)
10003bcc:	1000c6cc 	.word	0x1000c6cc
10003bd0:	1000c6dc 	.word	0x1000c6dc

10003bd4 <gpio_set_function>:
10003bd4:	b510      	push	{r4, lr}
10003bd6:	0083      	lsls	r3, r0, #2
10003bd8:	4a08      	ldr	r2, [pc, #32]	; (10003bfc <gpio_set_function+0x28>)
10003bda:	4694      	mov	ip, r2
10003bdc:	4463      	add	r3, ip
10003bde:	681c      	ldr	r4, [r3, #0]
10003be0:	2240      	movs	r2, #64	; 0x40
10003be2:	4062      	eors	r2, r4
10003be4:	24c0      	movs	r4, #192	; 0xc0
10003be6:	4014      	ands	r4, r2
10003be8:	2280      	movs	r2, #128	; 0x80
10003bea:	0152      	lsls	r2, r2, #5
10003bec:	4313      	orrs	r3, r2
10003bee:	601c      	str	r4, [r3, #0]
10003bf0:	00c0      	lsls	r0, r0, #3
10003bf2:	4b03      	ldr	r3, [pc, #12]	; (10003c00 <gpio_set_function+0x2c>)
10003bf4:	469c      	mov	ip, r3
10003bf6:	4460      	add	r0, ip
10003bf8:	6041      	str	r1, [r0, #4]
10003bfa:	bd10      	pop	{r4, pc}
10003bfc:	4001c004 	.word	0x4001c004
10003c00:	40014000 	.word	0x40014000

10003c04 <gpio_init>:
10003c04:	b510      	push	{r4, lr}
10003c06:	2301      	movs	r3, #1
10003c08:	4083      	lsls	r3, r0
10003c0a:	22d0      	movs	r2, #208	; 0xd0
10003c0c:	0612      	lsls	r2, r2, #24
10003c0e:	6293      	str	r3, [r2, #40]	; 0x28
10003c10:	6193      	str	r3, [r2, #24]
10003c12:	2105      	movs	r1, #5
10003c14:	f7ff ffde 	bl	10003bd4 <gpio_set_function>
10003c18:	bd10      	pop	{r4, pc}
	...

10003c1c <hw_claim_lock>:
10003c1c:	f3ef 8010 	mrs	r0, PRIMASK
10003c20:	b672      	cpsid	i
10003c22:	4b03      	ldr	r3, [pc, #12]	; (10003c30 <hw_claim_lock+0x14>)
10003c24:	681b      	ldr	r3, [r3, #0]
10003c26:	2b00      	cmp	r3, #0
10003c28:	d0fb      	beq.n	10003c22 <hw_claim_lock+0x6>
10003c2a:	f3bf 8f5f 	dmb	sy
10003c2e:	4770      	bx	lr
10003c30:	d000012c 	.word	0xd000012c

10003c34 <hw_claim_unlock>:
10003c34:	f3bf 8f5f 	dmb	sy
10003c38:	4b02      	ldr	r3, [pc, #8]	; (10003c44 <hw_claim_unlock+0x10>)
10003c3a:	2200      	movs	r2, #0
10003c3c:	601a      	str	r2, [r3, #0]
10003c3e:	f380 8810 	msr	PRIMASK, r0
10003c42:	4770      	bx	lr
10003c44:	d000012c 	.word	0xd000012c

10003c48 <hw_claim_or_assert>:
10003c48:	b5f8      	push	{r3, r4, r5, r6, r7, lr}
10003c4a:	0006      	movs	r6, r0
10003c4c:	000c      	movs	r4, r1
10003c4e:	0015      	movs	r5, r2
10003c50:	f7ff ffe4 	bl	10003c1c <hw_claim_lock>
10003c54:	08e3      	lsrs	r3, r4, #3
10003c56:	18f7      	adds	r7, r6, r3
10003c58:	5cf1      	ldrb	r1, [r6, r3]
10003c5a:	2207      	movs	r2, #7
10003c5c:	4022      	ands	r2, r4
10003c5e:	2301      	movs	r3, #1
10003c60:	4093      	lsls	r3, r2
10003c62:	420b      	tst	r3, r1
10003c64:	d105      	bne.n	10003c72 <hw_claim_or_assert+0x2a>
10003c66:	b2db      	uxtb	r3, r3
10003c68:	430b      	orrs	r3, r1
10003c6a:	703b      	strb	r3, [r7, #0]
10003c6c:	f7ff ffe2 	bl	10003c34 <hw_claim_unlock>
10003c70:	bdf8      	pop	{r3, r4, r5, r6, r7, pc}
10003c72:	0021      	movs	r1, r4
10003c74:	0028      	movs	r0, r5
10003c76:	f001 fdb5 	bl	100057e4 <panic>

10003c7a <hw_claim_unused_from_range>:
10003c7a:	b5f0      	push	{r4, r5, r6, r7, lr}
10003c7c:	b083      	sub	sp, #12
10003c7e:	0006      	movs	r6, r0
10003c80:	9101      	str	r1, [sp, #4]
10003c82:	0014      	movs	r4, r2
10003c84:	001f      	movs	r7, r3
10003c86:	f7ff ffc9 	bl	10003c1c <hw_claim_lock>
10003c8a:	e000      	b.n	10003c8e <hw_claim_unused_from_range+0x14>
10003c8c:	3401      	adds	r4, #1
10003c8e:	42bc      	cmp	r4, r7
10003c90:	d80c      	bhi.n	10003cac <hw_claim_unused_from_range+0x32>
10003c92:	08e3      	lsrs	r3, r4, #3
10003c94:	18f5      	adds	r5, r6, r3
10003c96:	5cf3      	ldrb	r3, [r6, r3]
10003c98:	2107      	movs	r1, #7
10003c9a:	4021      	ands	r1, r4
10003c9c:	2201      	movs	r2, #1
10003c9e:	408a      	lsls	r2, r1
10003ca0:	421a      	tst	r2, r3
10003ca2:	d1f3      	bne.n	10003c8c <hw_claim_unused_from_range+0x12>
10003ca4:	b2d2      	uxtb	r2, r2
10003ca6:	431a      	orrs	r2, r3
10003ca8:	702a      	strb	r2, [r5, #0]
10003caa:	e001      	b.n	10003cb0 <hw_claim_unused_from_range+0x36>
10003cac:	2401      	movs	r4, #1
10003cae:	4264      	negs	r4, r4
10003cb0:	f7ff ffc0 	bl	10003c34 <hw_claim_unlock>
10003cb4:	2c00      	cmp	r4, #0
10003cb6:	db02      	blt.n	10003cbe <hw_claim_unused_from_range+0x44>
10003cb8:	0020      	movs	r0, r4
10003cba:	b003      	add	sp, #12
10003cbc:	bdf0      	pop	{r4, r5, r6, r7, pc}
10003cbe:	9b01      	ldr	r3, [sp, #4]
10003cc0:	2b00      	cmp	r3, #0
10003cc2:	d0f9      	beq.n	10003cb8 <hw_claim_unused_from_range+0x3e>
10003cc4:	9808      	ldr	r0, [sp, #32]
10003cc6:	f001 fd8d 	bl	100057e4 <panic>
	...

10003ccc <running_on_fpga>:
10003ccc:	4b03      	ldr	r3, [pc, #12]	; (10003cdc <running_on_fpga+0x10>)
10003cce:	681b      	ldr	r3, [r3, #0]
10003cd0:	2002      	movs	r0, #2
10003cd2:	4018      	ands	r0, r3
10003cd4:	1e43      	subs	r3, r0, #1
10003cd6:	4198      	sbcs	r0, r3
10003cd8:	b2c0      	uxtb	r0, r0
10003cda:	4770      	bx	lr
10003cdc:	4006c000 	.word	0x4006c000

10003ce0 <spin_locks_reset>:
10003ce0:	2300      	movs	r3, #0
10003ce2:	e007      	b.n	10003cf4 <spin_locks_reset+0x14>
10003ce4:	4a05      	ldr	r2, [pc, #20]	; (10003cfc <spin_locks_reset+0x1c>)
10003ce6:	189a      	adds	r2, r3, r2
10003ce8:	0092      	lsls	r2, r2, #2
10003cea:	f3bf 8f5f 	dmb	sy
10003cee:	2100      	movs	r1, #0
10003cf0:	6011      	str	r1, [r2, #0]
10003cf2:	3301      	adds	r3, #1
10003cf4:	2b1f      	cmp	r3, #31
10003cf6:	d9f5      	bls.n	10003ce4 <spin_locks_reset+0x4>
10003cf8:	4770      	bx	lr
10003cfa:	46c0      	nop			; (mov r8, r8)
10003cfc:	34000040 	.word	0x34000040

10003d00 <next_striped_spin_lock_num>:
10003d00:	4a05      	ldr	r2, [pc, #20]	; (10003d18 <next_striped_spin_lock_num+0x18>)
10003d02:	7810      	ldrb	r0, [r2, #0]
10003d04:	1c43      	adds	r3, r0, #1
10003d06:	b2db      	uxtb	r3, r3
10003d08:	7013      	strb	r3, [r2, #0]
10003d0a:	2b17      	cmp	r3, #23
10003d0c:	d902      	bls.n	10003d14 <next_striped_spin_lock_num+0x14>
10003d0e:	0013      	movs	r3, r2
10003d10:	2210      	movs	r2, #16
10003d12:	701a      	strb	r2, [r3, #0]
10003d14:	4770      	bx	lr
10003d16:	46c0      	nop			; (mov r8, r8)
10003d18:	20000420 	.word	0x20000420

10003d1c <spin_lock_claim_unused>:
10003d1c:	b500      	push	{lr}
10003d1e:	b083      	sub	sp, #12
10003d20:	0001      	movs	r1, r0
10003d22:	4b04      	ldr	r3, [pc, #16]	; (10003d34 <spin_lock_claim_unused+0x18>)
10003d24:	9300      	str	r3, [sp, #0]
10003d26:	231f      	movs	r3, #31
10003d28:	2218      	movs	r2, #24
10003d2a:	4803      	ldr	r0, [pc, #12]	; (10003d38 <spin_lock_claim_unused+0x1c>)
10003d2c:	f7ff ffa5 	bl	10003c7a <hw_claim_unused_from_range>
10003d30:	b003      	add	sp, #12
10003d32:	bd00      	pop	{pc}
10003d34:	1000c6e0 	.word	0x1000c6e0
10003d38:	20001428 	.word	0x20001428

10003d3c <set_raw_irq_handler_and_unlock>:
10003d3c:	4b07      	ldr	r3, [pc, #28]	; (10003d5c <set_raw_irq_handler_and_unlock+0x20>)
10003d3e:	689b      	ldr	r3, [r3, #8]
10003d40:	3010      	adds	r0, #16
10003d42:	0080      	lsls	r0, r0, #2
10003d44:	5019      	str	r1, [r3, r0]
10003d46:	f3bf 8f5f 	dmb	sy
10003d4a:	f3bf 8f5f 	dmb	sy
10003d4e:	4b04      	ldr	r3, [pc, #16]	; (10003d60 <set_raw_irq_handler_and_unlock+0x24>)
10003d50:	2100      	movs	r1, #0
10003d52:	6019      	str	r1, [r3, #0]
10003d54:	f382 8810 	msr	PRIMASK, r2
10003d58:	4770      	bx	lr
10003d5a:	46c0      	nop			; (mov r8, r8)
10003d5c:	e000ed00 	.word	0xe000ed00
10003d60:	d0000124 	.word	0xd0000124

10003d64 <make_branch>:
10003d64:	b510      	push	{r4, lr}
10003d66:	1a09      	subs	r1, r1, r0
10003d68:	1f08      	subs	r0, r1, #4
10003d6a:	4b0a      	ldr	r3, [pc, #40]	; (10003d94 <make_branch+0x30>)
10003d6c:	469c      	mov	ip, r3
10003d6e:	4461      	add	r1, ip
10003d70:	4a09      	ldr	r2, [pc, #36]	; (10003d98 <make_branch+0x34>)
10003d72:	4291      	cmp	r1, r2
10003d74:	d808      	bhi.n	10003d88 <make_branch+0x24>
10003d76:	07c3      	lsls	r3, r0, #31
10003d78:	d406      	bmi.n	10003d88 <make_branch+0x24>
10003d7a:	1040      	asrs	r0, r0, #1
10003d7c:	0540      	lsls	r0, r0, #21
10003d7e:	0d40      	lsrs	r0, r0, #21
10003d80:	4b06      	ldr	r3, [pc, #24]	; (10003d9c <make_branch+0x38>)
10003d82:	4318      	orrs	r0, r3
10003d84:	b280      	uxth	r0, r0
10003d86:	bd10      	pop	{r4, pc}
10003d88:	4b05      	ldr	r3, [pc, #20]	; (10003da0 <make_branch+0x3c>)
10003d8a:	4a06      	ldr	r2, [pc, #24]	; (10003da4 <make_branch+0x40>)
10003d8c:	2199      	movs	r1, #153	; 0x99
10003d8e:	4806      	ldr	r0, [pc, #24]	; (10003da8 <make_branch+0x44>)
10003d90:	f001 fc8e 	bl	100056b0 <__assert_func>
10003d94:	000007fc 	.word	0x000007fc
10003d98:	00000ffe 	.word	0x00000ffe
10003d9c:	ffffe000 	.word	0xffffe000
10003da0:	1000c6fc 	.word	0x1000c6fc
10003da4:	1000c964 	.word	0x1000c964
10003da8:	1000c72c 	.word	0x1000c72c

10003dac <insert_branch_and_link>:
10003dac:	b510      	push	{r4, lr}
10003dae:	1a09      	subs	r1, r1, r0
10003db0:	3904      	subs	r1, #4
10003db2:	084c      	lsrs	r4, r1, #1
10003db4:	0b09      	lsrs	r1, r1, #12
10003db6:	d108      	bne.n	10003dca <insert_branch_and_link+0x1e>
10003db8:	0549      	lsls	r1, r1, #21
10003dba:	0d49      	lsrs	r1, r1, #21
10003dbc:	4a06      	ldr	r2, [pc, #24]	; (10003dd8 <insert_branch_and_link+0x2c>)
10003dbe:	4311      	orrs	r1, r2
10003dc0:	8001      	strh	r1, [r0, #0]
10003dc2:	4b06      	ldr	r3, [pc, #24]	; (10003ddc <insert_branch_and_link+0x30>)
10003dc4:	4323      	orrs	r3, r4
10003dc6:	8043      	strh	r3, [r0, #2]
10003dc8:	bd10      	pop	{r4, pc}
10003dca:	4b05      	ldr	r3, [pc, #20]	; (10003de0 <insert_branch_and_link+0x34>)
10003dcc:	4a05      	ldr	r2, [pc, #20]	; (10003de4 <insert_branch_and_link+0x38>)
10003dce:	21a1      	movs	r1, #161	; 0xa1
10003dd0:	4805      	ldr	r0, [pc, #20]	; (10003de8 <insert_branch_and_link+0x3c>)
10003dd2:	f001 fc6d 	bl	100056b0 <__assert_func>
10003dd6:	46c0      	nop			; (mov r8, r8)
10003dd8:	fffff000 	.word	0xfffff000
10003ddc:	fffff800 	.word	0xfffff800
10003de0:	1000c774 	.word	0x1000c774
10003de4:	1000c938 	.word	0x1000c938
10003de8:	1000c72c 	.word	0x1000c72c

10003dec <irq_is_enabled>:
10003dec:	2301      	movs	r3, #1
10003dee:	4083      	lsls	r3, r0
10003df0:	4a03      	ldr	r2, [pc, #12]	; (10003e00 <irq_is_enabled+0x14>)
10003df2:	6810      	ldr	r0, [r2, #0]
10003df4:	4018      	ands	r0, r3
10003df6:	1e43      	subs	r3, r0, #1
10003df8:	4198      	sbcs	r0, r3
10003dfa:	b2c0      	uxtb	r0, r0
10003dfc:	4770      	bx	lr
10003dfe:	46c0      	nop			; (mov r8, r8)
10003e00:	e000e100 	.word	0xe000e100

10003e04 <irq_set_mask_enabled>:
10003e04:	2900      	cmp	r1, #0
10003e06:	d004      	beq.n	10003e12 <irq_set_mask_enabled+0xe>
10003e08:	4b03      	ldr	r3, [pc, #12]	; (10003e18 <irq_set_mask_enabled+0x14>)
10003e0a:	6018      	str	r0, [r3, #0]
10003e0c:	4b03      	ldr	r3, [pc, #12]	; (10003e1c <irq_set_mask_enabled+0x18>)
10003e0e:	6018      	str	r0, [r3, #0]
10003e10:	4770      	bx	lr
10003e12:	4b03      	ldr	r3, [pc, #12]	; (10003e20 <irq_set_mask_enabled+0x1c>)
10003e14:	6018      	str	r0, [r3, #0]
10003e16:	e7fb      	b.n	10003e10 <irq_set_mask_enabled+0xc>
10003e18:	e000e280 	.word	0xe000e280
10003e1c:	e000e100 	.word	0xe000e100
10003e20:	e000e180 	.word	0xe000e180

10003e24 <irq_set_enabled>:
10003e24:	b510      	push	{r4, lr}
10003e26:	2301      	movs	r3, #1
10003e28:	4083      	lsls	r3, r0
10003e2a:	0018      	movs	r0, r3
10003e2c:	f7ff ffea 	bl	10003e04 <irq_set_mask_enabled>
10003e30:	bd10      	pop	{r4, pc}
	...

10003e34 <irq_set_pending>:
10003e34:	2301      	movs	r3, #1
10003e36:	4083      	lsls	r3, r0
10003e38:	4a01      	ldr	r2, [pc, #4]	; (10003e40 <irq_set_pending+0xc>)
10003e3a:	6013      	str	r3, [r2, #0]
10003e3c:	4770      	bx	lr
10003e3e:	46c0      	nop			; (mov r8, r8)
10003e40:	e000e200 	.word	0xe000e200

10003e44 <irq_get_vtable_handler>:
10003e44:	4b02      	ldr	r3, [pc, #8]	; (10003e50 <irq_get_vtable_handler+0xc>)
10003e46:	689b      	ldr	r3, [r3, #8]
10003e48:	3010      	adds	r0, #16
10003e4a:	0080      	lsls	r0, r0, #2
10003e4c:	58c0      	ldr	r0, [r0, r3]
10003e4e:	4770      	bx	lr
10003e50:	e000ed00 	.word	0xe000ed00

10003e54 <irq_has_shared_handler>:
10003e54:	b510      	push	{r4, lr}
10003e56:	f7ff fff5 	bl	10003e44 <irq_get_vtable_handler>
10003e5a:	2800      	cmp	r0, #0
10003e5c:	d005      	beq.n	10003e6a <irq_has_shared_handler+0x16>
10003e5e:	4b05      	ldr	r3, [pc, #20]	; (10003e74 <irq_has_shared_handler+0x20>)
10003e60:	1ac0      	subs	r0, r0, r3
10003e62:	282f      	cmp	r0, #47	; 0x2f
10003e64:	d803      	bhi.n	10003e6e <irq_has_shared_handler+0x1a>
10003e66:	2001      	movs	r0, #1
10003e68:	bd10      	pop	{r4, pc}
10003e6a:	2000      	movs	r0, #0
10003e6c:	e7fc      	b.n	10003e68 <irq_has_shared_handler+0x14>
10003e6e:	2000      	movs	r0, #0
10003e70:	e7fa      	b.n	10003e68 <irq_has_shared_handler+0x14>
10003e72:	46c0      	nop			; (mov r8, r8)
10003e74:	20000424 	.word	0x20000424

10003e78 <irq_set_exclusive_handler>:
10003e78:	b570      	push	{r4, r5, r6, lr}
10003e7a:	0004      	movs	r4, r0
10003e7c:	000d      	movs	r5, r1
10003e7e:	f3ef 8610 	mrs	r6, PRIMASK
10003e82:	b672      	cpsid	i
10003e84:	4b0c      	ldr	r3, [pc, #48]	; (10003eb8 <irq_set_exclusive_handler+0x40>)
10003e86:	681b      	ldr	r3, [r3, #0]
10003e88:	2b00      	cmp	r3, #0
10003e8a:	d0fb      	beq.n	10003e84 <irq_set_exclusive_handler+0xc>
10003e8c:	f3bf 8f5f 	dmb	sy
10003e90:	0020      	movs	r0, r4
10003e92:	f7ff ffd7 	bl	10003e44 <irq_get_vtable_handler>
10003e96:	4b09      	ldr	r3, [pc, #36]	; (10003ebc <irq_set_exclusive_handler+0x44>)
10003e98:	4298      	cmp	r0, r3
10003e9a:	d001      	beq.n	10003ea0 <irq_set_exclusive_handler+0x28>
10003e9c:	42a8      	cmp	r0, r5
10003e9e:	d105      	bne.n	10003eac <irq_set_exclusive_handler+0x34>
10003ea0:	0032      	movs	r2, r6
10003ea2:	0029      	movs	r1, r5
10003ea4:	0020      	movs	r0, r4
10003ea6:	f7ff ff49 	bl	10003d3c <set_raw_irq_handler_and_unlock>
10003eaa:	bd70      	pop	{r4, r5, r6, pc}
10003eac:	4b04      	ldr	r3, [pc, #16]	; (10003ec0 <irq_set_exclusive_handler+0x48>)
10003eae:	4a05      	ldr	r2, [pc, #20]	; (10003ec4 <irq_set_exclusive_handler+0x4c>)
10003eb0:	217c      	movs	r1, #124	; 0x7c
10003eb2:	4805      	ldr	r0, [pc, #20]	; (10003ec8 <irq_set_exclusive_handler+0x50>)
10003eb4:	f001 fbfc 	bl	100056b0 <__assert_func>
10003eb8:	d0000124 	.word	0xd0000124
10003ebc:	100001cd 	.word	0x100001cd
10003ec0:	1000c784 	.word	0x1000c784
10003ec4:	1000c998 	.word	0x1000c998
10003ec8:	1000c72c 	.word	0x1000c72c

10003ecc <irq_add_shared_handler>:
10003ecc:	b5f0      	push	{r4, r5, r6, r7, lr}
10003ece:	46de      	mov	lr, fp
10003ed0:	4657      	mov	r7, sl
10003ed2:	464e      	mov	r6, r9
10003ed4:	4645      	mov	r5, r8
10003ed6:	b5e0      	push	{r5, r6, r7, lr}
10003ed8:	b089      	sub	sp, #36	; 0x24
10003eda:	4681      	mov	r9, r0
10003edc:	9101      	str	r1, [sp, #4]
10003ede:	0015      	movs	r5, r2
10003ee0:	f3ef 8a10 	mrs	sl, PRIMASK
10003ee4:	b672      	cpsid	i
10003ee6:	4b74      	ldr	r3, [pc, #464]	; (100040b8 <irq_add_shared_handler+0x1ec>)
10003ee8:	681b      	ldr	r3, [r3, #0]
10003eea:	2b00      	cmp	r3, #0
10003eec:	d0fb      	beq.n	10003ee6 <irq_add_shared_handler+0x1a>
10003eee:	f3bf 8f5f 	dmb	sy
10003ef2:	4b72      	ldr	r3, [pc, #456]	; (100040bc <irq_add_shared_handler+0x1f0>)
10003ef4:	2700      	movs	r7, #0
10003ef6:	57df      	ldrsb	r7, [r3, r7]
10003ef8:	2f00      	cmp	r7, #0
10003efa:	db40      	blt.n	10003f7e <irq_add_shared_handler+0xb2>
10003efc:	007c      	lsls	r4, r7, #1
10003efe:	19e4      	adds	r4, r4, r7
10003f00:	00a4      	lsls	r4, r4, #2
10003f02:	486f      	ldr	r0, [pc, #444]	; (100040c0 <irq_add_shared_handler+0x1f4>)
10003f04:	1824      	adds	r4, r4, r0
10003f06:	2206      	movs	r2, #6
10003f08:	56a2      	ldrsb	r2, [r4, r2]
10003f0a:	4b6c      	ldr	r3, [pc, #432]	; (100040bc <irq_add_shared_handler+0x1f0>)
10003f0c:	701a      	strb	r2, [r3, #0]
10003f0e:	4b6d      	ldr	r3, [pc, #436]	; (100040c4 <irq_add_shared_handler+0x1f8>)
10003f10:	689a      	ldr	r2, [r3, #8]
10003f12:	464b      	mov	r3, r9
10003f14:	3310      	adds	r3, #16
10003f16:	009b      	lsls	r3, r3, #2
10003f18:	58d3      	ldr	r3, [r2, r3]
10003f1a:	4698      	mov	r8, r3
10003f1c:	001e      	movs	r6, r3
10003f1e:	1a1b      	subs	r3, r3, r0
10003f20:	2b2f      	cmp	r3, #47	; 0x2f
10003f22:	d938      	bls.n	10003f96 <irq_add_shared_handler+0xca>
10003f24:	4b68      	ldr	r3, [pc, #416]	; (100040c8 <irq_add_shared_handler+0x1fc>)
10003f26:	4598      	cmp	r8, r3
10003f28:	d12f      	bne.n	10003f8a <irq_add_shared_handler+0xbe>
10003f2a:	ae05      	add	r6, sp, #20
10003f2c:	4b67      	ldr	r3, [pc, #412]	; (100040cc <irq_add_shared_handler+0x200>)
10003f2e:	8033      	strh	r3, [r6, #0]
10003f30:	007b      	lsls	r3, r7, #1
10003f32:	469b      	mov	fp, r3
10003f34:	19d8      	adds	r0, r3, r7
10003f36:	0080      	lsls	r0, r0, #2
10003f38:	4b61      	ldr	r3, [pc, #388]	; (100040c0 <irq_add_shared_handler+0x1f4>)
10003f3a:	4698      	mov	r8, r3
10003f3c:	4440      	add	r0, r8
10003f3e:	3002      	adds	r0, #2
10003f40:	4963      	ldr	r1, [pc, #396]	; (100040d0 <irq_add_shared_handler+0x204>)
10003f42:	f7ff ff0f 	bl	10003d64 <make_branch>
10003f46:	8070      	strh	r0, [r6, #2]
10003f48:	4b62      	ldr	r3, [pc, #392]	; (100040d4 <irq_add_shared_handler+0x208>)
10003f4a:	80b3      	strh	r3, [r6, #4]
10003f4c:	23ff      	movs	r3, #255	; 0xff
10003f4e:	71b3      	strb	r3, [r6, #6]
10003f50:	71f5      	strb	r5, [r6, #7]
10003f52:	9b01      	ldr	r3, [sp, #4]
10003f54:	9307      	str	r3, [sp, #28]
10003f56:	445f      	add	r7, fp
10003f58:	00bf      	lsls	r7, r7, #2
10003f5a:	4447      	add	r7, r8
10003f5c:	ce0e      	ldmia	r6!, {r1, r2, r3}
10003f5e:	c70e      	stmia	r7!, {r1, r2, r3}
10003f60:	2301      	movs	r3, #1
10003f62:	431c      	orrs	r4, r3
10003f64:	46a0      	mov	r8, r4
10003f66:	4652      	mov	r2, sl
10003f68:	4641      	mov	r1, r8
10003f6a:	4648      	mov	r0, r9
10003f6c:	f7ff fee6 	bl	10003d3c <set_raw_irq_handler_and_unlock>
10003f70:	b009      	add	sp, #36	; 0x24
10003f72:	bcf0      	pop	{r4, r5, r6, r7}
10003f74:	46bb      	mov	fp, r7
10003f76:	46b2      	mov	sl, r6
10003f78:	46a9      	mov	r9, r5
10003f7a:	46a0      	mov	r8, r4
10003f7c:	bdf0      	pop	{r4, r5, r6, r7, pc}
10003f7e:	4b56      	ldr	r3, [pc, #344]	; (100040d8 <irq_add_shared_handler+0x20c>)
10003f80:	4a56      	ldr	r2, [pc, #344]	; (100040dc <irq_add_shared_handler+0x210>)
10003f82:	21cd      	movs	r1, #205	; 0xcd
10003f84:	4856      	ldr	r0, [pc, #344]	; (100040e0 <irq_add_shared_handler+0x214>)
10003f86:	f001 fb93 	bl	100056b0 <__assert_func>
10003f8a:	4b56      	ldr	r3, [pc, #344]	; (100040e4 <irq_add_shared_handler+0x218>)
10003f8c:	4a53      	ldr	r2, [pc, #332]	; (100040dc <irq_add_shared_handler+0x210>)
10003f8e:	21d4      	movs	r1, #212	; 0xd4
10003f90:	4853      	ldr	r0, [pc, #332]	; (100040e0 <irq_add_shared_handler+0x214>)
10003f92:	f001 fb8d 	bl	100056b0 <__assert_func>
10003f96:	43c0      	mvns	r0, r0
10003f98:	4440      	add	r0, r8
10003f9a:	210c      	movs	r1, #12
10003f9c:	f002 ff5e 	bl	10006e5c <__wrap___aeabi_uidiv>
10003fa0:	2900      	cmp	r1, #0
10003fa2:	d112      	bne.n	10003fca <irq_add_shared_handler+0xfe>
10003fa4:	2301      	movs	r3, #1
10003fa6:	439e      	bics	r6, r3
10003fa8:	46b3      	mov	fp, r6
10003faa:	0033      	movs	r3, r6
10003fac:	2600      	movs	r6, #0
10003fae:	79da      	ldrb	r2, [r3, #7]
10003fb0:	42aa      	cmp	r2, r5
10003fb2:	d911      	bls.n	10003fd8 <irq_add_shared_handler+0x10c>
10003fb4:	2106      	movs	r1, #6
10003fb6:	5659      	ldrsb	r1, [r3, r1]
10003fb8:	2900      	cmp	r1, #0
10003fba:	db0c      	blt.n	10003fd6 <irq_add_shared_handler+0x10a>
10003fbc:	004a      	lsls	r2, r1, #1
10003fbe:	1852      	adds	r2, r2, r1
10003fc0:	0092      	lsls	r2, r2, #2
10003fc2:	001e      	movs	r6, r3
10003fc4:	4b3e      	ldr	r3, [pc, #248]	; (100040c0 <irq_add_shared_handler+0x1f4>)
10003fc6:	189b      	adds	r3, r3, r2
10003fc8:	e7f1      	b.n	10003fae <irq_add_shared_handler+0xe2>
10003fca:	4b47      	ldr	r3, [pc, #284]	; (100040e8 <irq_add_shared_handler+0x21c>)
10003fcc:	4a43      	ldr	r2, [pc, #268]	; (100040dc <irq_add_shared_handler+0x210>)
10003fce:	21e0      	movs	r1, #224	; 0xe0
10003fd0:	4843      	ldr	r0, [pc, #268]	; (100040e0 <irq_add_shared_handler+0x214>)
10003fd2:	f001 fb6d 	bl	100056b0 <__assert_func>
10003fd6:	001e      	movs	r6, r3
10003fd8:	2e00      	cmp	r6, #0
10003fda:	d03b      	beq.n	10004054 <irq_add_shared_handler+0x188>
10003fdc:	ab05      	add	r3, sp, #20
10003fde:	4a43      	ldr	r2, [pc, #268]	; (100040ec <irq_add_shared_handler+0x220>)
10003fe0:	801a      	strh	r2, [r3, #0]
10003fe2:	3a81      	subs	r2, #129	; 0x81
10003fe4:	805a      	strh	r2, [r3, #2]
10003fe6:	2306      	movs	r3, #6
10003fe8:	56f3      	ldrsb	r3, [r6, r3]
10003fea:	9302      	str	r3, [sp, #8]
10003fec:	2b00      	cmp	r3, #0
10003fee:	da18      	bge.n	10004022 <irq_add_shared_handler+0x156>
10003ff0:	20bd      	movs	r0, #189	; 0xbd
10003ff2:	0200      	lsls	r0, r0, #8
10003ff4:	ab05      	add	r3, sp, #20
10003ff6:	469b      	mov	fp, r3
10003ff8:	8098      	strh	r0, [r3, #4]
10003ffa:	9a02      	ldr	r2, [sp, #8]
10003ffc:	719a      	strb	r2, [r3, #6]
10003ffe:	71dd      	strb	r5, [r3, #7]
10004000:	9a01      	ldr	r2, [sp, #4]
10004002:	9207      	str	r2, [sp, #28]
10004004:	1d30      	adds	r0, r6, #4
10004006:	0021      	movs	r1, r4
10004008:	f7ff feac 	bl	10003d64 <make_branch>
1000400c:	80b0      	strh	r0, [r6, #4]
1000400e:	71b7      	strb	r7, [r6, #6]
10004010:	007b      	lsls	r3, r7, #1
10004012:	19db      	adds	r3, r3, r7
10004014:	009b      	lsls	r3, r3, #2
10004016:	4f2a      	ldr	r7, [pc, #168]	; (100040c0 <irq_add_shared_handler+0x1f4>)
10004018:	18ff      	adds	r7, r7, r3
1000401a:	465b      	mov	r3, fp
1000401c:	cb07      	ldmia	r3!, {r0, r1, r2}
1000401e:	c707      	stmia	r7!, {r0, r1, r2}
10004020:	e7a1      	b.n	10003f66 <irq_add_shared_handler+0x9a>
10004022:	0078      	lsls	r0, r7, #1
10004024:	19c0      	adds	r0, r0, r7
10004026:	0080      	lsls	r0, r0, #2
10004028:	4b25      	ldr	r3, [pc, #148]	; (100040c0 <irq_add_shared_handler+0x1f4>)
1000402a:	18c0      	adds	r0, r0, r3
1000402c:	3004      	adds	r0, #4
1000402e:	1d32      	adds	r2, r6, #4
10004030:	88b3      	ldrh	r3, [r6, #4]
10004032:	0ad9      	lsrs	r1, r3, #11
10004034:	291c      	cmp	r1, #28
10004036:	d107      	bne.n	10004048 <irq_add_shared_handler+0x17c>
10004038:	055b      	lsls	r3, r3, #21
1000403a:	1559      	asrs	r1, r3, #21
1000403c:	3102      	adds	r1, #2
1000403e:	0049      	lsls	r1, r1, #1
10004040:	1851      	adds	r1, r2, r1
10004042:	f7ff fe8f 	bl	10003d64 <make_branch>
10004046:	e7d5      	b.n	10003ff4 <irq_add_shared_handler+0x128>
10004048:	4b29      	ldr	r3, [pc, #164]	; (100040f0 <irq_add_shared_handler+0x224>)
1000404a:	4a2a      	ldr	r2, [pc, #168]	; (100040f4 <irq_add_shared_handler+0x228>)
1000404c:	21a7      	movs	r1, #167	; 0xa7
1000404e:	4824      	ldr	r0, [pc, #144]	; (100040e0 <irq_add_shared_handler+0x214>)
10004050:	f001 fb2e 	bl	100056b0 <__assert_func>
10004054:	ae05      	add	r6, sp, #20
10004056:	4b1d      	ldr	r3, [pc, #116]	; (100040cc <irq_add_shared_handler+0x200>)
10004058:	8033      	strh	r3, [r6, #0]
1000405a:	007b      	lsls	r3, r7, #1
1000405c:	9302      	str	r3, [sp, #8]
1000405e:	19d8      	adds	r0, r3, r7
10004060:	0080      	lsls	r0, r0, #2
10004062:	4a17      	ldr	r2, [pc, #92]	; (100040c0 <irq_add_shared_handler+0x1f4>)
10004064:	4690      	mov	r8, r2
10004066:	0002      	movs	r2, r0
10004068:	4442      	add	r2, r8
1000406a:	9203      	str	r2, [sp, #12]
1000406c:	1c90      	adds	r0, r2, #2
1000406e:	4918      	ldr	r1, [pc, #96]	; (100040d0 <irq_add_shared_handler+0x204>)
10004070:	f7ff fe78 	bl	10003d64 <make_branch>
10004074:	8070      	strh	r0, [r6, #2]
10004076:	9a03      	ldr	r2, [sp, #12]
10004078:	1d10      	adds	r0, r2, #4
1000407a:	4659      	mov	r1, fp
1000407c:	f7ff fe72 	bl	10003d64 <make_branch>
10004080:	80b0      	strh	r0, [r6, #4]
10004082:	4b1d      	ldr	r3, [pc, #116]	; (100040f8 <irq_add_shared_handler+0x22c>)
10004084:	465a      	mov	r2, fp
10004086:	4641      	mov	r1, r8
10004088:	1a52      	subs	r2, r2, r1
1000408a:	4152      	adcs	r2, r2
1000408c:	4353      	muls	r3, r2
1000408e:	0d1b      	lsrs	r3, r3, #20
10004090:	71b3      	strb	r3, [r6, #6]
10004092:	71f5      	strb	r5, [r6, #7]
10004094:	9a01      	ldr	r2, [sp, #4]
10004096:	9207      	str	r2, [sp, #28]
10004098:	9b02      	ldr	r3, [sp, #8]
1000409a:	469c      	mov	ip, r3
1000409c:	4467      	add	r7, ip
1000409e:	00bf      	lsls	r7, r7, #2
100040a0:	4447      	add	r7, r8
100040a2:	ce0e      	ldmia	r6!, {r1, r2, r3}
100040a4:	c70e      	stmia	r7!, {r1, r2, r3}
100040a6:	4b11      	ldr	r3, [pc, #68]	; (100040ec <irq_add_shared_handler+0x220>)
100040a8:	465a      	mov	r2, fp
100040aa:	8013      	strh	r3, [r2, #0]
100040ac:	3b81      	subs	r3, #129	; 0x81
100040ae:	8053      	strh	r3, [r2, #2]
100040b0:	2301      	movs	r3, #1
100040b2:	431c      	orrs	r4, r3
100040b4:	46a0      	mov	r8, r4
100040b6:	e756      	b.n	10003f66 <irq_add_shared_handler+0x9a>
100040b8:	d0000124 	.word	0xd0000124
100040bc:	20001b26 	.word	0x20001b26
100040c0:	20000424 	.word	0x20000424
100040c4:	e000ed00 	.word	0xe000ed00
100040c8:	100001cd 	.word	0x100001cd
100040cc:	ffffa100 	.word	0xffffa100
100040d0:	20000454 	.word	0x20000454
100040d4:	ffffbd00 	.word	0xffffbd00
100040d8:	1000c7bc 	.word	0x1000c7bc
100040dc:	1000c980 	.word	0x1000c980
100040e0:	1000c72c 	.word	0x1000c72c
100040e4:	1000c7e4 	.word	0x1000c7e4
100040e8:	1000c80c 	.word	0x1000c80c
100040ec:	00004801 	.word	0x00004801
100040f0:	1000c880 	.word	0x1000c880
100040f4:	1000c970 	.word	0x1000c970
100040f8:	0000aaaa 	.word	0x0000aaaa

100040fc <irq_remove_handler>:
100040fc:	b5f0      	push	{r4, r5, r6, r7, lr}
100040fe:	46ce      	mov	lr, r9
10004100:	4647      	mov	r7, r8
10004102:	b580      	push	{r7, lr}
10004104:	b083      	sub	sp, #12
10004106:	0006      	movs	r6, r0
10004108:	000d      	movs	r5, r1
1000410a:	f3ef 8810 	mrs	r8, PRIMASK
1000410e:	b672      	cpsid	i
10004110:	4b56      	ldr	r3, [pc, #344]	; (1000426c <irq_remove_handler+0x170>)
10004112:	681b      	ldr	r3, [r3, #0]
10004114:	2b00      	cmp	r3, #0
10004116:	d0fb      	beq.n	10004110 <irq_remove_handler+0x14>
10004118:	f3bf 8f5f 	dmb	sy
1000411c:	4b54      	ldr	r3, [pc, #336]	; (10004270 <irq_remove_handler+0x174>)
1000411e:	689a      	ldr	r2, [r3, #8]
10004120:	0034      	movs	r4, r6
10004122:	3410      	adds	r4, #16
10004124:	00a3      	lsls	r3, r4, #2
10004126:	58d7      	ldr	r7, [r2, r3]
10004128:	4b52      	ldr	r3, [pc, #328]	; (10004274 <irq_remove_handler+0x178>)
1000412a:	429f      	cmp	r7, r3
1000412c:	d007      	beq.n	1000413e <irq_remove_handler+0x42>
1000412e:	42af      	cmp	r7, r5
10004130:	d100      	bne.n	10004134 <irq_remove_handler+0x38>
10004132:	e099      	b.n	10004268 <irq_remove_handler+0x16c>
10004134:	9701      	str	r7, [sp, #4]
10004136:	4b50      	ldr	r3, [pc, #320]	; (10004278 <irq_remove_handler+0x17c>)
10004138:	1afb      	subs	r3, r7, r3
1000413a:	2b2f      	cmp	r3, #47	; 0x2f
1000413c:	d909      	bls.n	10004152 <irq_remove_handler+0x56>
1000413e:	4642      	mov	r2, r8
10004140:	0039      	movs	r1, r7
10004142:	0030      	movs	r0, r6
10004144:	f7ff fdfa 	bl	10003d3c <set_raw_irq_handler_and_unlock>
10004148:	b003      	add	sp, #12
1000414a:	bcc0      	pop	{r6, r7}
1000414c:	46b9      	mov	r9, r7
1000414e:	46b0      	mov	r8, r6
10004150:	bdf0      	pop	{r4, r5, r6, r7, pc}
10004152:	0030      	movs	r0, r6
10004154:	f7ff fe4a 	bl	10003dec <irq_is_enabled>
10004158:	4681      	mov	r9, r0
1000415a:	2100      	movs	r1, #0
1000415c:	0030      	movs	r0, r6
1000415e:	f7ff fe61 	bl	10003e24 <irq_set_enabled>
10004162:	f3bf 8f5f 	dmb	sy
10004166:	f7fc f87e 	bl	10000266 <__get_current_exception>
1000416a:	2800      	cmp	r0, #0
1000416c:	d001      	beq.n	10004172 <irq_remove_handler+0x76>
1000416e:	4284      	cmp	r4, r0
10004170:	d111      	bne.n	10004196 <irq_remove_handler+0x9a>
10004172:	2301      	movs	r3, #1
10004174:	9c01      	ldr	r4, [sp, #4]
10004176:	439c      	bics	r4, r3
10004178:	2200      	movs	r2, #0
1000417a:	68a3      	ldr	r3, [r4, #8]
1000417c:	42ab      	cmp	r3, r5
1000417e:	d012      	beq.n	100041a6 <irq_remove_handler+0xaa>
10004180:	2206      	movs	r2, #6
10004182:	56a2      	ldrsb	r2, [r4, r2]
10004184:	2a00      	cmp	r2, #0
10004186:	db0d      	blt.n	100041a4 <irq_remove_handler+0xa8>
10004188:	0053      	lsls	r3, r2, #1
1000418a:	189b      	adds	r3, r3, r2
1000418c:	009b      	lsls	r3, r3, #2
1000418e:	0022      	movs	r2, r4
10004190:	4c39      	ldr	r4, [pc, #228]	; (10004278 <irq_remove_handler+0x17c>)
10004192:	18e4      	adds	r4, r4, r3
10004194:	e7f1      	b.n	1000417a <irq_remove_handler+0x7e>
10004196:	212c      	movs	r1, #44	; 0x2c
10004198:	4b38      	ldr	r3, [pc, #224]	; (1000427c <irq_remove_handler+0x180>)
1000419a:	4a39      	ldr	r2, [pc, #228]	; (10004280 <irq_remove_handler+0x184>)
1000419c:	31ff      	adds	r1, #255	; 0xff
1000419e:	4839      	ldr	r0, [pc, #228]	; (10004284 <irq_remove_handler+0x188>)
100041a0:	f001 fa86 	bl	100056b0 <__assert_func>
100041a4:	0022      	movs	r2, r4
100041a6:	42ab      	cmp	r3, r5
100041a8:	d157      	bne.n	1000425a <irq_remove_handler+0x15e>
100041aa:	2506      	movs	r5, #6
100041ac:	5765      	ldrsb	r5, [r4, r5]
100041ae:	2d00      	cmp	r5, #0
100041b0:	db39      	blt.n	10004226 <irq_remove_handler+0x12a>
100041b2:	006b      	lsls	r3, r5, #1
100041b4:	195b      	adds	r3, r3, r5
100041b6:	009a      	lsls	r2, r3, #2
100041b8:	4b2f      	ldr	r3, [pc, #188]	; (10004278 <irq_remove_handler+0x17c>)
100041ba:	189b      	adds	r3, r3, r2
100041bc:	689a      	ldr	r2, [r3, #8]
100041be:	60a2      	str	r2, [r4, #8]
100041c0:	79da      	ldrb	r2, [r3, #7]
100041c2:	71e2      	strb	r2, [r4, #7]
100041c4:	2206      	movs	r2, #6
100041c6:	569a      	ldrsb	r2, [r3, r2]
100041c8:	71a2      	strb	r2, [r4, #6]
100041ca:	799b      	ldrb	r3, [r3, #6]
100041cc:	b25b      	sxtb	r3, r3
100041ce:	2b00      	cmp	r3, #0
100041d0:	da10      	bge.n	100041f4 <irq_remove_handler+0xf8>
100041d2:	20bd      	movs	r0, #189	; 0xbd
100041d4:	0200      	lsls	r0, r0, #8
100041d6:	80a0      	strh	r0, [r4, #4]
100041d8:	006b      	lsls	r3, r5, #1
100041da:	195b      	adds	r3, r3, r5
100041dc:	009b      	lsls	r3, r3, #2
100041de:	4a26      	ldr	r2, [pc, #152]	; (10004278 <irq_remove_handler+0x17c>)
100041e0:	18d3      	adds	r3, r2, r3
100041e2:	4a29      	ldr	r2, [pc, #164]	; (10004288 <irq_remove_handler+0x18c>)
100041e4:	7811      	ldrb	r1, [r2, #0]
100041e6:	7199      	strb	r1, [r3, #6]
100041e8:	7015      	strb	r5, [r2, #0]
100041ea:	4649      	mov	r1, r9
100041ec:	0030      	movs	r0, r6
100041ee:	f7ff fe19 	bl	10003e24 <irq_set_enabled>
100041f2:	e7a4      	b.n	1000413e <irq_remove_handler+0x42>
100041f4:	1d20      	adds	r0, r4, #4
100041f6:	006b      	lsls	r3, r5, #1
100041f8:	195b      	adds	r3, r3, r5
100041fa:	009b      	lsls	r3, r3, #2
100041fc:	4a1e      	ldr	r2, [pc, #120]	; (10004278 <irq_remove_handler+0x17c>)
100041fe:	189b      	adds	r3, r3, r2
10004200:	1d1a      	adds	r2, r3, #4
10004202:	889b      	ldrh	r3, [r3, #4]
10004204:	0ad9      	lsrs	r1, r3, #11
10004206:	291c      	cmp	r1, #28
10004208:	d107      	bne.n	1000421a <irq_remove_handler+0x11e>
1000420a:	055b      	lsls	r3, r3, #21
1000420c:	155b      	asrs	r3, r3, #21
1000420e:	3302      	adds	r3, #2
10004210:	0059      	lsls	r1, r3, #1
10004212:	1851      	adds	r1, r2, r1
10004214:	f7ff fda6 	bl	10003d64 <make_branch>
10004218:	e7dd      	b.n	100041d6 <irq_remove_handler+0xda>
1000421a:	4b1c      	ldr	r3, [pc, #112]	; (1000428c <irq_remove_handler+0x190>)
1000421c:	4a1c      	ldr	r2, [pc, #112]	; (10004290 <irq_remove_handler+0x194>)
1000421e:	21a7      	movs	r1, #167	; 0xa7
10004220:	4818      	ldr	r0, [pc, #96]	; (10004284 <irq_remove_handler+0x188>)
10004222:	f001 fa45 	bl	100056b0 <__assert_func>
10004226:	2800      	cmp	r0, #0
10004228:	d112      	bne.n	10004250 <irq_remove_handler+0x154>
1000422a:	2a00      	cmp	r2, #0
1000422c:	d00e      	beq.n	1000424c <irq_remove_handler+0x150>
1000422e:	23ff      	movs	r3, #255	; 0xff
10004230:	7193      	strb	r3, [r2, #6]
10004232:	4b18      	ldr	r3, [pc, #96]	; (10004294 <irq_remove_handler+0x198>)
10004234:	8093      	strh	r3, [r2, #4]
10004236:	4a14      	ldr	r2, [pc, #80]	; (10004288 <irq_remove_handler+0x18c>)
10004238:	7813      	ldrb	r3, [r2, #0]
1000423a:	71a3      	strb	r3, [r4, #6]
1000423c:	4b16      	ldr	r3, [pc, #88]	; (10004298 <irq_remove_handler+0x19c>)
1000423e:	490e      	ldr	r1, [pc, #56]	; (10004278 <irq_remove_handler+0x17c>)
10004240:	1a64      	subs	r4, r4, r1
10004242:	4164      	adcs	r4, r4
10004244:	4363      	muls	r3, r4
10004246:	0d1b      	lsrs	r3, r3, #20
10004248:	7013      	strb	r3, [r2, #0]
1000424a:	e7ce      	b.n	100041ea <irq_remove_handler+0xee>
1000424c:	4f09      	ldr	r7, [pc, #36]	; (10004274 <irq_remove_handler+0x178>)
1000424e:	e7f2      	b.n	10004236 <irq_remove_handler+0x13a>
10004250:	1d20      	adds	r0, r4, #4
10004252:	4912      	ldr	r1, [pc, #72]	; (1000429c <irq_remove_handler+0x1a0>)
10004254:	f7ff fdaa 	bl	10003dac <insert_branch_and_link>
10004258:	e7c7      	b.n	100041ea <irq_remove_handler+0xee>
1000425a:	2160      	movs	r1, #96	; 0x60
1000425c:	4b10      	ldr	r3, [pc, #64]	; (100042a0 <irq_remove_handler+0x1a4>)
1000425e:	4a08      	ldr	r2, [pc, #32]	; (10004280 <irq_remove_handler+0x184>)
10004260:	31ff      	adds	r1, #255	; 0xff
10004262:	4808      	ldr	r0, [pc, #32]	; (10004284 <irq_remove_handler+0x188>)
10004264:	f001 fa24 	bl	100056b0 <__assert_func>
10004268:	4f02      	ldr	r7, [pc, #8]	; (10004274 <irq_remove_handler+0x178>)
1000426a:	e768      	b.n	1000413e <irq_remove_handler+0x42>
1000426c:	d0000124 	.word	0xd0000124
10004270:	e000ed00 	.word	0xe000ed00
10004274:	100001cd 	.word	0x100001cd
10004278:	20000424 	.word	0x20000424
1000427c:	1000c898 	.word	0x1000c898
10004280:	1000c950 	.word	0x1000c950
10004284:	1000c72c 	.word	0x1000c72c
10004288:	20001b26 	.word	0x20001b26
1000428c:	1000c880 	.word	0x1000c880
10004290:	1000c970 	.word	0x1000c970
10004294:	ffffbd00 	.word	0xffffbd00
10004298:	0000aaaa 	.word	0x0000aaaa
1000429c:	2000045e 	.word	0x2000045e
100042a0:	1000c8bc 	.word	0x1000c8bc

100042a4 <irq_add_tail_to_free_list>:
100042a4:	b570      	push	{r4, r5, r6, lr}
100042a6:	0004      	movs	r4, r0
100042a8:	2601      	movs	r6, #1
100042aa:	4306      	orrs	r6, r0
100042ac:	4b2d      	ldr	r3, [pc, #180]	; (10004364 <irq_add_tail_to_free_list+0xc0>)
100042ae:	1af3      	subs	r3, r6, r3
100042b0:	2b2f      	cmp	r3, #47	; 0x2f
100042b2:	d828      	bhi.n	10004306 <irq_add_tail_to_free_list+0x62>
100042b4:	f7fb ffd7 	bl	10000266 <__get_current_exception>
100042b8:	2800      	cmp	r0, #0
100042ba:	d02b      	beq.n	10004314 <irq_add_tail_to_free_list+0x70>
100042bc:	f3ef 8c10 	mrs	ip, PRIMASK
100042c0:	b672      	cpsid	i
100042c2:	4b29      	ldr	r3, [pc, #164]	; (10004368 <irq_add_tail_to_free_list+0xc4>)
100042c4:	681b      	ldr	r3, [r3, #0]
100042c6:	2b00      	cmp	r3, #0
100042c8:	d0fb      	beq.n	100042c2 <irq_add_tail_to_free_list+0x1e>
100042ca:	f3bf 8f5f 	dmb	sy
100042ce:	4d27      	ldr	r5, [pc, #156]	; (1000436c <irq_add_tail_to_free_list+0xc8>)
100042d0:	0022      	movs	r2, r4
100042d2:	4924      	ldr	r1, [pc, #144]	; (10004364 <irq_add_tail_to_free_list+0xc0>)
100042d4:	1a52      	subs	r2, r2, r1
100042d6:	4152      	adcs	r2, r2
100042d8:	4355      	muls	r5, r2
100042da:	0d2d      	lsrs	r5, r5, #20
100042dc:	b26d      	sxtb	r5, r5
100042de:	4b24      	ldr	r3, [pc, #144]	; (10004370 <irq_add_tail_to_free_list+0xcc>)
100042e0:	689b      	ldr	r3, [r3, #8]
100042e2:	0080      	lsls	r0, r0, #2
100042e4:	581b      	ldr	r3, [r3, r0]
100042e6:	42b3      	cmp	r3, r6
100042e8:	d01b      	beq.n	10004322 <irq_add_tail_to_free_list+0x7e>
100042ea:	2200      	movs	r2, #0
100042ec:	2a03      	cmp	r2, #3
100042ee:	d832      	bhi.n	10004356 <irq_add_tail_to_free_list+0xb2>
100042f0:	0053      	lsls	r3, r2, #1
100042f2:	189b      	adds	r3, r3, r2
100042f4:	009b      	lsls	r3, r3, #2
100042f6:	491b      	ldr	r1, [pc, #108]	; (10004364 <irq_add_tail_to_free_list+0xc0>)
100042f8:	18cb      	adds	r3, r1, r3
100042fa:	799b      	ldrb	r3, [r3, #6]
100042fc:	b25b      	sxtb	r3, r3
100042fe:	42ab      	cmp	r3, r5
10004300:	d01f      	beq.n	10004342 <irq_add_tail_to_free_list+0x9e>
10004302:	3201      	adds	r2, #1
10004304:	e7f2      	b.n	100042ec <irq_add_tail_to_free_list+0x48>
10004306:	21c2      	movs	r1, #194	; 0xc2
10004308:	4b1a      	ldr	r3, [pc, #104]	; (10004374 <irq_add_tail_to_free_list+0xd0>)
1000430a:	4a1b      	ldr	r2, [pc, #108]	; (10004378 <irq_add_tail_to_free_list+0xd4>)
1000430c:	0049      	lsls	r1, r1, #1
1000430e:	481b      	ldr	r0, [pc, #108]	; (1000437c <irq_add_tail_to_free_list+0xd8>)
10004310:	f001 f9ce 	bl	100056b0 <__assert_func>
10004314:	2188      	movs	r1, #136	; 0x88
10004316:	4b1a      	ldr	r3, [pc, #104]	; (10004380 <irq_add_tail_to_free_list+0xdc>)
10004318:	4a17      	ldr	r2, [pc, #92]	; (10004378 <irq_add_tail_to_free_list+0xd4>)
1000431a:	31ff      	adds	r1, #255	; 0xff
1000431c:	4817      	ldr	r0, [pc, #92]	; (1000437c <irq_add_tail_to_free_list+0xd8>)
1000431e:	f001 f9c7 	bl	100056b0 <__assert_func>
10004322:	4b13      	ldr	r3, [pc, #76]	; (10004370 <irq_add_tail_to_free_list+0xcc>)
10004324:	689b      	ldr	r3, [r3, #8]
10004326:	4a17      	ldr	r2, [pc, #92]	; (10004384 <irq_add_tail_to_free_list+0xe0>)
10004328:	501a      	str	r2, [r3, r0]
1000432a:	4b17      	ldr	r3, [pc, #92]	; (10004388 <irq_add_tail_to_free_list+0xe4>)
1000432c:	781a      	ldrb	r2, [r3, #0]
1000432e:	71a2      	strb	r2, [r4, #6]
10004330:	701d      	strb	r5, [r3, #0]
10004332:	f3bf 8f5f 	dmb	sy
10004336:	4b0c      	ldr	r3, [pc, #48]	; (10004368 <irq_add_tail_to_free_list+0xc4>)
10004338:	2200      	movs	r2, #0
1000433a:	601a      	str	r2, [r3, #0]
1000433c:	f38c 8810 	msr	PRIMASK, ip
10004340:	bd70      	pop	{r4, r5, r6, pc}
10004342:	0008      	movs	r0, r1
10004344:	0053      	lsls	r3, r2, #1
10004346:	1899      	adds	r1, r3, r2
10004348:	0089      	lsls	r1, r1, #2
1000434a:	1841      	adds	r1, r0, r1
1000434c:	26ff      	movs	r6, #255	; 0xff
1000434e:	718e      	strb	r6, [r1, #6]
10004350:	4a0e      	ldr	r2, [pc, #56]	; (1000438c <irq_add_tail_to_free_list+0xe8>)
10004352:	808a      	strh	r2, [r1, #4]
10004354:	e7e9      	b.n	1000432a <irq_add_tail_to_free_list+0x86>
10004356:	21cc      	movs	r1, #204	; 0xcc
10004358:	4b0d      	ldr	r3, [pc, #52]	; (10004390 <irq_add_tail_to_free_list+0xec>)
1000435a:	4a07      	ldr	r2, [pc, #28]	; (10004378 <irq_add_tail_to_free_list+0xd4>)
1000435c:	0049      	lsls	r1, r1, #1
1000435e:	4807      	ldr	r0, [pc, #28]	; (1000437c <irq_add_tail_to_free_list+0xd8>)
10004360:	f001 f9a6 	bl	100056b0 <__assert_func>
10004364:	20000424 	.word	0x20000424
10004368:	d0000124 	.word	0xd0000124
1000436c:	0000aaaa 	.word	0x0000aaaa
10004370:	e000ed00 	.word	0xe000ed00
10004374:	1000c8c4 	.word	0x1000c8c4
10004378:	1000c91c 	.word	0x1000c91c
1000437c:	1000c72c 	.word	0x1000c72c
10004380:	1000c8ec 	.word	0x1000c8ec
10004384:	100001cd 	.word	0x100001cd
10004388:	20001b26 	.word	0x20001b26
1000438c:	ffffbd00 	.word	0xffffbd00
10004390:	1000c8f8 	.word	0x1000c8f8

10004394 <irq_init_priorities>:
10004394:	2200      	movs	r2, #0
10004396:	4b04      	ldr	r3, [pc, #16]	; (100043a8 <irq_init_priorities+0x14>)
10004398:	e002      	b.n	100043a0 <irq_init_priorities+0xc>
1000439a:	4904      	ldr	r1, [pc, #16]	; (100043ac <irq_init_priorities+0x18>)
1000439c:	c302      	stmia	r3!, {r1}
1000439e:	3201      	adds	r2, #1
100043a0:	2a07      	cmp	r2, #7
100043a2:	d9fa      	bls.n	1000439a <irq_init_priorities+0x6>
100043a4:	4770      	bx	lr
100043a6:	46c0      	nop			; (mov r8, r8)
100043a8:	e000e400 	.word	0xe000e400
100043ac:	80808080 	.word	0x80808080

100043b0 <user_irq_claim_unused>:
100043b0:	b500      	push	{lr}
100043b2:	b083      	sub	sp, #12
100043b4:	0001      	movs	r1, r0
100043b6:	23d0      	movs	r3, #208	; 0xd0
100043b8:	061b      	lsls	r3, r3, #24
100043ba:	681b      	ldr	r3, [r3, #0]
100043bc:	4806      	ldr	r0, [pc, #24]	; (100043d8 <user_irq_claim_unused+0x28>)
100043be:	18c0      	adds	r0, r0, r3
100043c0:	4b06      	ldr	r3, [pc, #24]	; (100043dc <user_irq_claim_unused+0x2c>)
100043c2:	9300      	str	r3, [sp, #0]
100043c4:	2305      	movs	r3, #5
100043c6:	2200      	movs	r2, #0
100043c8:	f7ff fc57 	bl	10003c7a <hw_claim_unused_from_range>
100043cc:	2800      	cmp	r0, #0
100043ce:	db01      	blt.n	100043d4 <user_irq_claim_unused+0x24>
100043d0:	231f      	movs	r3, #31
100043d2:	1a18      	subs	r0, r3, r0
100043d4:	b003      	add	sp, #12
100043d6:	bd00      	pop	{pc}
100043d8:	20001b20 	.word	0x20001b20
100043dc:	1000c900 	.word	0x1000c900

100043e0 <lock_init>:
100043e0:	4b02      	ldr	r3, [pc, #8]	; (100043ec <lock_init+0xc>)
100043e2:	469c      	mov	ip, r3
100043e4:	4461      	add	r1, ip
100043e6:	0089      	lsls	r1, r1, #2
100043e8:	6001      	str	r1, [r0, #0]
100043ea:	4770      	bx	lr
100043ec:	34000040 	.word	0x34000040

100043f0 <alarm_pool_post_alloc_init>:
100043f0:	b570      	push	{r4, r5, r6, lr}
100043f2:	0005      	movs	r5, r0
100043f4:	000c      	movs	r4, r1
100043f6:	0008      	movs	r0, r1
100043f8:	f000 fdcc 	bl	10004f94 <hardware_alarm_claim>
100043fc:	0020      	movs	r0, r4
100043fe:	f000 fed5 	bl	100051ac <hardware_alarm_cancel>
10004402:	4908      	ldr	r1, [pc, #32]	; (10004424 <alarm_pool_post_alloc_init+0x34>)
10004404:	0020      	movs	r0, r4
10004406:	f000 fe15 	bl	10005034 <hardware_alarm_set_callback>
1000440a:	f7ff fc79 	bl	10003d00 <next_striped_spin_lock_num>
1000440e:	4b06      	ldr	r3, [pc, #24]	; (10004428 <alarm_pool_post_alloc_init+0x38>)
10004410:	469c      	mov	ip, r3
10004412:	4460      	add	r0, ip
10004414:	0080      	lsls	r0, r0, #2
10004416:	6068      	str	r0, [r5, #4]
10004418:	752c      	strb	r4, [r5, #20]
1000441a:	00a4      	lsls	r4, r4, #2
1000441c:	4b03      	ldr	r3, [pc, #12]	; (1000442c <alarm_pool_post_alloc_init+0x3c>)
1000441e:	50e5      	str	r5, [r4, r3]
10004420:	bd70      	pop	{r4, r5, r6, pc}
10004422:	46c0      	nop			; (mov r8, r8)
10004424:	10004735 	.word	0x10004735
10004428:	34000040 	.word	0x34000040
1000442c:	200018d4 	.word	0x200018d4

10004430 <sleep_until_callback>:
10004430:	4b0a      	ldr	r3, [pc, #40]	; (1000445c <sleep_until_callback+0x2c>)
10004432:	681a      	ldr	r2, [r3, #0]
10004434:	f3ef 8110 	mrs	r1, PRIMASK
10004438:	b672      	cpsid	i
1000443a:	6813      	ldr	r3, [r2, #0]
1000443c:	2b00      	cmp	r3, #0
1000443e:	d0fc      	beq.n	1000443a <sleep_until_callback+0xa>
10004440:	f3bf 8f5f 	dmb	sy
10004444:	4b05      	ldr	r3, [pc, #20]	; (1000445c <sleep_until_callback+0x2c>)
10004446:	681b      	ldr	r3, [r3, #0]
10004448:	f3bf 8f5f 	dmb	sy
1000444c:	2200      	movs	r2, #0
1000444e:	601a      	str	r2, [r3, #0]
10004450:	f381 8810 	msr	PRIMASK, r1
10004454:	bf40      	sev
10004456:	2000      	movs	r0, #0
10004458:	2100      	movs	r1, #0
1000445a:	4770      	bx	lr
1000445c:	20001af0 	.word	0x20001af0

10004460 <timer_pool_entry_comparator>:
10004460:	b510      	push	{r4, lr}
10004462:	2900      	cmp	r1, #0
10004464:	d022      	beq.n	100044ac <timer_pool_entry_comparator+0x4c>
10004466:	6803      	ldr	r3, [r0, #0]
10004468:	7b1b      	ldrb	r3, [r3, #12]
1000446a:	4299      	cmp	r1, r3
1000446c:	d81e      	bhi.n	100044ac <timer_pool_entry_comparator+0x4c>
1000446e:	4b17      	ldr	r3, [pc, #92]	; (100044cc <timer_pool_entry_comparator+0x6c>)
10004470:	469c      	mov	ip, r3
10004472:	4461      	add	r1, ip
10004474:	0109      	lsls	r1, r1, #4
10004476:	6883      	ldr	r3, [r0, #8]
10004478:	469c      	mov	ip, r3
1000447a:	4461      	add	r1, ip
1000447c:	680c      	ldr	r4, [r1, #0]
1000447e:	6849      	ldr	r1, [r1, #4]
10004480:	2a00      	cmp	r2, #0
10004482:	d019      	beq.n	100044b8 <timer_pool_entry_comparator+0x58>
10004484:	6803      	ldr	r3, [r0, #0]
10004486:	7b1b      	ldrb	r3, [r3, #12]
10004488:	429a      	cmp	r2, r3
1000448a:	d815      	bhi.n	100044b8 <timer_pool_entry_comparator+0x58>
1000448c:	6883      	ldr	r3, [r0, #8]
1000448e:	480f      	ldr	r0, [pc, #60]	; (100044cc <timer_pool_entry_comparator+0x6c>)
10004490:	4684      	mov	ip, r0
10004492:	4462      	add	r2, ip
10004494:	0112      	lsls	r2, r2, #4
10004496:	189a      	adds	r2, r3, r2
10004498:	6810      	ldr	r0, [r2, #0]
1000449a:	6853      	ldr	r3, [r2, #4]
1000449c:	0002      	movs	r2, r0
1000449e:	2001      	movs	r0, #1
100044a0:	428b      	cmp	r3, r1
100044a2:	d801      	bhi.n	100044a8 <timer_pool_entry_comparator+0x48>
100044a4:	d00e      	beq.n	100044c4 <timer_pool_entry_comparator+0x64>
100044a6:	2000      	movs	r0, #0
100044a8:	b2c0      	uxtb	r0, r0
100044aa:	bd10      	pop	{r4, pc}
100044ac:	4b08      	ldr	r3, [pc, #32]	; (100044d0 <timer_pool_entry_comparator+0x70>)
100044ae:	4a09      	ldr	r2, [pc, #36]	; (100044d4 <timer_pool_entry_comparator+0x74>)
100044b0:	213b      	movs	r1, #59	; 0x3b
100044b2:	4809      	ldr	r0, [pc, #36]	; (100044d8 <timer_pool_entry_comparator+0x78>)
100044b4:	f001 f8fc 	bl	100056b0 <__assert_func>
100044b8:	4b05      	ldr	r3, [pc, #20]	; (100044d0 <timer_pool_entry_comparator+0x70>)
100044ba:	4a06      	ldr	r2, [pc, #24]	; (100044d4 <timer_pool_entry_comparator+0x74>)
100044bc:	213b      	movs	r1, #59	; 0x3b
100044be:	4806      	ldr	r0, [pc, #24]	; (100044d8 <timer_pool_entry_comparator+0x78>)
100044c0:	f001 f8f6 	bl	100056b0 <__assert_func>
100044c4:	42a2      	cmp	r2, r4
100044c6:	d8ef      	bhi.n	100044a8 <timer_pool_entry_comparator+0x48>
100044c8:	e7ed      	b.n	100044a6 <timer_pool_entry_comparator+0x46>
100044ca:	46c0      	nop			; (mov r8, r8)
100044cc:	0fffffff 	.word	0x0fffffff
100044d0:	1000ca0c 	.word	0x1000ca0c
100044d4:	1000cce0 	.word	0x1000cce0
100044d8:	1000c9c8 	.word	0x1000c9c8

100044dc <ph_add_child_node>:
100044dc:	b510      	push	{r4, lr}
100044de:	2900      	cmp	r1, #0
100044e0:	d01e      	beq.n	10004520 <ph_add_child_node+0x44>
100044e2:	7b03      	ldrb	r3, [r0, #12]
100044e4:	4299      	cmp	r1, r3
100044e6:	d81b      	bhi.n	10004520 <ph_add_child_node+0x44>
100044e8:	004b      	lsls	r3, r1, #1
100044ea:	185b      	adds	r3, r3, r1
100044ec:	3b03      	subs	r3, #3
100044ee:	6804      	ldr	r4, [r0, #0]
100044f0:	46a4      	mov	ip, r4
100044f2:	4463      	add	r3, ip
100044f4:	2900      	cmp	r1, #0
100044f6:	d019      	beq.n	1000452c <ph_add_child_node+0x50>
100044f8:	2a00      	cmp	r2, #0
100044fa:	d01d      	beq.n	10004538 <ph_add_child_node+0x5c>
100044fc:	4291      	cmp	r1, r2
100044fe:	d021      	beq.n	10004544 <ph_add_child_node+0x68>
10004500:	2a00      	cmp	r2, #0
10004502:	d025      	beq.n	10004550 <ph_add_child_node+0x74>
10004504:	7b04      	ldrb	r4, [r0, #12]
10004506:	42a2      	cmp	r2, r4
10004508:	d822      	bhi.n	10004550 <ph_add_child_node+0x74>
1000450a:	6804      	ldr	r4, [r0, #0]
1000450c:	0050      	lsls	r0, r2, #1
1000450e:	1880      	adds	r0, r0, r2
10004510:	3803      	subs	r0, #3
10004512:	1820      	adds	r0, r4, r0
10004514:	7081      	strb	r1, [r0, #2]
10004516:	7819      	ldrb	r1, [r3, #0]
10004518:	2900      	cmp	r1, #0
1000451a:	d11f      	bne.n	1000455c <ph_add_child_node+0x80>
1000451c:	701a      	strb	r2, [r3, #0]
1000451e:	bd10      	pop	{r4, pc}
10004520:	4b10      	ldr	r3, [pc, #64]	; (10004564 <ph_add_child_node+0x88>)
10004522:	4a11      	ldr	r2, [pc, #68]	; (10004568 <ph_add_child_node+0x8c>)
10004524:	2168      	movs	r1, #104	; 0x68
10004526:	4811      	ldr	r0, [pc, #68]	; (1000456c <ph_add_child_node+0x90>)
10004528:	f001 f8c2 	bl	100056b0 <__assert_func>
1000452c:	4b10      	ldr	r3, [pc, #64]	; (10004570 <ph_add_child_node+0x94>)
1000452e:	4a11      	ldr	r2, [pc, #68]	; (10004574 <ph_add_child_node+0x98>)
10004530:	316f      	adds	r1, #111	; 0x6f
10004532:	480e      	ldr	r0, [pc, #56]	; (1000456c <ph_add_child_node+0x90>)
10004534:	f001 f8bc 	bl	100056b0 <__assert_func>
10004538:	4b0f      	ldr	r3, [pc, #60]	; (10004578 <ph_add_child_node+0x9c>)
1000453a:	4a0e      	ldr	r2, [pc, #56]	; (10004574 <ph_add_child_node+0x98>)
1000453c:	2170      	movs	r1, #112	; 0x70
1000453e:	480b      	ldr	r0, [pc, #44]	; (1000456c <ph_add_child_node+0x90>)
10004540:	f001 f8b6 	bl	100056b0 <__assert_func>
10004544:	4b0d      	ldr	r3, [pc, #52]	; (1000457c <ph_add_child_node+0xa0>)
10004546:	4a0b      	ldr	r2, [pc, #44]	; (10004574 <ph_add_child_node+0x98>)
10004548:	2171      	movs	r1, #113	; 0x71
1000454a:	4808      	ldr	r0, [pc, #32]	; (1000456c <ph_add_child_node+0x90>)
1000454c:	f001 f8b0 	bl	100056b0 <__assert_func>
10004550:	4b04      	ldr	r3, [pc, #16]	; (10004564 <ph_add_child_node+0x88>)
10004552:	4a05      	ldr	r2, [pc, #20]	; (10004568 <ph_add_child_node+0x8c>)
10004554:	2168      	movs	r1, #104	; 0x68
10004556:	4805      	ldr	r0, [pc, #20]	; (1000456c <ph_add_child_node+0x90>)
10004558:	f001 f8aa 	bl	100056b0 <__assert_func>
1000455c:	7041      	strb	r1, [r0, #1]
1000455e:	701a      	strb	r2, [r3, #0]
10004560:	e7dd      	b.n	1000451e <ph_add_child_node+0x42>
10004562:	46c0      	nop			; (mov r8, r8)
10004564:	1000ca40 	.word	0x1000ca40
10004568:	1000cd4c 	.word	0x1000cd4c
1000456c:	1000ca5c 	.word	0x1000ca5c
10004570:	1000cab0 	.word	0x1000cab0
10004574:	1000cd28 	.word	0x1000cd28
10004578:	1000cabc 	.word	0x1000cabc
1000457c:	1000cac8 	.word	0x1000cac8

10004580 <ph_merge_nodes>:
10004580:	b570      	push	{r4, r5, r6, lr}
10004582:	0006      	movs	r6, r0
10004584:	000d      	movs	r5, r1
10004586:	0014      	movs	r4, r2
10004588:	2900      	cmp	r1, #0
1000458a:	d014      	beq.n	100045b6 <ph_merge_nodes+0x36>
1000458c:	2a00      	cmp	r2, #0
1000458e:	d014      	beq.n	100045ba <ph_merge_nodes+0x3a>
10004590:	6880      	ldr	r0, [r0, #8]
10004592:	6873      	ldr	r3, [r6, #4]
10004594:	4798      	blx	r3
10004596:	2800      	cmp	r0, #0
10004598:	d006      	beq.n	100045a8 <ph_merge_nodes+0x28>
1000459a:	0022      	movs	r2, r4
1000459c:	0029      	movs	r1, r5
1000459e:	0030      	movs	r0, r6
100045a0:	f7ff ff9c 	bl	100044dc <ph_add_child_node>
100045a4:	0028      	movs	r0, r5
100045a6:	e007      	b.n	100045b8 <ph_merge_nodes+0x38>
100045a8:	002a      	movs	r2, r5
100045aa:	0021      	movs	r1, r4
100045ac:	0030      	movs	r0, r6
100045ae:	f7ff ff95 	bl	100044dc <ph_add_child_node>
100045b2:	0020      	movs	r0, r4
100045b4:	e000      	b.n	100045b8 <ph_merge_nodes+0x38>
100045b6:	0010      	movs	r0, r2
100045b8:	bd70      	pop	{r4, r5, r6, pc}
100045ba:	0008      	movs	r0, r1
100045bc:	e7fc      	b.n	100045b8 <ph_merge_nodes+0x38>
	...

100045c0 <add_alarm_under_lock>:
100045c0:	b5f0      	push	{r4, r5, r6, r7, lr}
100045c2:	b083      	sub	sp, #12
100045c4:	0005      	movs	r5, r0
100045c6:	9200      	str	r2, [sp, #0]
100045c8:	9301      	str	r3, [sp, #4]
100045ca:	ab0a      	add	r3, sp, #40	; 0x28
100045cc:	781c      	ldrb	r4, [r3, #0]
100045ce:	ab0b      	add	r3, sp, #44	; 0x2c
100045d0:	781f      	ldrb	r7, [r3, #0]
100045d2:	2c00      	cmp	r4, #0
100045d4:	d026      	beq.n	10004624 <add_alarm_under_lock+0x64>
100045d6:	6803      	ldr	r3, [r0, #0]
100045d8:	7b5a      	ldrb	r2, [r3, #13]
100045da:	4294      	cmp	r4, r2
100045dc:	d107      	bne.n	100045ee <add_alarm_under_lock+0x2e>
100045de:	2301      	movs	r3, #1
100045e0:	2b00      	cmp	r3, #0
100045e2:	d119      	bne.n	10004618 <add_alarm_under_lock+0x58>
100045e4:	2c00      	cmp	r4, #0
100045e6:	d13b      	bne.n	10004660 <add_alarm_under_lock+0xa0>
100045e8:	0020      	movs	r0, r4
100045ea:	b003      	add	sp, #12
100045ec:	bdf0      	pop	{r4, r5, r6, r7, pc}
100045ee:	2c00      	cmp	r4, #0
100045f0:	d00c      	beq.n	1000460c <add_alarm_under_lock+0x4c>
100045f2:	7b1a      	ldrb	r2, [r3, #12]
100045f4:	4294      	cmp	r4, r2
100045f6:	d809      	bhi.n	1000460c <add_alarm_under_lock+0x4c>
100045f8:	681a      	ldr	r2, [r3, #0]
100045fa:	0063      	lsls	r3, r4, #1
100045fc:	191b      	adds	r3, r3, r4
100045fe:	3b03      	subs	r3, #3
10004600:	18d3      	adds	r3, r2, r3
10004602:	789b      	ldrb	r3, [r3, #2]
10004604:	2b00      	cmp	r3, #0
10004606:	d0eb      	beq.n	100045e0 <add_alarm_under_lock+0x20>
10004608:	2301      	movs	r3, #1
1000460a:	e7e9      	b.n	100045e0 <add_alarm_under_lock+0x20>
1000460c:	4b3e      	ldr	r3, [pc, #248]	; (10004708 <add_alarm_under_lock+0x148>)
1000460e:	4a3f      	ldr	r2, [pc, #252]	; (1000470c <add_alarm_under_lock+0x14c>)
10004610:	2168      	movs	r1, #104	; 0x68
10004612:	483f      	ldr	r0, [pc, #252]	; (10004710 <add_alarm_under_lock+0x150>)
10004614:	f001 f84c 	bl	100056b0 <__assert_func>
10004618:	4b3e      	ldr	r3, [pc, #248]	; (10004714 <add_alarm_under_lock+0x154>)
1000461a:	4a3f      	ldr	r2, [pc, #252]	; (10004718 <add_alarm_under_lock+0x158>)
1000461c:	2165      	movs	r1, #101	; 0x65
1000461e:	483f      	ldr	r0, [pc, #252]	; (1000471c <add_alarm_under_lock+0x15c>)
10004620:	f001 f846 	bl	100056b0 <__assert_func>
10004624:	6803      	ldr	r3, [r0, #0]
10004626:	7b9c      	ldrb	r4, [r3, #14]
10004628:	2c00      	cmp	r4, #0
1000462a:	d0db      	beq.n	100045e4 <add_alarm_under_lock+0x24>
1000462c:	d012      	beq.n	10004654 <add_alarm_under_lock+0x94>
1000462e:	7b1a      	ldrb	r2, [r3, #12]
10004630:	4294      	cmp	r4, r2
10004632:	d80f      	bhi.n	10004654 <add_alarm_under_lock+0x94>
10004634:	0062      	lsls	r2, r4, #1
10004636:	1912      	adds	r2, r2, r4
10004638:	3a03      	subs	r2, #3
1000463a:	6819      	ldr	r1, [r3, #0]
1000463c:	468c      	mov	ip, r1
1000463e:	4462      	add	r2, ip
10004640:	7851      	ldrb	r1, [r2, #1]
10004642:	7399      	strb	r1, [r3, #14]
10004644:	2900      	cmp	r1, #0
10004646:	d100      	bne.n	1000464a <add_alarm_under_lock+0x8a>
10004648:	73d9      	strb	r1, [r3, #15]
1000464a:	2300      	movs	r3, #0
1000464c:	7093      	strb	r3, [r2, #2]
1000464e:	7053      	strb	r3, [r2, #1]
10004650:	7013      	strb	r3, [r2, #0]
10004652:	e7c7      	b.n	100045e4 <add_alarm_under_lock+0x24>
10004654:	4b2c      	ldr	r3, [pc, #176]	; (10004708 <add_alarm_under_lock+0x148>)
10004656:	4a2d      	ldr	r2, [pc, #180]	; (1000470c <add_alarm_under_lock+0x14c>)
10004658:	2168      	movs	r1, #104	; 0x68
1000465a:	482d      	ldr	r0, [pc, #180]	; (10004710 <add_alarm_under_lock+0x150>)
1000465c:	f001 f828 	bl	100056b0 <__assert_func>
10004660:	2c00      	cmp	r4, #0
10004662:	d03a      	beq.n	100046da <add_alarm_under_lock+0x11a>
10004664:	682b      	ldr	r3, [r5, #0]
10004666:	7b1b      	ldrb	r3, [r3, #12]
10004668:	429c      	cmp	r4, r3
1000466a:	d836      	bhi.n	100046da <add_alarm_under_lock+0x11a>
1000466c:	4b2c      	ldr	r3, [pc, #176]	; (10004720 <add_alarm_under_lock+0x160>)
1000466e:	18e3      	adds	r3, r4, r3
10004670:	011b      	lsls	r3, r3, #4
10004672:	68aa      	ldr	r2, [r5, #8]
10004674:	4694      	mov	ip, r2
10004676:	4463      	add	r3, ip
10004678:	9a00      	ldr	r2, [sp, #0]
1000467a:	601a      	str	r2, [r3, #0]
1000467c:	9a01      	ldr	r2, [sp, #4]
1000467e:	605a      	str	r2, [r3, #4]
10004680:	9a08      	ldr	r2, [sp, #32]
10004682:	609a      	str	r2, [r3, #8]
10004684:	9a09      	ldr	r2, [sp, #36]	; 0x24
10004686:	60da      	str	r2, [r3, #12]
10004688:	682e      	ldr	r6, [r5, #0]
1000468a:	2c00      	cmp	r4, #0
1000468c:	d02b      	beq.n	100046e6 <add_alarm_under_lock+0x126>
1000468e:	d030      	beq.n	100046f2 <add_alarm_under_lock+0x132>
10004690:	7b33      	ldrb	r3, [r6, #12]
10004692:	429c      	cmp	r4, r3
10004694:	d82d      	bhi.n	100046f2 <add_alarm_under_lock+0x132>
10004696:	0063      	lsls	r3, r4, #1
10004698:	191b      	adds	r3, r3, r4
1000469a:	3b03      	subs	r3, #3
1000469c:	6832      	ldr	r2, [r6, #0]
1000469e:	4694      	mov	ip, r2
100046a0:	4463      	add	r3, ip
100046a2:	2200      	movs	r2, #0
100046a4:	709a      	strb	r2, [r3, #2]
100046a6:	705a      	strb	r2, [r3, #1]
100046a8:	701a      	strb	r2, [r3, #0]
100046aa:	7b71      	ldrb	r1, [r6, #13]
100046ac:	0022      	movs	r2, r4
100046ae:	0030      	movs	r0, r6
100046b0:	f7ff ff66 	bl	10004580 <ph_merge_nodes>
100046b4:	7370      	strb	r0, [r6, #13]
100046b6:	4284      	cmp	r4, r0
100046b8:	d000      	beq.n	100046bc <add_alarm_under_lock+0xfc>
100046ba:	e795      	b.n	100045e8 <add_alarm_under_lock+0x28>
100046bc:	7d28      	ldrb	r0, [r5, #20]
100046be:	9a00      	ldr	r2, [sp, #0]
100046c0:	9b01      	ldr	r3, [sp, #4]
100046c2:	f000 fcff 	bl	100050c4 <hardware_alarm_set_target>
100046c6:	1e06      	subs	r6, r0, #0
100046c8:	d001      	beq.n	100046ce <add_alarm_under_lock+0x10e>
100046ca:	2f00      	cmp	r7, #0
100046cc:	d017      	beq.n	100046fe <add_alarm_under_lock+0x13e>
100046ce:	9b0c      	ldr	r3, [sp, #48]	; 0x30
100046d0:	2b00      	cmp	r3, #0
100046d2:	d100      	bne.n	100046d6 <add_alarm_under_lock+0x116>
100046d4:	e788      	b.n	100045e8 <add_alarm_under_lock+0x28>
100046d6:	701e      	strb	r6, [r3, #0]
100046d8:	e786      	b.n	100045e8 <add_alarm_under_lock+0x28>
100046da:	4b12      	ldr	r3, [pc, #72]	; (10004724 <add_alarm_under_lock+0x164>)
100046dc:	4a12      	ldr	r2, [pc, #72]	; (10004728 <add_alarm_under_lock+0x168>)
100046de:	213b      	movs	r1, #59	; 0x3b
100046e0:	480e      	ldr	r0, [pc, #56]	; (1000471c <add_alarm_under_lock+0x15c>)
100046e2:	f000 ffe5 	bl	100056b0 <__assert_func>
100046e6:	4b11      	ldr	r3, [pc, #68]	; (1000472c <add_alarm_under_lock+0x16c>)
100046e8:	4a11      	ldr	r2, [pc, #68]	; (10004730 <add_alarm_under_lock+0x170>)
100046ea:	21a5      	movs	r1, #165	; 0xa5
100046ec:	4808      	ldr	r0, [pc, #32]	; (10004710 <add_alarm_under_lock+0x150>)
100046ee:	f000 ffdf 	bl	100056b0 <__assert_func>
100046f2:	4b05      	ldr	r3, [pc, #20]	; (10004708 <add_alarm_under_lock+0x148>)
100046f4:	4a05      	ldr	r2, [pc, #20]	; (1000470c <add_alarm_under_lock+0x14c>)
100046f6:	2168      	movs	r1, #104	; 0x68
100046f8:	4805      	ldr	r0, [pc, #20]	; (10004710 <add_alarm_under_lock+0x150>)
100046fa:	f000 ffd9 	bl	100056b0 <__assert_func>
100046fe:	6828      	ldr	r0, [r5, #0]
10004700:	0021      	movs	r1, r4
10004702:	f000 ff07 	bl	10005514 <ph_remove_and_free_node>
10004706:	e7e2      	b.n	100046ce <add_alarm_under_lock+0x10e>
10004708:	1000ca40 	.word	0x1000ca40
1000470c:	1000cd4c 	.word	0x1000cd4c
10004710:	1000ca5c 	.word	0x1000ca5c
10004714:	1000cae0 	.word	0x1000cae0
10004718:	1000cd58 	.word	0x1000cd58
1000471c:	1000c9c8 	.word	0x1000c9c8
10004720:	0fffffff 	.word	0x0fffffff
10004724:	1000ca0c 	.word	0x1000ca0c
10004728:	1000cce0 	.word	0x1000cce0
1000472c:	1000c9c4 	.word	0x1000c9c4
10004730:	1000cd3c 	.word	0x1000cd3c

10004734 <alarm_pool_alarm_callback>:
10004734:	b5f0      	push	{r4, r5, r6, r7, lr}
10004736:	46de      	mov	lr, fp
10004738:	4657      	mov	r7, sl
1000473a:	464e      	mov	r6, r9
1000473c:	4645      	mov	r5, r8
1000473e:	b5e0      	push	{r5, r6, r7, lr}
10004740:	b08b      	sub	sp, #44	; 0x2c
10004742:	9009      	str	r0, [sp, #36]	; 0x24
10004744:	2300      	movs	r3, #0
10004746:	9308      	str	r3, [sp, #32]
10004748:	0082      	lsls	r2, r0, #2
1000474a:	4bb2      	ldr	r3, [pc, #712]	; (10004a14 <alarm_pool_alarm_callback+0x2e0>)
1000474c:	58d6      	ldr	r6, [r2, r3]
1000474e:	0037      	movs	r7, r6
10004750:	e032      	b.n	100047b8 <alarm_pool_alarm_callback+0x84>
10004752:	4bb1      	ldr	r3, [pc, #708]	; (10004a18 <alarm_pool_alarm_callback+0x2e4>)
10004754:	4ab1      	ldr	r2, [pc, #708]	; (10004a1c <alarm_pool_alarm_callback+0x2e8>)
10004756:	213f      	movs	r1, #63	; 0x3f
10004758:	48b1      	ldr	r0, [pc, #708]	; (10004a20 <alarm_pool_alarm_callback+0x2ec>)
1000475a:	f000 ffa9 	bl	100056b0 <__assert_func>
1000475e:	4bb1      	ldr	r3, [pc, #708]	; (10004a24 <alarm_pool_alarm_callback+0x2f0>)
10004760:	4ab1      	ldr	r2, [pc, #708]	; (10004a28 <alarm_pool_alarm_callback+0x2f4>)
10004762:	213b      	movs	r1, #59	; 0x3b
10004764:	48b1      	ldr	r0, [pc, #708]	; (10004a2c <alarm_pool_alarm_callback+0x2f8>)
10004766:	f000 ffa3 	bl	100056b0 <__assert_func>
1000476a:	4bb1      	ldr	r3, [pc, #708]	; (10004a30 <alarm_pool_alarm_callback+0x2fc>)
1000476c:	4ab1      	ldr	r2, [pc, #708]	; (10004a34 <alarm_pool_alarm_callback+0x300>)
1000476e:	218c      	movs	r1, #140	; 0x8c
10004770:	48ae      	ldr	r0, [pc, #696]	; (10004a2c <alarm_pool_alarm_callback+0x2f8>)
10004772:	f000 ff9d 	bl	100056b0 <__assert_func>
10004776:	4bb0      	ldr	r3, [pc, #704]	; (10004a38 <alarm_pool_alarm_callback+0x304>)
10004778:	4aae      	ldr	r2, [pc, #696]	; (10004a34 <alarm_pool_alarm_callback+0x300>)
1000477a:	2190      	movs	r1, #144	; 0x90
1000477c:	48ab      	ldr	r0, [pc, #684]	; (10004a2c <alarm_pool_alarm_callback+0x2f8>)
1000477e:	f000 ff97 	bl	100056b0 <__assert_func>
10004782:	4ba8      	ldr	r3, [pc, #672]	; (10004a24 <alarm_pool_alarm_callback+0x2f0>)
10004784:	4aad      	ldr	r2, [pc, #692]	; (10004a3c <alarm_pool_alarm_callback+0x308>)
10004786:	2140      	movs	r1, #64	; 0x40
10004788:	48a8      	ldr	r0, [pc, #672]	; (10004a2c <alarm_pool_alarm_callback+0x2f8>)
1000478a:	f000 ff91 	bl	100056b0 <__assert_func>
1000478e:	682a      	ldr	r2, [r5, #0]
10004790:	686b      	ldr	r3, [r5, #4]
10004792:	9809      	ldr	r0, [sp, #36]	; 0x24
10004794:	f000 fc96 	bl	100050c4 <hardware_alarm_set_target>
10004798:	2300      	movs	r3, #0
1000479a:	469a      	mov	sl, r3
1000479c:	4698      	mov	r8, r3
1000479e:	687b      	ldr	r3, [r7, #4]
100047a0:	f3bf 8f5f 	dmb	sy
100047a4:	2200      	movs	r2, #0
100047a6:	601a      	str	r2, [r3, #0]
100047a8:	f386 8810 	msr	PRIMASK, r6
100047ac:	4643      	mov	r3, r8
100047ae:	2b00      	cmp	r3, #0
100047b0:	d151      	bne.n	10004856 <alarm_pool_alarm_callback+0x122>
100047b2:	2800      	cmp	r0, #0
100047b4:	d100      	bne.n	100047b8 <alarm_pool_alarm_callback+0x84>
100047b6:	e126      	b.n	10004a06 <alarm_pool_alarm_callback+0x2d2>
100047b8:	f000 fbf8 	bl	10004fac <time_us_64>
100047bc:	0002      	movs	r2, r0
100047be:	1e0b      	subs	r3, r1, #0
100047c0:	dbc7      	blt.n	10004752 <alarm_pool_alarm_callback+0x1e>
100047c2:	2000      	movs	r0, #0
100047c4:	2100      	movs	r1, #0
100047c6:	9006      	str	r0, [sp, #24]
100047c8:	9107      	str	r1, [sp, #28]
100047ca:	6878      	ldr	r0, [r7, #4]
100047cc:	f3ef 8610 	mrs	r6, PRIMASK
100047d0:	b672      	cpsid	i
100047d2:	6801      	ldr	r1, [r0, #0]
100047d4:	2900      	cmp	r1, #0
100047d6:	d0fc      	beq.n	100047d2 <alarm_pool_alarm_callback+0x9e>
100047d8:	f3bf 8f5f 	dmb	sy
100047dc:	6839      	ldr	r1, [r7, #0]
100047de:	4688      	mov	r8, r1
100047e0:	7b4c      	ldrb	r4, [r1, #13]
100047e2:	2c00      	cmp	r4, #0
100047e4:	d032      	beq.n	1000484c <alarm_pool_alarm_callback+0x118>
100047e6:	d0ba      	beq.n	1000475e <alarm_pool_alarm_callback+0x2a>
100047e8:	7b09      	ldrb	r1, [r1, #12]
100047ea:	428c      	cmp	r4, r1
100047ec:	d8b7      	bhi.n	1000475e <alarm_pool_alarm_callback+0x2a>
100047ee:	4994      	ldr	r1, [pc, #592]	; (10004a40 <alarm_pool_alarm_callback+0x30c>)
100047f0:	1865      	adds	r5, r4, r1
100047f2:	012d      	lsls	r5, r5, #4
100047f4:	68b9      	ldr	r1, [r7, #8]
100047f6:	468c      	mov	ip, r1
100047f8:	4465      	add	r5, ip
100047fa:	6828      	ldr	r0, [r5, #0]
100047fc:	6869      	ldr	r1, [r5, #4]
100047fe:	1a80      	subs	r0, r0, r2
10004800:	4199      	sbcs	r1, r3
10004802:	2900      	cmp	r1, #0
10004804:	dcc3      	bgt.n	1000478e <alarm_pool_alarm_callback+0x5a>
10004806:	d101      	bne.n	1000480c <alarm_pool_alarm_callback+0xd8>
10004808:	2800      	cmp	r0, #0
1000480a:	d1c0      	bne.n	1000478e <alarm_pool_alarm_callback+0x5a>
1000480c:	2100      	movs	r1, #0
1000480e:	4640      	mov	r0, r8
10004810:	f000 fe76 	bl	10005500 <ph_remove_head>
10004814:	42a0      	cmp	r0, r4
10004816:	d1a8      	bne.n	1000476a <alarm_pool_alarm_callback+0x36>
10004818:	682a      	ldr	r2, [r5, #0]
1000481a:	686b      	ldr	r3, [r5, #4]
1000481c:	9206      	str	r2, [sp, #24]
1000481e:	9307      	str	r3, [sp, #28]
10004820:	68ab      	ldr	r3, [r5, #8]
10004822:	4698      	mov	r8, r3
10004824:	68eb      	ldr	r3, [r5, #12]
10004826:	469a      	mov	sl, r3
10004828:	4643      	mov	r3, r8
1000482a:	2b00      	cmp	r3, #0
1000482c:	d0a3      	beq.n	10004776 <alarm_pool_alarm_callback+0x42>
1000482e:	2c00      	cmp	r4, #0
10004830:	d0a7      	beq.n	10004782 <alarm_pool_alarm_callback+0x4e>
10004832:	683b      	ldr	r3, [r7, #0]
10004834:	7b1b      	ldrb	r3, [r3, #12]
10004836:	429c      	cmp	r4, r3
10004838:	d8a3      	bhi.n	10004782 <alarm_pool_alarm_callback+0x4e>
1000483a:	1e63      	subs	r3, r4, #1
1000483c:	68fa      	ldr	r2, [r7, #12]
1000483e:	5cd3      	ldrb	r3, [r2, r3]
10004840:	9308      	str	r3, [sp, #32]
10004842:	021b      	lsls	r3, r3, #8
10004844:	4318      	orrs	r0, r3
10004846:	6138      	str	r0, [r7, #16]
10004848:	2000      	movs	r0, #0
1000484a:	e7a8      	b.n	1000479e <alarm_pool_alarm_callback+0x6a>
1000484c:	2300      	movs	r3, #0
1000484e:	469a      	mov	sl, r3
10004850:	4698      	mov	r8, r3
10004852:	2000      	movs	r0, #0
10004854:	e7a3      	b.n	1000479e <alarm_pool_alarm_callback+0x6a>
10004856:	9b08      	ldr	r3, [sp, #32]
10004858:	021b      	lsls	r3, r3, #8
1000485a:	4323      	orrs	r3, r4
1000485c:	4699      	mov	r9, r3
1000485e:	4651      	mov	r1, sl
10004860:	0018      	movs	r0, r3
10004862:	47c0      	blx	r8
10004864:	0005      	movs	r5, r0
10004866:	000e      	movs	r6, r1
10004868:	687a      	ldr	r2, [r7, #4]
1000486a:	f3ef 8b10 	mrs	fp, PRIMASK
1000486e:	b672      	cpsid	i
10004870:	6813      	ldr	r3, [r2, #0]
10004872:	4259      	negs	r1, r3
10004874:	414b      	adcs	r3, r1
10004876:	b2d9      	uxtb	r1, r3
10004878:	2b00      	cmp	r3, #0
1000487a:	d1f9      	bne.n	10004870 <alarm_pool_alarm_callback+0x13c>
1000487c:	f3bf 8f5f 	dmb	sy
10004880:	2e00      	cmp	r6, #0
10004882:	db26      	blt.n	100048d2 <alarm_pool_alarm_callback+0x19e>
10004884:	2e00      	cmp	r6, #0
10004886:	dd52      	ble.n	1000492e <alarm_pool_alarm_callback+0x1fa>
10004888:	693b      	ldr	r3, [r7, #16]
1000488a:	2b00      	cmp	r3, #0
1000488c:	d053      	beq.n	10004936 <alarm_pool_alarm_callback+0x202>
1000488e:	454b      	cmp	r3, r9
10004890:	d172      	bne.n	10004978 <alarm_pool_alarm_callback+0x244>
10004892:	f000 fb8b 	bl	10004fac <time_us_64>
10004896:	0002      	movs	r2, r0
10004898:	1e0b      	subs	r3, r1, #0
1000489a:	db73      	blt.n	10004984 <alarm_pool_alarm_callback+0x250>
1000489c:	0001      	movs	r1, r0
1000489e:	0018      	movs	r0, r3
100048a0:	1952      	adds	r2, r2, r5
100048a2:	4173      	adcs	r3, r6
100048a4:	4298      	cmp	r0, r3
100048a6:	d802      	bhi.n	100048ae <alarm_pool_alarm_callback+0x17a>
100048a8:	d104      	bne.n	100048b4 <alarm_pool_alarm_callback+0x180>
100048aa:	4291      	cmp	r1, r2
100048ac:	d902      	bls.n	100048b4 <alarm_pool_alarm_callback+0x180>
100048ae:	2201      	movs	r2, #1
100048b0:	4252      	negs	r2, r2
100048b2:	17d3      	asrs	r3, r2, #31
100048b4:	2b00      	cmp	r3, #0
100048b6:	db6b      	blt.n	10004990 <alarm_pool_alarm_callback+0x25c>
100048b8:	2100      	movs	r1, #0
100048ba:	9104      	str	r1, [sp, #16]
100048bc:	3101      	adds	r1, #1
100048be:	9103      	str	r1, [sp, #12]
100048c0:	9402      	str	r4, [sp, #8]
100048c2:	4651      	mov	r1, sl
100048c4:	9101      	str	r1, [sp, #4]
100048c6:	4641      	mov	r1, r8
100048c8:	9100      	str	r1, [sp, #0]
100048ca:	0038      	movs	r0, r7
100048cc:	f7ff fe78 	bl	100045c0 <add_alarm_under_lock>
100048d0:	e049      	b.n	10004966 <alarm_pool_alarm_callback+0x232>
100048d2:	693b      	ldr	r3, [r7, #16]
100048d4:	2b00      	cmp	r3, #0
100048d6:	d0d5      	beq.n	10004884 <alarm_pool_alarm_callback+0x150>
100048d8:	454b      	cmp	r3, r9
100048da:	d11c      	bne.n	10004916 <alarm_pool_alarm_callback+0x1e2>
100048dc:	9a06      	ldr	r2, [sp, #24]
100048de:	9b07      	ldr	r3, [sp, #28]
100048e0:	0010      	movs	r0, r2
100048e2:	0019      	movs	r1, r3
100048e4:	1b52      	subs	r2, r2, r5
100048e6:	41b3      	sbcs	r3, r6
100048e8:	4299      	cmp	r1, r3
100048ea:	d802      	bhi.n	100048f2 <alarm_pool_alarm_callback+0x1be>
100048ec:	d104      	bne.n	100048f8 <alarm_pool_alarm_callback+0x1c4>
100048ee:	4290      	cmp	r0, r2
100048f0:	d902      	bls.n	100048f8 <alarm_pool_alarm_callback+0x1c4>
100048f2:	2201      	movs	r2, #1
100048f4:	4252      	negs	r2, r2
100048f6:	17d3      	asrs	r3, r2, #31
100048f8:	2b00      	cmp	r3, #0
100048fa:	db12      	blt.n	10004922 <alarm_pool_alarm_callback+0x1ee>
100048fc:	2100      	movs	r1, #0
100048fe:	9104      	str	r1, [sp, #16]
10004900:	3101      	adds	r1, #1
10004902:	9103      	str	r1, [sp, #12]
10004904:	9402      	str	r4, [sp, #8]
10004906:	4651      	mov	r1, sl
10004908:	9101      	str	r1, [sp, #4]
1000490a:	4641      	mov	r1, r8
1000490c:	9100      	str	r1, [sp, #0]
1000490e:	0038      	movs	r0, r7
10004910:	f7ff fe56 	bl	100045c0 <add_alarm_under_lock>
10004914:	e027      	b.n	10004966 <alarm_pool_alarm_callback+0x232>
10004916:	4b4b      	ldr	r3, [pc, #300]	; (10004a44 <alarm_pool_alarm_callback+0x310>)
10004918:	4a46      	ldr	r2, [pc, #280]	; (10004a34 <alarm_pool_alarm_callback+0x300>)
1000491a:	219f      	movs	r1, #159	; 0x9f
1000491c:	4843      	ldr	r0, [pc, #268]	; (10004a2c <alarm_pool_alarm_callback+0x2f8>)
1000491e:	f000 fec7 	bl	100056b0 <__assert_func>
10004922:	4b3d      	ldr	r3, [pc, #244]	; (10004a18 <alarm_pool_alarm_callback+0x2e4>)
10004924:	4a3d      	ldr	r2, [pc, #244]	; (10004a1c <alarm_pool_alarm_callback+0x2e8>)
10004926:	213f      	movs	r1, #63	; 0x3f
10004928:	483d      	ldr	r0, [pc, #244]	; (10004a20 <alarm_pool_alarm_callback+0x2ec>)
1000492a:	f000 fec1 	bl	100056b0 <__assert_func>
1000492e:	2e00      	cmp	r6, #0
10004930:	d101      	bne.n	10004936 <alarm_pool_alarm_callback+0x202>
10004932:	2d00      	cmp	r5, #0
10004934:	d1a8      	bne.n	10004888 <alarm_pool_alarm_callback+0x154>
10004936:	683a      	ldr	r2, [r7, #0]
10004938:	2c00      	cmp	r4, #0
1000493a:	d045      	beq.n	100049c8 <alarm_pool_alarm_callback+0x294>
1000493c:	7b53      	ldrb	r3, [r2, #13]
1000493e:	429c      	cmp	r4, r3
10004940:	d12c      	bne.n	1000499c <alarm_pool_alarm_callback+0x268>
10004942:	2101      	movs	r1, #1
10004944:	2900      	cmp	r1, #0
10004946:	d13f      	bne.n	100049c8 <alarm_pool_alarm_callback+0x294>
10004948:	7bd3      	ldrb	r3, [r2, #15]
1000494a:	2b00      	cmp	r3, #0
1000494c:	d142      	bne.n	100049d4 <alarm_pool_alarm_callback+0x2a0>
1000494e:	73d4      	strb	r4, [r2, #15]
10004950:	2c00      	cmp	r4, #0
10004952:	d052      	beq.n	100049fa <alarm_pool_alarm_callback+0x2c6>
10004954:	683b      	ldr	r3, [r7, #0]
10004956:	7b1b      	ldrb	r3, [r3, #12]
10004958:	429c      	cmp	r4, r3
1000495a:	d84e      	bhi.n	100049fa <alarm_pool_alarm_callback+0x2c6>
1000495c:	68fa      	ldr	r2, [r7, #12]
1000495e:	3c01      	subs	r4, #1
10004960:	5d13      	ldrb	r3, [r2, r4]
10004962:	3301      	adds	r3, #1
10004964:	5513      	strb	r3, [r2, r4]
10004966:	2300      	movs	r3, #0
10004968:	613b      	str	r3, [r7, #16]
1000496a:	687a      	ldr	r2, [r7, #4]
1000496c:	f3bf 8f5f 	dmb	sy
10004970:	6013      	str	r3, [r2, #0]
10004972:	f38b 8810 	msr	PRIMASK, fp
10004976:	e71f      	b.n	100047b8 <alarm_pool_alarm_callback+0x84>
10004978:	4b32      	ldr	r3, [pc, #200]	; (10004a44 <alarm_pool_alarm_callback+0x310>)
1000497a:	4a2e      	ldr	r2, [pc, #184]	; (10004a34 <alarm_pool_alarm_callback+0x300>)
1000497c:	21a2      	movs	r1, #162	; 0xa2
1000497e:	482b      	ldr	r0, [pc, #172]	; (10004a2c <alarm_pool_alarm_callback+0x2f8>)
10004980:	f000 fe96 	bl	100056b0 <__assert_func>
10004984:	4b24      	ldr	r3, [pc, #144]	; (10004a18 <alarm_pool_alarm_callback+0x2e4>)
10004986:	4a25      	ldr	r2, [pc, #148]	; (10004a1c <alarm_pool_alarm_callback+0x2e8>)
10004988:	213f      	movs	r1, #63	; 0x3f
1000498a:	4825      	ldr	r0, [pc, #148]	; (10004a20 <alarm_pool_alarm_callback+0x2ec>)
1000498c:	f000 fe90 	bl	100056b0 <__assert_func>
10004990:	4b21      	ldr	r3, [pc, #132]	; (10004a18 <alarm_pool_alarm_callback+0x2e4>)
10004992:	4a22      	ldr	r2, [pc, #136]	; (10004a1c <alarm_pool_alarm_callback+0x2e8>)
10004994:	213f      	movs	r1, #63	; 0x3f
10004996:	4822      	ldr	r0, [pc, #136]	; (10004a20 <alarm_pool_alarm_callback+0x2ec>)
10004998:	f000 fe8a 	bl	100056b0 <__assert_func>
1000499c:	2c00      	cmp	r4, #0
1000499e:	d00d      	beq.n	100049bc <alarm_pool_alarm_callback+0x288>
100049a0:	7b13      	ldrb	r3, [r2, #12]
100049a2:	429c      	cmp	r4, r3
100049a4:	d80a      	bhi.n	100049bc <alarm_pool_alarm_callback+0x288>
100049a6:	0063      	lsls	r3, r4, #1
100049a8:	191b      	adds	r3, r3, r4
100049aa:	3b03      	subs	r3, #3
100049ac:	6810      	ldr	r0, [r2, #0]
100049ae:	4684      	mov	ip, r0
100049b0:	4463      	add	r3, ip
100049b2:	789b      	ldrb	r3, [r3, #2]
100049b4:	2b00      	cmp	r3, #0
100049b6:	d0c5      	beq.n	10004944 <alarm_pool_alarm_callback+0x210>
100049b8:	2101      	movs	r1, #1
100049ba:	e7c3      	b.n	10004944 <alarm_pool_alarm_callback+0x210>
100049bc:	4b22      	ldr	r3, [pc, #136]	; (10004a48 <alarm_pool_alarm_callback+0x314>)
100049be:	4a23      	ldr	r2, [pc, #140]	; (10004a4c <alarm_pool_alarm_callback+0x318>)
100049c0:	2168      	movs	r1, #104	; 0x68
100049c2:	4823      	ldr	r0, [pc, #140]	; (10004a50 <alarm_pool_alarm_callback+0x31c>)
100049c4:	f000 fe74 	bl	100056b0 <__assert_func>
100049c8:	4b22      	ldr	r3, [pc, #136]	; (10004a54 <alarm_pool_alarm_callback+0x320>)
100049ca:	4a23      	ldr	r2, [pc, #140]	; (10004a58 <alarm_pool_alarm_callback+0x324>)
100049cc:	21f6      	movs	r1, #246	; 0xf6
100049ce:	4820      	ldr	r0, [pc, #128]	; (10004a50 <alarm_pool_alarm_callback+0x31c>)
100049d0:	f000 fe6e 	bl	100056b0 <__assert_func>
100049d4:	2b00      	cmp	r3, #0
100049d6:	d00a      	beq.n	100049ee <alarm_pool_alarm_callback+0x2ba>
100049d8:	7b11      	ldrb	r1, [r2, #12]
100049da:	428b      	cmp	r3, r1
100049dc:	d807      	bhi.n	100049ee <alarm_pool_alarm_callback+0x2ba>
100049de:	0059      	lsls	r1, r3, #1
100049e0:	18cb      	adds	r3, r1, r3
100049e2:	3b03      	subs	r3, #3
100049e4:	6811      	ldr	r1, [r2, #0]
100049e6:	468c      	mov	ip, r1
100049e8:	4463      	add	r3, ip
100049ea:	705c      	strb	r4, [r3, #1]
100049ec:	e7af      	b.n	1000494e <alarm_pool_alarm_callback+0x21a>
100049ee:	4b16      	ldr	r3, [pc, #88]	; (10004a48 <alarm_pool_alarm_callback+0x314>)
100049f0:	4a16      	ldr	r2, [pc, #88]	; (10004a4c <alarm_pool_alarm_callback+0x318>)
100049f2:	2168      	movs	r1, #104	; 0x68
100049f4:	4816      	ldr	r0, [pc, #88]	; (10004a50 <alarm_pool_alarm_callback+0x31c>)
100049f6:	f000 fe5b 	bl	100056b0 <__assert_func>
100049fa:	4b0a      	ldr	r3, [pc, #40]	; (10004a24 <alarm_pool_alarm_callback+0x2f0>)
100049fc:	4a0f      	ldr	r2, [pc, #60]	; (10004a3c <alarm_pool_alarm_callback+0x308>)
100049fe:	2140      	movs	r1, #64	; 0x40
10004a00:	480a      	ldr	r0, [pc, #40]	; (10004a2c <alarm_pool_alarm_callback+0x2f8>)
10004a02:	f000 fe55 	bl	100056b0 <__assert_func>
10004a06:	b00b      	add	sp, #44	; 0x2c
10004a08:	bcf0      	pop	{r4, r5, r6, r7}
10004a0a:	46bb      	mov	fp, r7
10004a0c:	46b2      	mov	sl, r6
10004a0e:	46a9      	mov	r9, r5
10004a10:	46a0      	mov	r8, r4
10004a12:	bdf0      	pop	{r4, r5, r6, r7, pc}
10004a14:	200018d4 	.word	0x200018d4
10004a18:	1000cb08 	.word	0x1000cb08
10004a1c:	1000ccac 	.word	0x1000ccac
10004a20:	1000cb24 	.word	0x1000cb24
10004a24:	1000ca0c 	.word	0x1000ca0c
10004a28:	1000cce0 	.word	0x1000cce0
10004a2c:	1000c9c8 	.word	0x1000c9c8
10004a30:	1000cb74 	.word	0x1000cb74
10004a34:	1000ccc4 	.word	0x1000ccc4
10004a38:	1000cb8c 	.word	0x1000cb8c
10004a3c:	1000cd04 	.word	0x1000cd04
10004a40:	0fffffff 	.word	0x0fffffff
10004a44:	1000cb98 	.word	0x1000cb98
10004a48:	1000ca40 	.word	0x1000ca40
10004a4c:	1000cd4c 	.word	0x1000cd4c
10004a50:	1000ca5c 	.word	0x1000ca5c
10004a54:	1000cbd4 	.word	0x1000cbd4
10004a58:	1000cd18 	.word	0x1000cd18

10004a5c <alarm_pool_init_default>:
10004a5c:	b510      	push	{r4, lr}
10004a5e:	4b0a      	ldr	r3, [pc, #40]	; (10004a88 <alarm_pool_init_default+0x2c>)
10004a60:	685b      	ldr	r3, [r3, #4]
10004a62:	2b00      	cmp	r3, #0
10004a64:	d004      	beq.n	10004a70 <alarm_pool_init_default+0x14>
10004a66:	210a      	movs	r1, #10
10004a68:	4808      	ldr	r0, [pc, #32]	; (10004a8c <alarm_pool_init_default+0x30>)
10004a6a:	f7ff fcb9 	bl	100043e0 <lock_init>
10004a6e:	bd10      	pop	{r4, pc}
10004a70:	4c05      	ldr	r4, [pc, #20]	; (10004a88 <alarm_pool_init_default+0x2c>)
10004a72:	0023      	movs	r3, r4
10004a74:	4a06      	ldr	r2, [pc, #24]	; (10004a90 <alarm_pool_init_default+0x34>)
10004a76:	2110      	movs	r1, #16
10004a78:	6820      	ldr	r0, [r4, #0]
10004a7a:	f000 fc61 	bl	10005340 <ph_post_alloc_init>
10004a7e:	2103      	movs	r1, #3
10004a80:	0020      	movs	r0, r4
10004a82:	f7ff fcb5 	bl	100043f0 <alarm_pool_post_alloc_init>
10004a86:	e7ee      	b.n	10004a66 <alarm_pool_init_default+0xa>
10004a88:	2000046c 	.word	0x2000046c
10004a8c:	20001af0 	.word	0x20001af0
10004a90:	10004461 	.word	0x10004461

10004a94 <alarm_pool_get_default>:
10004a94:	b510      	push	{r4, lr}
10004a96:	4b06      	ldr	r3, [pc, #24]	; (10004ab0 <alarm_pool_get_default+0x1c>)
10004a98:	685b      	ldr	r3, [r3, #4]
10004a9a:	2b00      	cmp	r3, #0
10004a9c:	d001      	beq.n	10004aa2 <alarm_pool_get_default+0xe>
10004a9e:	4804      	ldr	r0, [pc, #16]	; (10004ab0 <alarm_pool_get_default+0x1c>)
10004aa0:	bd10      	pop	{r4, pc}
10004aa2:	4b04      	ldr	r3, [pc, #16]	; (10004ab4 <alarm_pool_get_default+0x20>)
10004aa4:	4a04      	ldr	r2, [pc, #16]	; (10004ab8 <alarm_pool_get_default+0x24>)
10004aa6:	215c      	movs	r1, #92	; 0x5c
10004aa8:	4804      	ldr	r0, [pc, #16]	; (10004abc <alarm_pool_get_default+0x28>)
10004aaa:	f000 fe01 	bl	100056b0 <__assert_func>
10004aae:	46c0      	nop			; (mov r8, r8)
10004ab0:	2000046c 	.word	0x2000046c
10004ab4:	1000cbf8 	.word	0x1000cbf8
10004ab8:	1000ccec 	.word	0x1000ccec
10004abc:	1000c9c8 	.word	0x1000c9c8

10004ac0 <alarm_pool_add_alarm_at>:
10004ac0:	b5f0      	push	{r4, r5, r6, r7, lr}
10004ac2:	46de      	mov	lr, fp
10004ac4:	4657      	mov	r7, sl
10004ac6:	464e      	mov	r6, r9
10004ac8:	4645      	mov	r5, r8
10004aca:	b5e0      	push	{r5, r6, r7, lr}
10004acc:	b08b      	sub	sp, #44	; 0x2c
10004ace:	4680      	mov	r8, r0
10004ad0:	0016      	movs	r6, r2
10004ad2:	001f      	movs	r7, r3
10004ad4:	9b14      	ldr	r3, [sp, #80]	; 0x50
10004ad6:	469a      	mov	sl, r3
10004ad8:	9b15      	ldr	r3, [sp, #84]	; 0x54
10004ada:	4699      	mov	r9, r3
10004adc:	ab16      	add	r3, sp, #88	; 0x58
10004ade:	781b      	ldrb	r3, [r3, #0]
10004ae0:	469b      	mov	fp, r3
10004ae2:	231f      	movs	r3, #31
10004ae4:	aa02      	add	r2, sp, #8
10004ae6:	4694      	mov	ip, r2
10004ae8:	4463      	add	r3, ip
10004aea:	2200      	movs	r2, #0
10004aec:	701a      	strb	r2, [r3, #0]
10004aee:	e032      	b.n	10004b56 <alarm_pool_add_alarm_at+0x96>
10004af0:	2800      	cmp	r0, #0
10004af2:	d009      	beq.n	10004b08 <alarm_pool_add_alarm_at+0x48>
10004af4:	4642      	mov	r2, r8
10004af6:	6812      	ldr	r2, [r2, #0]
10004af8:	7b12      	ldrb	r2, [r2, #12]
10004afa:	4290      	cmp	r0, r2
10004afc:	d804      	bhi.n	10004b08 <alarm_pool_add_alarm_at+0x48>
10004afe:	1e42      	subs	r2, r0, #1
10004b00:	4641      	mov	r1, r8
10004b02:	68c9      	ldr	r1, [r1, #12]
10004b04:	5c8a      	ldrb	r2, [r1, r2]
10004b06:	e048      	b.n	10004b9a <alarm_pool_add_alarm_at+0xda>
10004b08:	4b43      	ldr	r3, [pc, #268]	; (10004c18 <alarm_pool_add_alarm_at+0x158>)
10004b0a:	4a44      	ldr	r2, [pc, #272]	; (10004c1c <alarm_pool_add_alarm_at+0x15c>)
10004b0c:	2140      	movs	r1, #64	; 0x40
10004b0e:	4844      	ldr	r0, [pc, #272]	; (10004c20 <alarm_pool_add_alarm_at+0x160>)
10004b10:	f000 fdce 	bl	100056b0 <__assert_func>
10004b14:	9807      	ldr	r0, [sp, #28]
10004b16:	2b00      	cmp	r3, #0
10004b18:	d075      	beq.n	10004c06 <alarm_pool_add_alarm_at+0x146>
10004b1a:	465b      	mov	r3, fp
10004b1c:	2b00      	cmp	r3, #0
10004b1e:	d072      	beq.n	10004c06 <alarm_pool_add_alarm_at+0x146>
10004b20:	4649      	mov	r1, r9
10004b22:	47d0      	blx	sl
10004b24:	0004      	movs	r4, r0
10004b26:	000d      	movs	r5, r1
10004b28:	0003      	movs	r3, r0
10004b2a:	430b      	orrs	r3, r1
10004b2c:	d100      	bne.n	10004b30 <alarm_pool_add_alarm_at+0x70>
10004b2e:	e071      	b.n	10004c14 <alarm_pool_add_alarm_at+0x154>
10004b30:	2900      	cmp	r1, #0
10004b32:	db46      	blt.n	10004bc2 <alarm_pool_add_alarm_at+0x102>
10004b34:	f000 fa3a 	bl	10004fac <time_us_64>
10004b38:	0006      	movs	r6, r0
10004b3a:	1e0f      	subs	r7, r1, #0
10004b3c:	db55      	blt.n	10004bea <alarm_pool_add_alarm_at+0x12a>
10004b3e:	1936      	adds	r6, r6, r4
10004b40:	416f      	adcs	r7, r5
10004b42:	42b9      	cmp	r1, r7
10004b44:	d802      	bhi.n	10004b4c <alarm_pool_add_alarm_at+0x8c>
10004b46:	d104      	bne.n	10004b52 <alarm_pool_add_alarm_at+0x92>
10004b48:	42b0      	cmp	r0, r6
10004b4a:	d902      	bls.n	10004b52 <alarm_pool_add_alarm_at+0x92>
10004b4c:	2601      	movs	r6, #1
10004b4e:	4276      	negs	r6, r6
10004b50:	17f7      	asrs	r7, r6, #31
10004b52:	2f00      	cmp	r7, #0
10004b54:	db4f      	blt.n	10004bf6 <alarm_pool_add_alarm_at+0x136>
10004b56:	4643      	mov	r3, r8
10004b58:	685a      	ldr	r2, [r3, #4]
10004b5a:	f3ef 8410 	mrs	r4, PRIMASK
10004b5e:	b672      	cpsid	i
10004b60:	6813      	ldr	r3, [r2, #0]
10004b62:	4259      	negs	r1, r3
10004b64:	414b      	adcs	r3, r1
10004b66:	b2d9      	uxtb	r1, r3
10004b68:	9107      	str	r1, [sp, #28]
10004b6a:	2b00      	cmp	r3, #0
10004b6c:	d1f8      	bne.n	10004b60 <alarm_pool_add_alarm_at+0xa0>
10004b6e:	f3bf 8f5f 	dmb	sy
10004b72:	331f      	adds	r3, #31
10004b74:	aa02      	add	r2, sp, #8
10004b76:	4694      	mov	ip, r2
10004b78:	4463      	add	r3, ip
10004b7a:	9304      	str	r3, [sp, #16]
10004b7c:	2300      	movs	r3, #0
10004b7e:	9303      	str	r3, [sp, #12]
10004b80:	9302      	str	r3, [sp, #8]
10004b82:	464b      	mov	r3, r9
10004b84:	9301      	str	r3, [sp, #4]
10004b86:	4653      	mov	r3, sl
10004b88:	9300      	str	r3, [sp, #0]
10004b8a:	0032      	movs	r2, r6
10004b8c:	003b      	movs	r3, r7
10004b8e:	4640      	mov	r0, r8
10004b90:	f7ff fd16 	bl	100045c0 <add_alarm_under_lock>
10004b94:	1e03      	subs	r3, r0, #0
10004b96:	d1ab      	bne.n	10004af0 <alarm_pool_add_alarm_at+0x30>
10004b98:	0002      	movs	r2, r0
10004b9a:	4641      	mov	r1, r8
10004b9c:	6849      	ldr	r1, [r1, #4]
10004b9e:	f3bf 8f5f 	dmb	sy
10004ba2:	2500      	movs	r5, #0
10004ba4:	600d      	str	r5, [r1, #0]
10004ba6:	f384 8810 	msr	PRIMASK, r4
10004baa:	2b00      	cmp	r3, #0
10004bac:	d029      	beq.n	10004c02 <alarm_pool_add_alarm_at+0x142>
10004bae:	231f      	movs	r3, #31
10004bb0:	a902      	add	r1, sp, #8
10004bb2:	468c      	mov	ip, r1
10004bb4:	4463      	add	r3, ip
10004bb6:	781b      	ldrb	r3, [r3, #0]
10004bb8:	2b00      	cmp	r3, #0
10004bba:	d1ab      	bne.n	10004b14 <alarm_pool_add_alarm_at+0x54>
10004bbc:	0212      	lsls	r2, r2, #8
10004bbe:	4310      	orrs	r0, r2
10004bc0:	e7a9      	b.n	10004b16 <alarm_pool_add_alarm_at+0x56>
10004bc2:	0032      	movs	r2, r6
10004bc4:	003b      	movs	r3, r7
10004bc6:	1b36      	subs	r6, r6, r4
10004bc8:	41af      	sbcs	r7, r5
10004bca:	42bb      	cmp	r3, r7
10004bcc:	d802      	bhi.n	10004bd4 <alarm_pool_add_alarm_at+0x114>
10004bce:	d104      	bne.n	10004bda <alarm_pool_add_alarm_at+0x11a>
10004bd0:	42b2      	cmp	r2, r6
10004bd2:	d902      	bls.n	10004bda <alarm_pool_add_alarm_at+0x11a>
10004bd4:	2601      	movs	r6, #1
10004bd6:	4276      	negs	r6, r6
10004bd8:	17f7      	asrs	r7, r6, #31
10004bda:	2f00      	cmp	r7, #0
10004bdc:	dabb      	bge.n	10004b56 <alarm_pool_add_alarm_at+0x96>
10004bde:	4b11      	ldr	r3, [pc, #68]	; (10004c24 <alarm_pool_add_alarm_at+0x164>)
10004be0:	4a11      	ldr	r2, [pc, #68]	; (10004c28 <alarm_pool_add_alarm_at+0x168>)
10004be2:	213f      	movs	r1, #63	; 0x3f
10004be4:	4811      	ldr	r0, [pc, #68]	; (10004c2c <alarm_pool_add_alarm_at+0x16c>)
10004be6:	f000 fd63 	bl	100056b0 <__assert_func>
10004bea:	4b0e      	ldr	r3, [pc, #56]	; (10004c24 <alarm_pool_add_alarm_at+0x164>)
10004bec:	4a0e      	ldr	r2, [pc, #56]	; (10004c28 <alarm_pool_add_alarm_at+0x168>)
10004bee:	213f      	movs	r1, #63	; 0x3f
10004bf0:	480e      	ldr	r0, [pc, #56]	; (10004c2c <alarm_pool_add_alarm_at+0x16c>)
10004bf2:	f000 fd5d 	bl	100056b0 <__assert_func>
10004bf6:	4b0b      	ldr	r3, [pc, #44]	; (10004c24 <alarm_pool_add_alarm_at+0x164>)
10004bf8:	4a0b      	ldr	r2, [pc, #44]	; (10004c28 <alarm_pool_add_alarm_at+0x168>)
10004bfa:	213f      	movs	r1, #63	; 0x3f
10004bfc:	480b      	ldr	r0, [pc, #44]	; (10004c2c <alarm_pool_add_alarm_at+0x16c>)
10004bfe:	f000 fd57 	bl	100056b0 <__assert_func>
10004c02:	2001      	movs	r0, #1
10004c04:	4240      	negs	r0, r0
10004c06:	b00b      	add	sp, #44	; 0x2c
10004c08:	bcf0      	pop	{r4, r5, r6, r7}
10004c0a:	46bb      	mov	fp, r7
10004c0c:	46b2      	mov	sl, r6
10004c0e:	46a9      	mov	r9, r5
10004c10:	46a0      	mov	r8, r4
10004c12:	bdf0      	pop	{r4, r5, r6, r7, pc}
10004c14:	9807      	ldr	r0, [sp, #28]
10004c16:	e7f6      	b.n	10004c06 <alarm_pool_add_alarm_at+0x146>
10004c18:	1000ca0c 	.word	0x1000ca0c
10004c1c:	1000cd04 	.word	0x1000cd04
10004c20:	1000c9c8 	.word	0x1000c9c8
10004c24:	1000cb08 	.word	0x1000cb08
10004c28:	1000ccac 	.word	0x1000ccac
10004c2c:	1000cb24 	.word	0x1000cb24

10004c30 <alarm_pool_cancel_alarm>:
10004c30:	b5f8      	push	{r3, r4, r5, r6, r7, lr}
10004c32:	0004      	movs	r4, r0
10004c34:	6842      	ldr	r2, [r0, #4]
10004c36:	f3ef 8510 	mrs	r5, PRIMASK
10004c3a:	b672      	cpsid	i
10004c3c:	6813      	ldr	r3, [r2, #0]
10004c3e:	4258      	negs	r0, r3
10004c40:	4143      	adcs	r3, r0
10004c42:	b2d8      	uxtb	r0, r3
10004c44:	2b00      	cmp	r3, #0
10004c46:	d1f9      	bne.n	10004c3c <alarm_pool_cancel_alarm+0xc>
10004c48:	f3bf 8f5f 	dmb	sy
10004c4c:	b2cb      	uxtb	r3, r1
10004c4e:	6822      	ldr	r2, [r4, #0]
10004c50:	7b56      	ldrb	r6, [r2, #13]
10004c52:	42b3      	cmp	r3, r6
10004c54:	d11b      	bne.n	10004c8e <alarm_pool_cancel_alarm+0x5e>
10004c56:	2001      	movs	r0, #1
10004c58:	2800      	cmp	r0, #0
10004c5a:	d048      	beq.n	10004cee <alarm_pool_cancel_alarm+0xbe>
10004c5c:	6920      	ldr	r0, [r4, #16]
10004c5e:	4288      	cmp	r0, r1
10004c60:	d02b      	beq.n	10004cba <alarm_pool_cancel_alarm+0x8a>
10004c62:	0a09      	lsrs	r1, r1, #8
10004c64:	b2c9      	uxtb	r1, r1
10004c66:	2b00      	cmp	r3, #0
10004c68:	d02e      	beq.n	10004cc8 <alarm_pool_cancel_alarm+0x98>
10004c6a:	6820      	ldr	r0, [r4, #0]
10004c6c:	7b00      	ldrb	r0, [r0, #12]
10004c6e:	4283      	cmp	r3, r0
10004c70:	d82a      	bhi.n	10004cc8 <alarm_pool_cancel_alarm+0x98>
10004c72:	1e58      	subs	r0, r3, #1
10004c74:	68e6      	ldr	r6, [r4, #12]
10004c76:	5c30      	ldrb	r0, [r6, r0]
10004c78:	4288      	cmp	r0, r1
10004c7a:	d02b      	beq.n	10004cd4 <alarm_pool_cancel_alarm+0xa4>
10004c7c:	2000      	movs	r0, #0
10004c7e:	6863      	ldr	r3, [r4, #4]
10004c80:	f3bf 8f5f 	dmb	sy
10004c84:	2200      	movs	r2, #0
10004c86:	601a      	str	r2, [r3, #0]
10004c88:	f385 8810 	msr	PRIMASK, r5
10004c8c:	bdf8      	pop	{r3, r4, r5, r6, r7, pc}
10004c8e:	2b00      	cmp	r3, #0
10004c90:	d00d      	beq.n	10004cae <alarm_pool_cancel_alarm+0x7e>
10004c92:	7b16      	ldrb	r6, [r2, #12]
10004c94:	42b3      	cmp	r3, r6
10004c96:	d80a      	bhi.n	10004cae <alarm_pool_cancel_alarm+0x7e>
10004c98:	005e      	lsls	r6, r3, #1
10004c9a:	18f6      	adds	r6, r6, r3
10004c9c:	3e03      	subs	r6, #3
10004c9e:	6817      	ldr	r7, [r2, #0]
10004ca0:	46bc      	mov	ip, r7
10004ca2:	4466      	add	r6, ip
10004ca4:	78b6      	ldrb	r6, [r6, #2]
10004ca6:	2e00      	cmp	r6, #0
10004ca8:	d0d6      	beq.n	10004c58 <alarm_pool_cancel_alarm+0x28>
10004caa:	2001      	movs	r0, #1
10004cac:	e7d4      	b.n	10004c58 <alarm_pool_cancel_alarm+0x28>
10004cae:	4b13      	ldr	r3, [pc, #76]	; (10004cfc <alarm_pool_cancel_alarm+0xcc>)
10004cb0:	4a13      	ldr	r2, [pc, #76]	; (10004d00 <alarm_pool_cancel_alarm+0xd0>)
10004cb2:	2168      	movs	r1, #104	; 0x68
10004cb4:	4813      	ldr	r0, [pc, #76]	; (10004d04 <alarm_pool_cancel_alarm+0xd4>)
10004cb6:	f000 fcfb 	bl	100056b0 <__assert_func>
10004cba:	2185      	movs	r1, #133	; 0x85
10004cbc:	4b12      	ldr	r3, [pc, #72]	; (10004d08 <alarm_pool_cancel_alarm+0xd8>)
10004cbe:	4a13      	ldr	r2, [pc, #76]	; (10004d0c <alarm_pool_cancel_alarm+0xdc>)
10004cc0:	0049      	lsls	r1, r1, #1
10004cc2:	4813      	ldr	r0, [pc, #76]	; (10004d10 <alarm_pool_cancel_alarm+0xe0>)
10004cc4:	f000 fcf4 	bl	100056b0 <__assert_func>
10004cc8:	4b12      	ldr	r3, [pc, #72]	; (10004d14 <alarm_pool_cancel_alarm+0xe4>)
10004cca:	4a13      	ldr	r2, [pc, #76]	; (10004d18 <alarm_pool_cancel_alarm+0xe8>)
10004ccc:	2140      	movs	r1, #64	; 0x40
10004cce:	4810      	ldr	r0, [pc, #64]	; (10004d10 <alarm_pool_cancel_alarm+0xe0>)
10004cd0:	f000 fcee 	bl	100056b0 <__assert_func>
10004cd4:	0019      	movs	r1, r3
10004cd6:	0010      	movs	r0, r2
10004cd8:	f000 fc1c 	bl	10005514 <ph_remove_and_free_node>
10004cdc:	2800      	cmp	r0, #0
10004cde:	d1ce      	bne.n	10004c7e <alarm_pool_cancel_alarm+0x4e>
10004ce0:	2112      	movs	r1, #18
10004ce2:	4b0e      	ldr	r3, [pc, #56]	; (10004d1c <alarm_pool_cancel_alarm+0xec>)
10004ce4:	4a09      	ldr	r2, [pc, #36]	; (10004d0c <alarm_pool_cancel_alarm+0xdc>)
10004ce6:	31ff      	adds	r1, #255	; 0xff
10004ce8:	4809      	ldr	r0, [pc, #36]	; (10004d10 <alarm_pool_cancel_alarm+0xe0>)
10004cea:	f000 fce1 	bl	100056b0 <__assert_func>
10004cee:	6923      	ldr	r3, [r4, #16]
10004cf0:	428b      	cmp	r3, r1
10004cf2:	d1c4      	bne.n	10004c7e <alarm_pool_cancel_alarm+0x4e>
10004cf4:	2300      	movs	r3, #0
10004cf6:	6123      	str	r3, [r4, #16]
10004cf8:	e7c1      	b.n	10004c7e <alarm_pool_cancel_alarm+0x4e>
10004cfa:	46c0      	nop			; (mov r8, r8)
10004cfc:	1000ca40 	.word	0x1000ca40
10004d00:	1000cd4c 	.word	0x1000cd4c
10004d04:	1000ca5c 	.word	0x1000ca5c
10004d08:	1000cc1c 	.word	0x1000cc1c
10004d0c:	1000cc94 	.word	0x1000cc94
10004d10:	1000c9c8 	.word	0x1000c9c8
10004d14:	1000ca0c 	.word	0x1000ca0c
10004d18:	1000cd04 	.word	0x1000cd04
10004d1c:	1000cc40 	.word	0x1000cc40

10004d20 <sleep_until>:
10004d20:	b5f0      	push	{r4, r5, r6, r7, lr}
10004d22:	b087      	sub	sp, #28
10004d24:	0006      	movs	r6, r0
10004d26:	000f      	movs	r7, r1
10004d28:	f7fb fa9d 	bl	10000266 <__get_current_exception>
10004d2c:	2800      	cmp	r0, #0
10004d2e:	d11f      	bne.n	10004d70 <sleep_until+0x50>
10004d30:	2406      	movs	r4, #6
10004d32:	4264      	negs	r4, r4
10004d34:	17e5      	asrs	r5, r4, #31
10004d36:	19a4      	adds	r4, r4, r6
10004d38:	417d      	adcs	r5, r7
10004d3a:	42bd      	cmp	r5, r7
10004d3c:	d802      	bhi.n	10004d44 <sleep_until+0x24>
10004d3e:	d103      	bne.n	10004d48 <sleep_until+0x28>
10004d40:	42b4      	cmp	r4, r6
10004d42:	d901      	bls.n	10004d48 <sleep_until+0x28>
10004d44:	2400      	movs	r4, #0
10004d46:	2500      	movs	r5, #0
10004d48:	2d00      	cmp	r5, #0
10004d4a:	db14      	blt.n	10004d76 <sleep_until+0x56>
10004d4c:	9404      	str	r4, [sp, #16]
10004d4e:	9505      	str	r5, [sp, #20]
10004d50:	f000 f92c 	bl	10004fac <time_us_64>
10004d54:	0002      	movs	r2, r0
10004d56:	1e0b      	subs	r3, r1, #0
10004d58:	db13      	blt.n	10004d82 <sleep_until+0x62>
10004d5a:	1aa4      	subs	r4, r4, r2
10004d5c:	419d      	sbcs	r5, r3
10004d5e:	2d00      	cmp	r5, #0
10004d60:	dc17      	bgt.n	10004d92 <sleep_until+0x72>
10004d62:	d014      	beq.n	10004d8e <sleep_until+0x6e>
10004d64:	0030      	movs	r0, r6
10004d66:	0039      	movs	r1, r7
10004d68:	f000 f92c 	bl	10004fc4 <busy_wait_until>
10004d6c:	b007      	add	sp, #28
10004d6e:	bdf0      	pop	{r4, r5, r6, r7, pc}
10004d70:	4823      	ldr	r0, [pc, #140]	; (10004e00 <sleep_until+0xe0>)
10004d72:	f000 fd37 	bl	100057e4 <panic>
10004d76:	4b23      	ldr	r3, [pc, #140]	; (10004e04 <sleep_until+0xe4>)
10004d78:	4a23      	ldr	r2, [pc, #140]	; (10004e08 <sleep_until+0xe8>)
10004d7a:	213f      	movs	r1, #63	; 0x3f
10004d7c:	4823      	ldr	r0, [pc, #140]	; (10004e0c <sleep_until+0xec>)
10004d7e:	f000 fc97 	bl	100056b0 <__assert_func>
10004d82:	4b20      	ldr	r3, [pc, #128]	; (10004e04 <sleep_until+0xe4>)
10004d84:	4a20      	ldr	r2, [pc, #128]	; (10004e08 <sleep_until+0xe8>)
10004d86:	213f      	movs	r1, #63	; 0x3f
10004d88:	4820      	ldr	r0, [pc, #128]	; (10004e0c <sleep_until+0xec>)
10004d8a:	f000 fc91 	bl	100056b0 <__assert_func>
10004d8e:	2c00      	cmp	r4, #0
10004d90:	d0e8      	beq.n	10004d64 <sleep_until+0x44>
10004d92:	f7ff fe7f 	bl	10004a94 <alarm_pool_get_default>
10004d96:	2300      	movs	r3, #0
10004d98:	9302      	str	r3, [sp, #8]
10004d9a:	9301      	str	r3, [sp, #4]
10004d9c:	4b1c      	ldr	r3, [pc, #112]	; (10004e10 <sleep_until+0xf0>)
10004d9e:	9300      	str	r3, [sp, #0]
10004da0:	9a04      	ldr	r2, [sp, #16]
10004da2:	9b05      	ldr	r3, [sp, #20]
10004da4:	f7ff fe8c 	bl	10004ac0 <alarm_pool_add_alarm_at>
10004da8:	2800      	cmp	r0, #0
10004daa:	da18      	bge.n	10004dde <sleep_until+0xbe>
10004dac:	e7da      	b.n	10004d64 <sleep_until+0x44>
10004dae:	2300      	movs	r3, #0
10004db0:	e000      	b.n	10004db4 <sleep_until+0x94>
10004db2:	2300      	movs	r3, #0
10004db4:	2b00      	cmp	r3, #0
10004db6:	d1d5      	bne.n	10004d64 <sleep_until+0x44>
10004db8:	4b16      	ldr	r3, [pc, #88]	; (10004e14 <sleep_until+0xf4>)
10004dba:	681a      	ldr	r2, [r3, #0]
10004dbc:	f3ef 8110 	mrs	r1, PRIMASK
10004dc0:	b672      	cpsid	i
10004dc2:	6813      	ldr	r3, [r2, #0]
10004dc4:	2b00      	cmp	r3, #0
10004dc6:	d0fc      	beq.n	10004dc2 <sleep_until+0xa2>
10004dc8:	f3bf 8f5f 	dmb	sy
10004dcc:	4b11      	ldr	r3, [pc, #68]	; (10004e14 <sleep_until+0xf4>)
10004dce:	681b      	ldr	r3, [r3, #0]
10004dd0:	f3bf 8f5f 	dmb	sy
10004dd4:	2200      	movs	r2, #0
10004dd6:	601a      	str	r2, [r3, #0]
10004dd8:	f381 8810 	msr	PRIMASK, r1
10004ddc:	bf20      	wfe
10004dde:	9904      	ldr	r1, [sp, #16]
10004de0:	9a05      	ldr	r2, [sp, #20]
10004de2:	4b0d      	ldr	r3, [pc, #52]	; (10004e18 <sleep_until+0xf8>)
10004de4:	6a5b      	ldr	r3, [r3, #36]	; 0x24
10004de6:	429a      	cmp	r2, r3
10004de8:	d8e3      	bhi.n	10004db2 <sleep_until+0x92>
10004dea:	480b      	ldr	r0, [pc, #44]	; (10004e18 <sleep_until+0xf8>)
10004dec:	6a80      	ldr	r0, [r0, #40]	; 0x28
10004dee:	4288      	cmp	r0, r1
10004df0:	d203      	bcs.n	10004dfa <sleep_until+0xda>
10004df2:	429a      	cmp	r2, r3
10004df4:	d0db      	beq.n	10004dae <sleep_until+0x8e>
10004df6:	2301      	movs	r3, #1
10004df8:	e7dc      	b.n	10004db4 <sleep_until+0x94>
10004dfa:	2301      	movs	r3, #1
10004dfc:	e7da      	b.n	10004db4 <sleep_until+0x94>
10004dfe:	46c0      	nop			; (mov r8, r8)
10004e00:	1000cc44 	.word	0x1000cc44
10004e04:	1000cb08 	.word	0x1000cb08
10004e08:	1000ccac 	.word	0x1000ccac
10004e0c:	1000cb24 	.word	0x1000cb24
10004e10:	10004431 	.word	0x10004431
10004e14:	20001af0 	.word	0x20001af0
10004e18:	40054000 	.word	0x40054000

10004e1c <sleep_us>:
10004e1c:	b5f8      	push	{r3, r4, r5, r6, r7, lr}
10004e1e:	0004      	movs	r4, r0
10004e20:	000d      	movs	r5, r1
10004e22:	f000 f8c3 	bl	10004fac <time_us_64>
10004e26:	0002      	movs	r2, r0
10004e28:	1e0b      	subs	r3, r1, #0
10004e2a:	db10      	blt.n	10004e4e <sleep_us+0x32>
10004e2c:	0020      	movs	r0, r4
10004e2e:	0029      	movs	r1, r5
10004e30:	1880      	adds	r0, r0, r2
10004e32:	4159      	adcs	r1, r3
10004e34:	428b      	cmp	r3, r1
10004e36:	d802      	bhi.n	10004e3e <sleep_us+0x22>
10004e38:	d104      	bne.n	10004e44 <sleep_us+0x28>
10004e3a:	4282      	cmp	r2, r0
10004e3c:	d902      	bls.n	10004e44 <sleep_us+0x28>
10004e3e:	2001      	movs	r0, #1
10004e40:	4240      	negs	r0, r0
10004e42:	17c1      	asrs	r1, r0, #31
10004e44:	2900      	cmp	r1, #0
10004e46:	db08      	blt.n	10004e5a <sleep_us+0x3e>
10004e48:	f7ff ff6a 	bl	10004d20 <sleep_until>
10004e4c:	bdf8      	pop	{r3, r4, r5, r6, r7, pc}
10004e4e:	4b06      	ldr	r3, [pc, #24]	; (10004e68 <sleep_us+0x4c>)
10004e50:	4a06      	ldr	r2, [pc, #24]	; (10004e6c <sleep_us+0x50>)
10004e52:	213f      	movs	r1, #63	; 0x3f
10004e54:	4806      	ldr	r0, [pc, #24]	; (10004e70 <sleep_us+0x54>)
10004e56:	f000 fc2b 	bl	100056b0 <__assert_func>
10004e5a:	4b03      	ldr	r3, [pc, #12]	; (10004e68 <sleep_us+0x4c>)
10004e5c:	4a03      	ldr	r2, [pc, #12]	; (10004e6c <sleep_us+0x50>)
10004e5e:	213f      	movs	r1, #63	; 0x3f
10004e60:	4803      	ldr	r0, [pc, #12]	; (10004e70 <sleep_us+0x54>)
10004e62:	f000 fc25 	bl	100056b0 <__assert_func>
10004e66:	46c0      	nop			; (mov r8, r8)
10004e68:	1000cb08 	.word	0x1000cb08
10004e6c:	1000ccac 	.word	0x1000ccac
10004e70:	1000cb24 	.word	0x1000cb24

10004e74 <sleep_ms>:
10004e74:	b510      	push	{r4, lr}
10004e76:	22fa      	movs	r2, #250	; 0xfa
10004e78:	0092      	lsls	r2, r2, #2
10004e7a:	2300      	movs	r3, #0
10004e7c:	2100      	movs	r1, #0
10004e7e:	f002 fe31 	bl	10007ae4 <__wrap___aeabi_lmul>
10004e82:	f7ff ffcb 	bl	10004e1c <sleep_us>
10004e86:	bd10      	pop	{r4, pc}

10004e88 <best_effort_wfe_or_timeout>:
10004e88:	b570      	push	{r4, r5, r6, lr}
10004e8a:	b084      	sub	sp, #16
10004e8c:	0006      	movs	r6, r0
10004e8e:	000c      	movs	r4, r1
10004e90:	f7ff fe00 	bl	10004a94 <alarm_pool_get_default>
10004e94:	2300      	movs	r3, #0
10004e96:	9302      	str	r3, [sp, #8]
10004e98:	9301      	str	r3, [sp, #4]
10004e9a:	4b19      	ldr	r3, [pc, #100]	; (10004f00 <best_effort_wfe_or_timeout+0x78>)
10004e9c:	9300      	str	r3, [sp, #0]
10004e9e:	0032      	movs	r2, r6
10004ea0:	0023      	movs	r3, r4
10004ea2:	f7ff fe0d 	bl	10004ac0 <alarm_pool_add_alarm_at>
10004ea6:	1e05      	subs	r5, r0, #0
10004ea8:	dd11      	ble.n	10004ece <best_effort_wfe_or_timeout+0x46>
10004eaa:	bf20      	wfe
10004eac:	f7ff fdf2 	bl	10004a94 <alarm_pool_get_default>
10004eb0:	0029      	movs	r1, r5
10004eb2:	f7ff febd 	bl	10004c30 <alarm_pool_cancel_alarm>
10004eb6:	4b13      	ldr	r3, [pc, #76]	; (10004f04 <best_effort_wfe_or_timeout+0x7c>)
10004eb8:	6a5b      	ldr	r3, [r3, #36]	; 0x24
10004eba:	429c      	cmp	r4, r3
10004ebc:	d81b      	bhi.n	10004ef6 <best_effort_wfe_or_timeout+0x6e>
10004ebe:	4a11      	ldr	r2, [pc, #68]	; (10004f04 <best_effort_wfe_or_timeout+0x7c>)
10004ec0:	6a92      	ldr	r2, [r2, #40]	; 0x28
10004ec2:	42b2      	cmp	r2, r6
10004ec4:	d21a      	bcs.n	10004efc <best_effort_wfe_or_timeout+0x74>
10004ec6:	429c      	cmp	r4, r3
10004ec8:	d013      	beq.n	10004ef2 <best_effort_wfe_or_timeout+0x6a>
10004eca:	2001      	movs	r0, #1
10004ecc:	e014      	b.n	10004ef8 <best_effort_wfe_or_timeout+0x70>
10004ece:	4b0d      	ldr	r3, [pc, #52]	; (10004f04 <best_effort_wfe_or_timeout+0x7c>)
10004ed0:	6a5b      	ldr	r3, [r3, #36]	; 0x24
10004ed2:	429c      	cmp	r4, r3
10004ed4:	d809      	bhi.n	10004eea <best_effort_wfe_or_timeout+0x62>
10004ed6:	4a0b      	ldr	r2, [pc, #44]	; (10004f04 <best_effort_wfe_or_timeout+0x7c>)
10004ed8:	6a92      	ldr	r2, [r2, #40]	; 0x28
10004eda:	42b2      	cmp	r2, r6
10004edc:	d207      	bcs.n	10004eee <best_effort_wfe_or_timeout+0x66>
10004ede:	429c      	cmp	r4, r3
10004ee0:	d001      	beq.n	10004ee6 <best_effort_wfe_or_timeout+0x5e>
10004ee2:	2001      	movs	r0, #1
10004ee4:	e008      	b.n	10004ef8 <best_effort_wfe_or_timeout+0x70>
10004ee6:	2000      	movs	r0, #0
10004ee8:	e006      	b.n	10004ef8 <best_effort_wfe_or_timeout+0x70>
10004eea:	2000      	movs	r0, #0
10004eec:	e004      	b.n	10004ef8 <best_effort_wfe_or_timeout+0x70>
10004eee:	2001      	movs	r0, #1
10004ef0:	e002      	b.n	10004ef8 <best_effort_wfe_or_timeout+0x70>
10004ef2:	2000      	movs	r0, #0
10004ef4:	e000      	b.n	10004ef8 <best_effort_wfe_or_timeout+0x70>
10004ef6:	2000      	movs	r0, #0
10004ef8:	b004      	add	sp, #16
10004efa:	bd70      	pop	{r4, r5, r6, pc}
10004efc:	2001      	movs	r0, #1
10004efe:	e7fb      	b.n	10004ef8 <best_effort_wfe_or_timeout+0x70>
10004f00:	10004431 	.word	0x10004431
10004f04:	40054000 	.word	0x40054000

10004f08 <hardware_alarm_irq_handler>:
10004f08:	b570      	push	{r4, r5, r6, lr}
10004f0a:	f3ef 8305 	mrs	r3, IPSR
10004f0e:	203f      	movs	r0, #63	; 0x3f
10004f10:	4018      	ands	r0, r3
10004f12:	3810      	subs	r0, #16
10004f14:	f3ef 8c10 	mrs	ip, PRIMASK
10004f18:	b672      	cpsid	i
10004f1a:	4b19      	ldr	r3, [pc, #100]	; (10004f80 <hardware_alarm_irq_handler+0x78>)
10004f1c:	681b      	ldr	r3, [r3, #0]
10004f1e:	2b00      	cmp	r3, #0
10004f20:	d0fb      	beq.n	10004f1a <hardware_alarm_irq_handler+0x12>
10004f22:	f3bf 8f5f 	dmb	sy
10004f26:	2301      	movs	r3, #1
10004f28:	0019      	movs	r1, r3
10004f2a:	4081      	lsls	r1, r0
10004f2c:	4a15      	ldr	r2, [pc, #84]	; (10004f84 <hardware_alarm_irq_handler+0x7c>)
10004f2e:	6351      	str	r1, [r2, #52]	; 0x34
10004f30:	4a15      	ldr	r2, [pc, #84]	; (10004f88 <hardware_alarm_irq_handler+0x80>)
10004f32:	7812      	ldrb	r2, [r2, #0]
10004f34:	0014      	movs	r4, r2
10004f36:	40c4      	lsrs	r4, r0
10004f38:	4223      	tst	r3, r4
10004f3a:	d014      	beq.n	10004f66 <hardware_alarm_irq_handler+0x5e>
10004f3c:	4b11      	ldr	r3, [pc, #68]	; (10004f84 <hardware_alarm_irq_handler+0x7c>)
10004f3e:	6a5c      	ldr	r4, [r3, #36]	; 0x24
10004f40:	0083      	lsls	r3, r0, #2
10004f42:	4d12      	ldr	r5, [pc, #72]	; (10004f8c <hardware_alarm_irq_handler+0x84>)
10004f44:	595b      	ldr	r3, [r3, r5]
10004f46:	429c      	cmp	r4, r3
10004f48:	d306      	bcc.n	10004f58 <hardware_alarm_irq_handler+0x50>
10004f4a:	0083      	lsls	r3, r0, #2
10004f4c:	4c10      	ldr	r4, [pc, #64]	; (10004f90 <hardware_alarm_irq_handler+0x88>)
10004f4e:	591b      	ldr	r3, [r3, r4]
10004f50:	438a      	bics	r2, r1
10004f52:	490d      	ldr	r1, [pc, #52]	; (10004f88 <hardware_alarm_irq_handler+0x80>)
10004f54:	700a      	strb	r2, [r1, #0]
10004f56:	e007      	b.n	10004f68 <hardware_alarm_irq_handler+0x60>
10004f58:	4a0a      	ldr	r2, [pc, #40]	; (10004f84 <hardware_alarm_irq_handler+0x7c>)
10004f5a:	1d03      	adds	r3, r0, #4
10004f5c:	009b      	lsls	r3, r3, #2
10004f5e:	5899      	ldr	r1, [r3, r2]
10004f60:	5099      	str	r1, [r3, r2]
10004f62:	2300      	movs	r3, #0
10004f64:	e000      	b.n	10004f68 <hardware_alarm_irq_handler+0x60>
10004f66:	2300      	movs	r3, #0
10004f68:	f3bf 8f5f 	dmb	sy
10004f6c:	4a04      	ldr	r2, [pc, #16]	; (10004f80 <hardware_alarm_irq_handler+0x78>)
10004f6e:	2100      	movs	r1, #0
10004f70:	6011      	str	r1, [r2, #0]
10004f72:	f38c 8810 	msr	PRIMASK, ip
10004f76:	2b00      	cmp	r3, #0
10004f78:	d000      	beq.n	10004f7c <hardware_alarm_irq_handler+0x74>
10004f7a:	4798      	blx	r3
10004f7c:	bd70      	pop	{r4, r5, r6, pc}
10004f7e:	46c0      	nop			; (mov r8, r8)
10004f80:	d0000128 	.word	0xd0000128
10004f84:	40054000 	.word	0x40054000
10004f88:	20001b2a 	.word	0x20001b2a
10004f8c:	20001afc 	.word	0x20001afc
10004f90:	20001318 	.word	0x20001318

10004f94 <hardware_alarm_claim>:
10004f94:	b510      	push	{r4, lr}
10004f96:	0001      	movs	r1, r0
10004f98:	4a02      	ldr	r2, [pc, #8]	; (10004fa4 <hardware_alarm_claim+0x10>)
10004f9a:	4803      	ldr	r0, [pc, #12]	; (10004fa8 <hardware_alarm_claim+0x14>)
10004f9c:	f7fe fe54 	bl	10003c48 <hw_claim_or_assert>
10004fa0:	bd10      	pop	{r4, pc}
10004fa2:	46c0      	nop			; (mov r8, r8)
10004fa4:	1000cd78 	.word	0x1000cd78
10004fa8:	20001b25 	.word	0x20001b25

10004fac <time_us_64>:
10004fac:	4b04      	ldr	r3, [pc, #16]	; (10004fc0 <time_us_64+0x14>)
10004fae:	6a5b      	ldr	r3, [r3, #36]	; 0x24
10004fb0:	4a03      	ldr	r2, [pc, #12]	; (10004fc0 <time_us_64+0x14>)
10004fb2:	6a90      	ldr	r0, [r2, #40]	; 0x28
10004fb4:	0019      	movs	r1, r3
10004fb6:	6a53      	ldr	r3, [r2, #36]	; 0x24
10004fb8:	4299      	cmp	r1, r3
10004fba:	d1f9      	bne.n	10004fb0 <time_us_64+0x4>
10004fbc:	4770      	bx	lr
10004fbe:	46c0      	nop			; (mov r8, r8)
10004fc0:	40054000 	.word	0x40054000

10004fc4 <busy_wait_until>:
10004fc4:	4b08      	ldr	r3, [pc, #32]	; (10004fe8 <busy_wait_until+0x24>)
10004fc6:	6a5b      	ldr	r3, [r3, #36]	; 0x24
10004fc8:	e001      	b.n	10004fce <busy_wait_until+0xa>
10004fca:	4b07      	ldr	r3, [pc, #28]	; (10004fe8 <busy_wait_until+0x24>)
10004fcc:	6a5b      	ldr	r3, [r3, #36]	; 0x24
10004fce:	428b      	cmp	r3, r1
10004fd0:	d3fb      	bcc.n	10004fca <busy_wait_until+0x6>
10004fd2:	e001      	b.n	10004fd8 <busy_wait_until+0x14>
10004fd4:	4b04      	ldr	r3, [pc, #16]	; (10004fe8 <busy_wait_until+0x24>)
10004fd6:	6a5b      	ldr	r3, [r3, #36]	; 0x24
10004fd8:	428b      	cmp	r3, r1
10004fda:	d103      	bne.n	10004fe4 <busy_wait_until+0x20>
10004fdc:	4b02      	ldr	r3, [pc, #8]	; (10004fe8 <busy_wait_until+0x24>)
10004fde:	6a9b      	ldr	r3, [r3, #40]	; 0x28
10004fe0:	4283      	cmp	r3, r0
10004fe2:	d3f7      	bcc.n	10004fd4 <busy_wait_until+0x10>
10004fe4:	4770      	bx	lr
10004fe6:	46c0      	nop			; (mov r8, r8)
10004fe8:	40054000 	.word	0x40054000

10004fec <busy_wait_us>:
10004fec:	b570      	push	{r4, r5, r6, lr}
10004fee:	0004      	movs	r4, r0
10004ff0:	000d      	movs	r5, r1
10004ff2:	f7ff ffdb 	bl	10004fac <time_us_64>
10004ff6:	0002      	movs	r2, r0
10004ff8:	000b      	movs	r3, r1
10004ffa:	0020      	movs	r0, r4
10004ffc:	0029      	movs	r1, r5
10004ffe:	1880      	adds	r0, r0, r2
10005000:	4159      	adcs	r1, r3
10005002:	428b      	cmp	r3, r1
10005004:	d802      	bhi.n	1000500c <busy_wait_us+0x20>
10005006:	d104      	bne.n	10005012 <busy_wait_us+0x26>
10005008:	4282      	cmp	r2, r0
1000500a:	d902      	bls.n	10005012 <busy_wait_us+0x26>
1000500c:	2001      	movs	r0, #1
1000500e:	4240      	negs	r0, r0
10005010:	17c1      	asrs	r1, r0, #31
10005012:	2900      	cmp	r1, #0
10005014:	db02      	blt.n	1000501c <busy_wait_us+0x30>
10005016:	f7ff ffd5 	bl	10004fc4 <busy_wait_until>
1000501a:	bd70      	pop	{r4, r5, r6, pc}
1000501c:	4b02      	ldr	r3, [pc, #8]	; (10005028 <busy_wait_us+0x3c>)
1000501e:	4a03      	ldr	r2, [pc, #12]	; (1000502c <busy_wait_us+0x40>)
10005020:	213f      	movs	r1, #63	; 0x3f
10005022:	4803      	ldr	r0, [pc, #12]	; (10005030 <busy_wait_us+0x44>)
10005024:	f000 fb44 	bl	100056b0 <__assert_func>
10005028:	1000cb08 	.word	0x1000cb08
1000502c:	1000ce28 	.word	0x1000ce28
10005030:	1000cb24 	.word	0x1000cb24

10005034 <hardware_alarm_set_callback>:
10005034:	b570      	push	{r4, r5, r6, lr}
10005036:	0004      	movs	r4, r0
10005038:	000d      	movs	r5, r1
1000503a:	f3ef 8610 	mrs	r6, PRIMASK
1000503e:	b672      	cpsid	i
10005040:	4b1b      	ldr	r3, [pc, #108]	; (100050b0 <hardware_alarm_set_callback+0x7c>)
10005042:	681b      	ldr	r3, [r3, #0]
10005044:	2b00      	cmp	r3, #0
10005046:	d0fb      	beq.n	10005040 <hardware_alarm_set_callback+0xc>
10005048:	f3bf 8f5f 	dmb	sy
1000504c:	2d00      	cmp	r5, #0
1000504e:	d01c      	beq.n	1000508a <hardware_alarm_set_callback+0x56>
10005050:	0020      	movs	r0, r4
10005052:	f7fe fef7 	bl	10003e44 <irq_get_vtable_handler>
10005056:	4b17      	ldr	r3, [pc, #92]	; (100050b4 <hardware_alarm_set_callback+0x80>)
10005058:	4283      	cmp	r3, r0
1000505a:	d00b      	beq.n	10005074 <hardware_alarm_set_callback+0x40>
1000505c:	0019      	movs	r1, r3
1000505e:	0020      	movs	r0, r4
10005060:	f7fe ff0a 	bl	10003e78 <irq_set_exclusive_handler>
10005064:	2101      	movs	r1, #1
10005066:	0020      	movs	r0, r4
10005068:	f7fe fedc 	bl	10003e24 <irq_set_enabled>
1000506c:	2301      	movs	r3, #1
1000506e:	40a3      	lsls	r3, r4
10005070:	4a11      	ldr	r2, [pc, #68]	; (100050b8 <hardware_alarm_set_callback+0x84>)
10005072:	6013      	str	r3, [r2, #0]
10005074:	00a4      	lsls	r4, r4, #2
10005076:	4b11      	ldr	r3, [pc, #68]	; (100050bc <hardware_alarm_set_callback+0x88>)
10005078:	50e5      	str	r5, [r4, r3]
1000507a:	f3bf 8f5f 	dmb	sy
1000507e:	4b0c      	ldr	r3, [pc, #48]	; (100050b0 <hardware_alarm_set_callback+0x7c>)
10005080:	2200      	movs	r2, #0
10005082:	601a      	str	r2, [r3, #0]
10005084:	f386 8810 	msr	PRIMASK, r6
10005088:	bd70      	pop	{r4, r5, r6, pc}
1000508a:	00a2      	lsls	r2, r4, #2
1000508c:	4b0b      	ldr	r3, [pc, #44]	; (100050bc <hardware_alarm_set_callback+0x88>)
1000508e:	2100      	movs	r1, #0
10005090:	50d1      	str	r1, [r2, r3]
10005092:	2201      	movs	r2, #1
10005094:	40a2      	lsls	r2, r4
10005096:	490a      	ldr	r1, [pc, #40]	; (100050c0 <hardware_alarm_set_callback+0x8c>)
10005098:	780b      	ldrb	r3, [r1, #0]
1000509a:	4393      	bics	r3, r2
1000509c:	700b      	strb	r3, [r1, #0]
1000509e:	4905      	ldr	r1, [pc, #20]	; (100050b4 <hardware_alarm_set_callback+0x80>)
100050a0:	0020      	movs	r0, r4
100050a2:	f7ff f82b 	bl	100040fc <irq_remove_handler>
100050a6:	2100      	movs	r1, #0
100050a8:	0020      	movs	r0, r4
100050aa:	f7fe febb 	bl	10003e24 <irq_set_enabled>
100050ae:	e7e4      	b.n	1000507a <hardware_alarm_set_callback+0x46>
100050b0:	d0000128 	.word	0xd0000128
100050b4:	10004f09 	.word	0x10004f09
100050b8:	40056038 	.word	0x40056038
100050bc:	20001318 	.word	0x20001318
100050c0:	20001b2a 	.word	0x20001b2a

100050c4 <hardware_alarm_set_target>:
100050c4:	b5f0      	push	{r4, r5, r6, r7, lr}
100050c6:	46de      	mov	lr, fp
100050c8:	b500      	push	{lr}
100050ca:	b084      	sub	sp, #16
100050cc:	0004      	movs	r4, r0
100050ce:	0015      	movs	r5, r2
100050d0:	9201      	str	r2, [sp, #4]
100050d2:	001e      	movs	r6, r3
100050d4:	9302      	str	r3, [sp, #8]
100050d6:	f7ff ff69 	bl	10004fac <time_us_64>
100050da:	9503      	str	r5, [sp, #12]
100050dc:	428e      	cmp	r6, r1
100050de:	d802      	bhi.n	100050e6 <hardware_alarm_set_target+0x22>
100050e0:	d14e      	bne.n	10005180 <hardware_alarm_set_target+0xbc>
100050e2:	4285      	cmp	r5, r0
100050e4:	d94c      	bls.n	10005180 <hardware_alarm_set_target+0xbc>
100050e6:	f3ef 8b10 	mrs	fp, PRIMASK
100050ea:	b672      	cpsid	i
100050ec:	4b27      	ldr	r3, [pc, #156]	; (1000518c <hardware_alarm_set_target+0xc8>)
100050ee:	681b      	ldr	r3, [r3, #0]
100050f0:	2b00      	cmp	r3, #0
100050f2:	d0fb      	beq.n	100050ec <hardware_alarm_set_target+0x28>
100050f4:	f3bf 8f5f 	dmb	sy
100050f8:	4a25      	ldr	r2, [pc, #148]	; (10005190 <hardware_alarm_set_target+0xcc>)
100050fa:	7817      	ldrb	r7, [r2, #0]
100050fc:	2501      	movs	r5, #1
100050fe:	40a5      	lsls	r5, r4
10005100:	b2eb      	uxtb	r3, r5
10005102:	433b      	orrs	r3, r7
10005104:	7013      	strb	r3, [r2, #0]
10005106:	4b23      	ldr	r3, [pc, #140]	; (10005194 <hardware_alarm_set_target+0xd0>)
10005108:	635d      	str	r5, [r3, #52]	; 0x34
1000510a:	1d22      	adds	r2, r4, #4
1000510c:	0092      	lsls	r2, r2, #2
1000510e:	9901      	ldr	r1, [sp, #4]
10005110:	50d1      	str	r1, [r2, r3]
10005112:	00a2      	lsls	r2, r4, #2
10005114:	4920      	ldr	r1, [pc, #128]	; (10005198 <hardware_alarm_set_target+0xd4>)
10005116:	9802      	ldr	r0, [sp, #8]
10005118:	5050      	str	r0, [r2, r1]
1000511a:	6a1b      	ldr	r3, [r3, #32]
1000511c:	422b      	tst	r3, r5
1000511e:	d112      	bne.n	10005146 <hardware_alarm_set_target+0x82>
10005120:	4b1c      	ldr	r3, [pc, #112]	; (10005194 <hardware_alarm_set_target+0xd0>)
10005122:	6c1b      	ldr	r3, [r3, #64]	; 0x40
10005124:	422b      	tst	r3, r5
10005126:	d008      	beq.n	1000513a <hardware_alarm_set_target+0x76>
10005128:	2000      	movs	r0, #0
1000512a:	f3bf 8f5f 	dmb	sy
1000512e:	4b17      	ldr	r3, [pc, #92]	; (1000518c <hardware_alarm_set_target+0xc8>)
10005130:	2200      	movs	r2, #0
10005132:	601a      	str	r2, [r3, #0]
10005134:	f38b 8810 	msr	PRIMASK, fp
10005138:	e023      	b.n	10005182 <hardware_alarm_set_target+0xbe>
1000513a:	4b18      	ldr	r3, [pc, #96]	; (1000519c <hardware_alarm_set_target+0xd8>)
1000513c:	4a18      	ldr	r2, [pc, #96]	; (100051a0 <hardware_alarm_set_target+0xdc>)
1000513e:	21c1      	movs	r1, #193	; 0xc1
10005140:	4818      	ldr	r0, [pc, #96]	; (100051a4 <hardware_alarm_set_target+0xe0>)
10005142:	f000 fab5 	bl	100056b0 <__assert_func>
10005146:	f7ff ff31 	bl	10004fac <time_us_64>
1000514a:	428e      	cmp	r6, r1
1000514c:	d814      	bhi.n	10005178 <hardware_alarm_set_target+0xb4>
1000514e:	d102      	bne.n	10005156 <hardware_alarm_set_target+0x92>
10005150:	9b03      	ldr	r3, [sp, #12]
10005152:	4283      	cmp	r3, r0
10005154:	d810      	bhi.n	10005178 <hardware_alarm_set_target+0xb4>
10005156:	4b0e      	ldr	r3, [pc, #56]	; (10005190 <hardware_alarm_set_target+0xcc>)
10005158:	781b      	ldrb	r3, [r3, #0]
1000515a:	42bb      	cmp	r3, r7
1000515c:	d00e      	beq.n	1000517c <hardware_alarm_set_target+0xb8>
1000515e:	4b0d      	ldr	r3, [pc, #52]	; (10005194 <hardware_alarm_set_target+0xd0>)
10005160:	621d      	str	r5, [r3, #32]
10005162:	635d      	str	r5, [r3, #52]	; 0x34
10005164:	201f      	movs	r0, #31
10005166:	4004      	ands	r4, r0
10005168:	2301      	movs	r3, #1
1000516a:	40a3      	lsls	r3, r4
1000516c:	4a0e      	ldr	r2, [pc, #56]	; (100051a8 <hardware_alarm_set_target+0xe4>)
1000516e:	6013      	str	r3, [r2, #0]
10005170:	4b07      	ldr	r3, [pc, #28]	; (10005190 <hardware_alarm_set_target+0xcc>)
10005172:	701f      	strb	r7, [r3, #0]
10005174:	381e      	subs	r0, #30
10005176:	e7d8      	b.n	1000512a <hardware_alarm_set_target+0x66>
10005178:	2000      	movs	r0, #0
1000517a:	e7d6      	b.n	1000512a <hardware_alarm_set_target+0x66>
1000517c:	2001      	movs	r0, #1
1000517e:	e7d4      	b.n	1000512a <hardware_alarm_set_target+0x66>
10005180:	2001      	movs	r0, #1
10005182:	b004      	add	sp, #16
10005184:	bc80      	pop	{r7}
10005186:	46bb      	mov	fp, r7
10005188:	bdf0      	pop	{r4, r5, r6, r7, pc}
1000518a:	46c0      	nop			; (mov r8, r8)
1000518c:	d0000128 	.word	0xd0000128
10005190:	20001b2a 	.word	0x20001b2a
10005194:	40054000 	.word	0x40054000
10005198:	20001afc 	.word	0x20001afc
1000519c:	1000cd9c 	.word	0x1000cd9c
100051a0:	1000ce0c 	.word	0x1000ce0c
100051a4:	1000cdc0 	.word	0x1000cdc0
100051a8:	e000e280 	.word	0xe000e280

100051ac <hardware_alarm_cancel>:
100051ac:	f3ef 8c10 	mrs	ip, PRIMASK
100051b0:	b672      	cpsid	i
100051b2:	4b0b      	ldr	r3, [pc, #44]	; (100051e0 <hardware_alarm_cancel+0x34>)
100051b4:	681b      	ldr	r3, [r3, #0]
100051b6:	2b00      	cmp	r3, #0
100051b8:	d0fb      	beq.n	100051b2 <hardware_alarm_cancel+0x6>
100051ba:	f3bf 8f5f 	dmb	sy
100051be:	2301      	movs	r3, #1
100051c0:	4083      	lsls	r3, r0
100051c2:	4a08      	ldr	r2, [pc, #32]	; (100051e4 <hardware_alarm_cancel+0x38>)
100051c4:	6213      	str	r3, [r2, #32]
100051c6:	4908      	ldr	r1, [pc, #32]	; (100051e8 <hardware_alarm_cancel+0x3c>)
100051c8:	780a      	ldrb	r2, [r1, #0]
100051ca:	439a      	bics	r2, r3
100051cc:	700a      	strb	r2, [r1, #0]
100051ce:	f3bf 8f5f 	dmb	sy
100051d2:	4b03      	ldr	r3, [pc, #12]	; (100051e0 <hardware_alarm_cancel+0x34>)
100051d4:	2200      	movs	r2, #0
100051d6:	601a      	str	r2, [r3, #0]
100051d8:	f38c 8810 	msr	PRIMASK, ip
100051dc:	4770      	bx	lr
100051de:	46c0      	nop			; (mov r8, r8)
100051e0:	d0000128 	.word	0xd0000128
100051e4:	40054000 	.word	0x40054000
100051e8:	20001b2a 	.word	0x20001b2a

100051ec <ph_add_child_node>:
100051ec:	b510      	push	{r4, lr}
100051ee:	2900      	cmp	r1, #0
100051f0:	d01e      	beq.n	10005230 <ph_add_child_node+0x44>
100051f2:	7b03      	ldrb	r3, [r0, #12]
100051f4:	4299      	cmp	r1, r3
100051f6:	d81b      	bhi.n	10005230 <ph_add_child_node+0x44>
100051f8:	004b      	lsls	r3, r1, #1
100051fa:	185b      	adds	r3, r3, r1
100051fc:	3b03      	subs	r3, #3
100051fe:	6804      	ldr	r4, [r0, #0]
10005200:	46a4      	mov	ip, r4
10005202:	4463      	add	r3, ip
10005204:	2900      	cmp	r1, #0
10005206:	d019      	beq.n	1000523c <ph_add_child_node+0x50>
10005208:	2a00      	cmp	r2, #0
1000520a:	d01d      	beq.n	10005248 <ph_add_child_node+0x5c>
1000520c:	4291      	cmp	r1, r2
1000520e:	d021      	beq.n	10005254 <ph_add_child_node+0x68>
10005210:	2a00      	cmp	r2, #0
10005212:	d025      	beq.n	10005260 <ph_add_child_node+0x74>
10005214:	7b04      	ldrb	r4, [r0, #12]
10005216:	42a2      	cmp	r2, r4
10005218:	d822      	bhi.n	10005260 <ph_add_child_node+0x74>
1000521a:	6804      	ldr	r4, [r0, #0]
1000521c:	0050      	lsls	r0, r2, #1
1000521e:	1880      	adds	r0, r0, r2
10005220:	3803      	subs	r0, #3
10005222:	1820      	adds	r0, r4, r0
10005224:	7081      	strb	r1, [r0, #2]
10005226:	7819      	ldrb	r1, [r3, #0]
10005228:	2900      	cmp	r1, #0
1000522a:	d11f      	bne.n	1000526c <ph_add_child_node+0x80>
1000522c:	701a      	strb	r2, [r3, #0]
1000522e:	bd10      	pop	{r4, pc}
10005230:	4b10      	ldr	r3, [pc, #64]	; (10005274 <ph_add_child_node+0x88>)
10005232:	4a11      	ldr	r2, [pc, #68]	; (10005278 <ph_add_child_node+0x8c>)
10005234:	2168      	movs	r1, #104	; 0x68
10005236:	4811      	ldr	r0, [pc, #68]	; (1000527c <ph_add_child_node+0x90>)
10005238:	f000 fa3a 	bl	100056b0 <__assert_func>
1000523c:	4b10      	ldr	r3, [pc, #64]	; (10005280 <ph_add_child_node+0x94>)
1000523e:	4a11      	ldr	r2, [pc, #68]	; (10005284 <ph_add_child_node+0x98>)
10005240:	316f      	adds	r1, #111	; 0x6f
10005242:	480e      	ldr	r0, [pc, #56]	; (1000527c <ph_add_child_node+0x90>)
10005244:	f000 fa34 	bl	100056b0 <__assert_func>
10005248:	4b0f      	ldr	r3, [pc, #60]	; (10005288 <ph_add_child_node+0x9c>)
1000524a:	4a0e      	ldr	r2, [pc, #56]	; (10005284 <ph_add_child_node+0x98>)
1000524c:	2170      	movs	r1, #112	; 0x70
1000524e:	480b      	ldr	r0, [pc, #44]	; (1000527c <ph_add_child_node+0x90>)
10005250:	f000 fa2e 	bl	100056b0 <__assert_func>
10005254:	4b0d      	ldr	r3, [pc, #52]	; (1000528c <ph_add_child_node+0xa0>)
10005256:	4a0b      	ldr	r2, [pc, #44]	; (10005284 <ph_add_child_node+0x98>)
10005258:	2171      	movs	r1, #113	; 0x71
1000525a:	4808      	ldr	r0, [pc, #32]	; (1000527c <ph_add_child_node+0x90>)
1000525c:	f000 fa28 	bl	100056b0 <__assert_func>
10005260:	4b04      	ldr	r3, [pc, #16]	; (10005274 <ph_add_child_node+0x88>)
10005262:	4a05      	ldr	r2, [pc, #20]	; (10005278 <ph_add_child_node+0x8c>)
10005264:	2168      	movs	r1, #104	; 0x68
10005266:	4805      	ldr	r0, [pc, #20]	; (1000527c <ph_add_child_node+0x90>)
10005268:	f000 fa22 	bl	100056b0 <__assert_func>
1000526c:	7041      	strb	r1, [r0, #1]
1000526e:	701a      	strb	r2, [r3, #0]
10005270:	e7dd      	b.n	1000522e <ph_add_child_node+0x42>
10005272:	46c0      	nop			; (mov r8, r8)
10005274:	1000ca40 	.word	0x1000ca40
10005278:	1000cf38 	.word	0x1000cf38
1000527c:	1000ca5c 	.word	0x1000ca5c
10005280:	1000cab0 	.word	0x1000cab0
10005284:	1000cf24 	.word	0x1000cf24
10005288:	1000cabc 	.word	0x1000cabc
1000528c:	1000cac8 	.word	0x1000cac8

10005290 <ph_merge_nodes>:
10005290:	b570      	push	{r4, r5, r6, lr}
10005292:	0006      	movs	r6, r0
10005294:	000d      	movs	r5, r1
10005296:	0014      	movs	r4, r2
10005298:	2900      	cmp	r1, #0
1000529a:	d014      	beq.n	100052c6 <ph_merge_nodes+0x36>
1000529c:	2a00      	cmp	r2, #0
1000529e:	d014      	beq.n	100052ca <ph_merge_nodes+0x3a>
100052a0:	6880      	ldr	r0, [r0, #8]
100052a2:	6873      	ldr	r3, [r6, #4]
100052a4:	4798      	blx	r3
100052a6:	2800      	cmp	r0, #0
100052a8:	d006      	beq.n	100052b8 <ph_merge_nodes+0x28>
100052aa:	0022      	movs	r2, r4
100052ac:	0029      	movs	r1, r5
100052ae:	0030      	movs	r0, r6
100052b0:	f7ff ff9c 	bl	100051ec <ph_add_child_node>
100052b4:	0028      	movs	r0, r5
100052b6:	e007      	b.n	100052c8 <ph_merge_nodes+0x38>
100052b8:	002a      	movs	r2, r5
100052ba:	0021      	movs	r1, r4
100052bc:	0030      	movs	r0, r6
100052be:	f7ff ff95 	bl	100051ec <ph_add_child_node>
100052c2:	0020      	movs	r0, r4
100052c4:	e000      	b.n	100052c8 <ph_merge_nodes+0x38>
100052c6:	0010      	movs	r0, r2
100052c8:	bd70      	pop	{r4, r5, r6, pc}
100052ca:	0008      	movs	r0, r1
100052cc:	e7fc      	b.n	100052c8 <ph_merge_nodes+0x38>
	...

100052d0 <ph_clear>:
100052d0:	b510      	push	{r4, lr}
100052d2:	2300      	movs	r3, #0
100052d4:	7343      	strb	r3, [r0, #13]
100052d6:	3301      	adds	r3, #1
100052d8:	7383      	strb	r3, [r0, #14]
100052da:	7b03      	ldrb	r3, [r0, #12]
100052dc:	73c3      	strb	r3, [r0, #15]
100052de:	2301      	movs	r3, #1
100052e0:	7b02      	ldrb	r2, [r0, #12]
100052e2:	429a      	cmp	r2, r3
100052e4:	d914      	bls.n	10005310 <ph_clear+0x40>
100052e6:	2b00      	cmp	r3, #0
100052e8:	d00c      	beq.n	10005304 <ph_clear+0x34>
100052ea:	7b02      	ldrb	r2, [r0, #12]
100052ec:	4293      	cmp	r3, r2
100052ee:	d809      	bhi.n	10005304 <ph_clear+0x34>
100052f0:	005a      	lsls	r2, r3, #1
100052f2:	18d2      	adds	r2, r2, r3
100052f4:	3a03      	subs	r2, #3
100052f6:	6801      	ldr	r1, [r0, #0]
100052f8:	468c      	mov	ip, r1
100052fa:	4462      	add	r2, ip
100052fc:	3301      	adds	r3, #1
100052fe:	b2db      	uxtb	r3, r3
10005300:	7053      	strb	r3, [r2, #1]
10005302:	e7ed      	b.n	100052e0 <ph_clear+0x10>
10005304:	4b0b      	ldr	r3, [pc, #44]	; (10005334 <ph_clear+0x64>)
10005306:	4a0c      	ldr	r2, [pc, #48]	; (10005338 <ph_clear+0x68>)
10005308:	2168      	movs	r1, #104	; 0x68
1000530a:	480c      	ldr	r0, [pc, #48]	; (1000533c <ph_clear+0x6c>)
1000530c:	f000 f9d0 	bl	100056b0 <__assert_func>
10005310:	2a00      	cmp	r2, #0
10005312:	d009      	beq.n	10005328 <ph_clear+0x58>
10005314:	4292      	cmp	r2, r2
10005316:	d807      	bhi.n	10005328 <ph_clear+0x58>
10005318:	6801      	ldr	r1, [r0, #0]
1000531a:	0053      	lsls	r3, r2, #1
1000531c:	189a      	adds	r2, r3, r2
1000531e:	3a03      	subs	r2, #3
10005320:	188a      	adds	r2, r1, r2
10005322:	2300      	movs	r3, #0
10005324:	7053      	strb	r3, [r2, #1]
10005326:	bd10      	pop	{r4, pc}
10005328:	4b02      	ldr	r3, [pc, #8]	; (10005334 <ph_clear+0x64>)
1000532a:	4a03      	ldr	r2, [pc, #12]	; (10005338 <ph_clear+0x68>)
1000532c:	2168      	movs	r1, #104	; 0x68
1000532e:	4803      	ldr	r0, [pc, #12]	; (1000533c <ph_clear+0x6c>)
10005330:	f000 f9be 	bl	100056b0 <__assert_func>
10005334:	1000ca40 	.word	0x1000ca40
10005338:	1000cf38 	.word	0x1000cf38
1000533c:	1000ca5c 	.word	0x1000ca5c

10005340 <ph_post_alloc_init>:
10005340:	b510      	push	{r4, lr}
10005342:	7301      	strb	r1, [r0, #12]
10005344:	6042      	str	r2, [r0, #4]
10005346:	6083      	str	r3, [r0, #8]
10005348:	f7ff ffc2 	bl	100052d0 <ph_clear>
1000534c:	bd10      	pop	{r4, pc}
	...

10005350 <ph_merge_two_pass>:
10005350:	b570      	push	{r4, r5, r6, lr}
10005352:	0004      	movs	r4, r0
10005354:	1e08      	subs	r0, r1, #0
10005356:	d100      	bne.n	1000535a <ph_merge_two_pass+0xa>
10005358:	bd70      	pop	{r4, r5, r6, pc}
1000535a:	2900      	cmp	r1, #0
1000535c:	d034      	beq.n	100053c8 <ph_merge_two_pass+0x78>
1000535e:	7b23      	ldrb	r3, [r4, #12]
10005360:	4299      	cmp	r1, r3
10005362:	d831      	bhi.n	100053c8 <ph_merge_two_pass+0x78>
10005364:	004b      	lsls	r3, r1, #1
10005366:	185b      	adds	r3, r3, r1
10005368:	3b03      	subs	r3, #3
1000536a:	6822      	ldr	r2, [r4, #0]
1000536c:	4694      	mov	ip, r2
1000536e:	4463      	add	r3, ip
10005370:	785a      	ldrb	r2, [r3, #1]
10005372:	2a00      	cmp	r2, #0
10005374:	d0f0      	beq.n	10005358 <ph_merge_two_pass+0x8>
10005376:	d02d      	beq.n	100053d4 <ph_merge_two_pass+0x84>
10005378:	7b23      	ldrb	r3, [r4, #12]
1000537a:	429a      	cmp	r2, r3
1000537c:	d82a      	bhi.n	100053d4 <ph_merge_two_pass+0x84>
1000537e:	0053      	lsls	r3, r2, #1
10005380:	189b      	adds	r3, r3, r2
10005382:	3b03      	subs	r3, #3
10005384:	6821      	ldr	r1, [r4, #0]
10005386:	468c      	mov	ip, r1
10005388:	4463      	add	r3, ip
1000538a:	785d      	ldrb	r5, [r3, #1]
1000538c:	2100      	movs	r1, #0
1000538e:	7059      	strb	r1, [r3, #1]
10005390:	2800      	cmp	r0, #0
10005392:	d025      	beq.n	100053e0 <ph_merge_two_pass+0x90>
10005394:	7b23      	ldrb	r3, [r4, #12]
10005396:	4298      	cmp	r0, r3
10005398:	d822      	bhi.n	100053e0 <ph_merge_two_pass+0x90>
1000539a:	0043      	lsls	r3, r0, #1
1000539c:	181b      	adds	r3, r3, r0
1000539e:	3b03      	subs	r3, #3
100053a0:	6821      	ldr	r1, [r4, #0]
100053a2:	468c      	mov	ip, r1
100053a4:	4463      	add	r3, ip
100053a6:	2100      	movs	r1, #0
100053a8:	7059      	strb	r1, [r3, #1]
100053aa:	0001      	movs	r1, r0
100053ac:	0020      	movs	r0, r4
100053ae:	f7ff ff6f 	bl	10005290 <ph_merge_nodes>
100053b2:	0006      	movs	r6, r0
100053b4:	0029      	movs	r1, r5
100053b6:	0020      	movs	r0, r4
100053b8:	f7ff ffca 	bl	10005350 <ph_merge_two_pass>
100053bc:	0002      	movs	r2, r0
100053be:	0031      	movs	r1, r6
100053c0:	0020      	movs	r0, r4
100053c2:	f7ff ff65 	bl	10005290 <ph_merge_nodes>
100053c6:	e7c7      	b.n	10005358 <ph_merge_two_pass+0x8>
100053c8:	4b08      	ldr	r3, [pc, #32]	; (100053ec <ph_merge_two_pass+0x9c>)
100053ca:	4a09      	ldr	r2, [pc, #36]	; (100053f0 <ph_merge_two_pass+0xa0>)
100053cc:	2168      	movs	r1, #104	; 0x68
100053ce:	4809      	ldr	r0, [pc, #36]	; (100053f4 <ph_merge_two_pass+0xa4>)
100053d0:	f000 f96e 	bl	100056b0 <__assert_func>
100053d4:	4b05      	ldr	r3, [pc, #20]	; (100053ec <ph_merge_two_pass+0x9c>)
100053d6:	4a06      	ldr	r2, [pc, #24]	; (100053f0 <ph_merge_two_pass+0xa0>)
100053d8:	2168      	movs	r1, #104	; 0x68
100053da:	4806      	ldr	r0, [pc, #24]	; (100053f4 <ph_merge_two_pass+0xa4>)
100053dc:	f000 f968 	bl	100056b0 <__assert_func>
100053e0:	4b02      	ldr	r3, [pc, #8]	; (100053ec <ph_merge_two_pass+0x9c>)
100053e2:	4a03      	ldr	r2, [pc, #12]	; (100053f0 <ph_merge_two_pass+0xa0>)
100053e4:	2168      	movs	r1, #104	; 0x68
100053e6:	4803      	ldr	r0, [pc, #12]	; (100053f4 <ph_merge_two_pass+0xa4>)
100053e8:	f000 f962 	bl	100056b0 <__assert_func>
100053ec:	1000ca40 	.word	0x1000ca40
100053f0:	1000cf38 	.word	0x1000cf38
100053f4:	1000ca5c 	.word	0x1000ca5c

100053f8 <ph_remove_any_head>:
100053f8:	b570      	push	{r4, r5, r6, lr}
100053fa:	0005      	movs	r5, r0
100053fc:	000c      	movs	r4, r1
100053fe:	0016      	movs	r6, r2
10005400:	2900      	cmp	r1, #0
10005402:	d028      	beq.n	10005456 <ph_remove_any_head+0x5e>
10005404:	d02d      	beq.n	10005462 <ph_remove_any_head+0x6a>
10005406:	7b03      	ldrb	r3, [r0, #12]
10005408:	4299      	cmp	r1, r3
1000540a:	d82a      	bhi.n	10005462 <ph_remove_any_head+0x6a>
1000540c:	004b      	lsls	r3, r1, #1
1000540e:	185b      	adds	r3, r3, r1
10005410:	3b03      	subs	r3, #3
10005412:	6802      	ldr	r2, [r0, #0]
10005414:	4694      	mov	ip, r2
10005416:	4463      	add	r3, ip
10005418:	785a      	ldrb	r2, [r3, #1]
1000541a:	2a00      	cmp	r2, #0
1000541c:	d127      	bne.n	1000546e <ph_remove_any_head+0x76>
1000541e:	789a      	ldrb	r2, [r3, #2]
10005420:	2a00      	cmp	r2, #0
10005422:	d12a      	bne.n	1000547a <ph_remove_any_head+0x82>
10005424:	7819      	ldrb	r1, [r3, #0]
10005426:	f7ff ff93 	bl	10005350 <ph_merge_two_pass>
1000542a:	0003      	movs	r3, r0
1000542c:	2e00      	cmp	r6, #0
1000542e:	d003      	beq.n	10005438 <ph_remove_any_head+0x40>
10005430:	7bea      	ldrb	r2, [r5, #15]
10005432:	2a00      	cmp	r2, #0
10005434:	d127      	bne.n	10005486 <ph_remove_any_head+0x8e>
10005436:	73ec      	strb	r4, [r5, #15]
10005438:	2b00      	cmp	r3, #0
1000543a:	d137      	bne.n	100054ac <ph_remove_any_head+0xb4>
1000543c:	2c00      	cmp	r4, #0
1000543e:	d049      	beq.n	100054d4 <ph_remove_any_head+0xdc>
10005440:	7b2b      	ldrb	r3, [r5, #12]
10005442:	429c      	cmp	r4, r3
10005444:	d846      	bhi.n	100054d4 <ph_remove_any_head+0xdc>
10005446:	682b      	ldr	r3, [r5, #0]
10005448:	0061      	lsls	r1, r4, #1
1000544a:	190c      	adds	r4, r1, r4
1000544c:	3c03      	subs	r4, #3
1000544e:	191c      	adds	r4, r3, r4
10005450:	2300      	movs	r3, #0
10005452:	7063      	strb	r3, [r4, #1]
10005454:	bd70      	pop	{r4, r5, r6, pc}
10005456:	4b22      	ldr	r3, [pc, #136]	; (100054e0 <ph_remove_any_head+0xe8>)
10005458:	4a22      	ldr	r2, [pc, #136]	; (100054e4 <ph_remove_any_head+0xec>)
1000545a:	2138      	movs	r1, #56	; 0x38
1000545c:	4822      	ldr	r0, [pc, #136]	; (100054e8 <ph_remove_any_head+0xf0>)
1000545e:	f000 f927 	bl	100056b0 <__assert_func>
10005462:	4b22      	ldr	r3, [pc, #136]	; (100054ec <ph_remove_any_head+0xf4>)
10005464:	4a22      	ldr	r2, [pc, #136]	; (100054f0 <ph_remove_any_head+0xf8>)
10005466:	2168      	movs	r1, #104	; 0x68
10005468:	4822      	ldr	r0, [pc, #136]	; (100054f4 <ph_remove_any_head+0xfc>)
1000546a:	f000 f921 	bl	100056b0 <__assert_func>
1000546e:	4b22      	ldr	r3, [pc, #136]	; (100054f8 <ph_remove_any_head+0x100>)
10005470:	4a1c      	ldr	r2, [pc, #112]	; (100054e4 <ph_remove_any_head+0xec>)
10005472:	213a      	movs	r1, #58	; 0x3a
10005474:	481c      	ldr	r0, [pc, #112]	; (100054e8 <ph_remove_any_head+0xf0>)
10005476:	f000 f91b 	bl	100056b0 <__assert_func>
1000547a:	4b20      	ldr	r3, [pc, #128]	; (100054fc <ph_remove_any_head+0x104>)
1000547c:	4a19      	ldr	r2, [pc, #100]	; (100054e4 <ph_remove_any_head+0xec>)
1000547e:	213b      	movs	r1, #59	; 0x3b
10005480:	4819      	ldr	r0, [pc, #100]	; (100054e8 <ph_remove_any_head+0xf0>)
10005482:	f000 f915 	bl	100056b0 <__assert_func>
10005486:	2a00      	cmp	r2, #0
10005488:	d00a      	beq.n	100054a0 <ph_remove_any_head+0xa8>
1000548a:	7b29      	ldrb	r1, [r5, #12]
1000548c:	428a      	cmp	r2, r1
1000548e:	d807      	bhi.n	100054a0 <ph_remove_any_head+0xa8>
10005490:	0051      	lsls	r1, r2, #1
10005492:	188a      	adds	r2, r1, r2
10005494:	3a03      	subs	r2, #3
10005496:	6829      	ldr	r1, [r5, #0]
10005498:	468c      	mov	ip, r1
1000549a:	4462      	add	r2, ip
1000549c:	7054      	strb	r4, [r2, #1]
1000549e:	e7ca      	b.n	10005436 <ph_remove_any_head+0x3e>
100054a0:	4b12      	ldr	r3, [pc, #72]	; (100054ec <ph_remove_any_head+0xf4>)
100054a2:	4a13      	ldr	r2, [pc, #76]	; (100054f0 <ph_remove_any_head+0xf8>)
100054a4:	2168      	movs	r1, #104	; 0x68
100054a6:	4813      	ldr	r0, [pc, #76]	; (100054f4 <ph_remove_any_head+0xfc>)
100054a8:	f000 f902 	bl	100056b0 <__assert_func>
100054ac:	2b00      	cmp	r3, #0
100054ae:	d00b      	beq.n	100054c8 <ph_remove_any_head+0xd0>
100054b0:	7b2a      	ldrb	r2, [r5, #12]
100054b2:	4293      	cmp	r3, r2
100054b4:	d808      	bhi.n	100054c8 <ph_remove_any_head+0xd0>
100054b6:	0043      	lsls	r3, r0, #1
100054b8:	181b      	adds	r3, r3, r0
100054ba:	3b03      	subs	r3, #3
100054bc:	682a      	ldr	r2, [r5, #0]
100054be:	4694      	mov	ip, r2
100054c0:	4463      	add	r3, ip
100054c2:	2200      	movs	r2, #0
100054c4:	709a      	strb	r2, [r3, #2]
100054c6:	e7b9      	b.n	1000543c <ph_remove_any_head+0x44>
100054c8:	4b08      	ldr	r3, [pc, #32]	; (100054ec <ph_remove_any_head+0xf4>)
100054ca:	4a09      	ldr	r2, [pc, #36]	; (100054f0 <ph_remove_any_head+0xf8>)
100054cc:	2168      	movs	r1, #104	; 0x68
100054ce:	4809      	ldr	r0, [pc, #36]	; (100054f4 <ph_remove_any_head+0xfc>)
100054d0:	f000 f8ee 	bl	100056b0 <__assert_func>
100054d4:	4b05      	ldr	r3, [pc, #20]	; (100054ec <ph_remove_any_head+0xf4>)
100054d6:	4a06      	ldr	r2, [pc, #24]	; (100054f0 <ph_remove_any_head+0xf8>)
100054d8:	2168      	movs	r1, #104	; 0x68
100054da:	4806      	ldr	r0, [pc, #24]	; (100054f4 <ph_remove_any_head+0xfc>)
100054dc:	f000 f8e8 	bl	100056b0 <__assert_func>
100054e0:	1000ce40 	.word	0x1000ce40
100054e4:	1000cf10 	.word	0x1000cf10
100054e8:	1000ce48 	.word	0x1000ce48
100054ec:	1000ca40 	.word	0x1000ca40
100054f0:	1000cf38 	.word	0x1000cf38
100054f4:	1000ca5c 	.word	0x1000ca5c
100054f8:	1000ce8c 	.word	0x1000ce8c
100054fc:	1000ceb4 	.word	0x1000ceb4

10005500 <ph_remove_head>:
10005500:	b570      	push	{r4, r5, r6, lr}
10005502:	0004      	movs	r4, r0
10005504:	000a      	movs	r2, r1
10005506:	7b45      	ldrb	r5, [r0, #13]
10005508:	0029      	movs	r1, r5
1000550a:	f7ff ff75 	bl	100053f8 <ph_remove_any_head>
1000550e:	7360      	strb	r0, [r4, #13]
10005510:	0028      	movs	r0, r5
10005512:	bd70      	pop	{r4, r5, r6, pc}

10005514 <ph_remove_and_free_node>:
10005514:	b570      	push	{r4, r5, r6, lr}
10005516:	0004      	movs	r4, r0
10005518:	2900      	cmp	r1, #0
1000551a:	d067      	beq.n	100055ec <ph_remove_and_free_node+0xd8>
1000551c:	7b43      	ldrb	r3, [r0, #13]
1000551e:	428b      	cmp	r3, r1
10005520:	d00e      	beq.n	10005540 <ph_remove_and_free_node+0x2c>
10005522:	2900      	cmp	r1, #0
10005524:	d011      	beq.n	1000554a <ph_remove_and_free_node+0x36>
10005526:	7b03      	ldrb	r3, [r0, #12]
10005528:	4299      	cmp	r1, r3
1000552a:	d80e      	bhi.n	1000554a <ph_remove_and_free_node+0x36>
1000552c:	004b      	lsls	r3, r1, #1
1000552e:	185b      	adds	r3, r3, r1
10005530:	3b03      	subs	r3, #3
10005532:	6802      	ldr	r2, [r0, #0]
10005534:	18d0      	adds	r0, r2, r3
10005536:	7883      	ldrb	r3, [r0, #2]
10005538:	2b00      	cmp	r3, #0
1000553a:	d10c      	bne.n	10005556 <ph_remove_and_free_node+0x42>
1000553c:	2000      	movs	r0, #0
1000553e:	e056      	b.n	100055ee <ph_remove_and_free_node+0xda>
10005540:	2101      	movs	r1, #1
10005542:	f7ff ffdd 	bl	10005500 <ph_remove_head>
10005546:	2001      	movs	r0, #1
10005548:	e051      	b.n	100055ee <ph_remove_and_free_node+0xda>
1000554a:	4b29      	ldr	r3, [pc, #164]	; (100055f0 <ph_remove_and_free_node+0xdc>)
1000554c:	4a29      	ldr	r2, [pc, #164]	; (100055f4 <ph_remove_and_free_node+0xe0>)
1000554e:	2168      	movs	r1, #104	; 0x68
10005550:	4829      	ldr	r0, [pc, #164]	; (100055f8 <ph_remove_and_free_node+0xe4>)
10005552:	f000 f8ad 	bl	100056b0 <__assert_func>
10005556:	2b00      	cmp	r3, #0
10005558:	d020      	beq.n	1000559c <ph_remove_and_free_node+0x88>
1000555a:	7b22      	ldrb	r2, [r4, #12]
1000555c:	4293      	cmp	r3, r2
1000555e:	d81d      	bhi.n	1000559c <ph_remove_and_free_node+0x88>
10005560:	005a      	lsls	r2, r3, #1
10005562:	18d3      	adds	r3, r2, r3
10005564:	3b03      	subs	r3, #3
10005566:	6822      	ldr	r2, [r4, #0]
10005568:	18d2      	adds	r2, r2, r3
1000556a:	6825      	ldr	r5, [r4, #0]
1000556c:	5ceb      	ldrb	r3, [r5, r3]
1000556e:	428b      	cmp	r3, r1
10005570:	d01a      	beq.n	100055a8 <ph_remove_and_free_node+0x94>
10005572:	2b00      	cmp	r3, #0
10005574:	d01b      	beq.n	100055ae <ph_remove_and_free_node+0x9a>
10005576:	7b22      	ldrb	r2, [r4, #12]
10005578:	4293      	cmp	r3, r2
1000557a:	d818      	bhi.n	100055ae <ph_remove_and_free_node+0x9a>
1000557c:	005a      	lsls	r2, r3, #1
1000557e:	18d3      	adds	r3, r2, r3
10005580:	3b03      	subs	r3, #3
10005582:	6822      	ldr	r2, [r4, #0]
10005584:	18d2      	adds	r2, r2, r3
10005586:	7853      	ldrb	r3, [r2, #1]
10005588:	428b      	cmp	r3, r1
1000558a:	d016      	beq.n	100055ba <ph_remove_and_free_node+0xa6>
1000558c:	2b00      	cmp	r3, #0
1000558e:	d1f0      	bne.n	10005572 <ph_remove_and_free_node+0x5e>
10005590:	4b1a      	ldr	r3, [pc, #104]	; (100055fc <ph_remove_and_free_node+0xe8>)
10005592:	4a1b      	ldr	r2, [pc, #108]	; (10005600 <ph_remove_and_free_node+0xec>)
10005594:	2167      	movs	r1, #103	; 0x67
10005596:	481b      	ldr	r0, [pc, #108]	; (10005604 <ph_remove_and_free_node+0xf0>)
10005598:	f000 f88a 	bl	100056b0 <__assert_func>
1000559c:	4b14      	ldr	r3, [pc, #80]	; (100055f0 <ph_remove_and_free_node+0xdc>)
1000559e:	4a15      	ldr	r2, [pc, #84]	; (100055f4 <ph_remove_and_free_node+0xe0>)
100055a0:	2168      	movs	r1, #104	; 0x68
100055a2:	4815      	ldr	r0, [pc, #84]	; (100055f8 <ph_remove_and_free_node+0xe4>)
100055a4:	f000 f884 	bl	100056b0 <__assert_func>
100055a8:	7843      	ldrb	r3, [r0, #1]
100055aa:	7013      	strb	r3, [r2, #0]
100055ac:	e007      	b.n	100055be <ph_remove_and_free_node+0xaa>
100055ae:	4b10      	ldr	r3, [pc, #64]	; (100055f0 <ph_remove_and_free_node+0xdc>)
100055b0:	4a10      	ldr	r2, [pc, #64]	; (100055f4 <ph_remove_and_free_node+0xe0>)
100055b2:	2168      	movs	r1, #104	; 0x68
100055b4:	4810      	ldr	r0, [pc, #64]	; (100055f8 <ph_remove_and_free_node+0xe4>)
100055b6:	f000 f87b 	bl	100056b0 <__assert_func>
100055ba:	7843      	ldrb	r3, [r0, #1]
100055bc:	7053      	strb	r3, [r2, #1]
100055be:	2300      	movs	r3, #0
100055c0:	7083      	strb	r3, [r0, #2]
100055c2:	7043      	strb	r3, [r0, #1]
100055c4:	2201      	movs	r2, #1
100055c6:	0020      	movs	r0, r4
100055c8:	f7ff ff16 	bl	100053f8 <ph_remove_any_head>
100055cc:	0002      	movs	r2, r0
100055ce:	7b61      	ldrb	r1, [r4, #13]
100055d0:	4281      	cmp	r1, r0
100055d2:	d005      	beq.n	100055e0 <ph_remove_and_free_node+0xcc>
100055d4:	0020      	movs	r0, r4
100055d6:	f7ff fe5b 	bl	10005290 <ph_merge_nodes>
100055da:	7360      	strb	r0, [r4, #13]
100055dc:	2001      	movs	r0, #1
100055de:	e006      	b.n	100055ee <ph_remove_and_free_node+0xda>
100055e0:	4b09      	ldr	r3, [pc, #36]	; (10005608 <ph_remove_and_free_node+0xf4>)
100055e2:	4a07      	ldr	r2, [pc, #28]	; (10005600 <ph_remove_and_free_node+0xec>)
100055e4:	216d      	movs	r1, #109	; 0x6d
100055e6:	4807      	ldr	r0, [pc, #28]	; (10005604 <ph_remove_and_free_node+0xf0>)
100055e8:	f000 f862 	bl	100056b0 <__assert_func>
100055ec:	2000      	movs	r0, #0
100055ee:	bd70      	pop	{r4, r5, r6, pc}
100055f0:	1000ca40 	.word	0x1000ca40
100055f4:	1000cf38 	.word	0x1000cf38
100055f8:	1000ca5c 	.word	0x1000ca5c
100055fc:	1000c8f8 	.word	0x1000c8f8
10005600:	1000cef8 	.word	0x1000cef8
10005604:	1000ce48 	.word	0x1000ce48
10005608:	1000ced8 	.word	0x1000ced8

1000560c <mutex_init>:
1000560c:	b510      	push	{r4, lr}
1000560e:	0004      	movs	r4, r0
10005610:	f7fe fb76 	bl	10003d00 <next_striped_spin_lock_num>
10005614:	0001      	movs	r1, r0
10005616:	0020      	movs	r0, r4
10005618:	f7fe fee2 	bl	100043e0 <lock_init>
1000561c:	23ff      	movs	r3, #255	; 0xff
1000561e:	7123      	strb	r3, [r4, #4]
10005620:	f3bf 8f5f 	dmb	sy
10005624:	bd10      	pop	{r4, pc}

10005626 <recursive_mutex_init>:
10005626:	b510      	push	{r4, lr}
10005628:	0004      	movs	r4, r0
1000562a:	f7fe fb69 	bl	10003d00 <next_striped_spin_lock_num>
1000562e:	0001      	movs	r1, r0
10005630:	0020      	movs	r0, r4
10005632:	f7fe fed5 	bl	100043e0 <lock_init>
10005636:	23ff      	movs	r3, #255	; 0xff
10005638:	7123      	strb	r3, [r4, #4]
1000563a:	2300      	movs	r3, #0
1000563c:	7163      	strb	r3, [r4, #5]
1000563e:	f3bf 8f5f 	dmb	sy
10005642:	bd10      	pop	{r4, pc}

10005644 <critical_section_init_with_lock_num>:
10005644:	4b03      	ldr	r3, [pc, #12]	; (10005654 <critical_section_init_with_lock_num+0x10>)
10005646:	469c      	mov	ip, r3
10005648:	4461      	add	r1, ip
1000564a:	0089      	lsls	r1, r1, #2
1000564c:	6001      	str	r1, [r0, #0]
1000564e:	f3bf 8f5f 	dmb	sy
10005652:	4770      	bx	lr
10005654:	34000040 	.word	0x34000040

10005658 <critical_section_init>:
10005658:	b510      	push	{r4, lr}
1000565a:	0004      	movs	r4, r0
1000565c:	2001      	movs	r0, #1
1000565e:	f7fe fb5d 	bl	10003d1c <spin_lock_claim_unused>
10005662:	0001      	movs	r1, r0
10005664:	0020      	movs	r0, r4
10005666:	f7ff ffed 	bl	10005644 <critical_section_init_with_lock_num>
1000566a:	bd10      	pop	{r4, pc}

1000566c <_exit>:
1000566c:	be00      	bkpt	0x0000
1000566e:	e7fd      	b.n	1000566c <_exit>

10005670 <_sbrk>:
10005670:	0003      	movs	r3, r0
10005672:	4a0a      	ldr	r2, [pc, #40]	; (1000569c <_sbrk+0x2c>)
10005674:	6812      	ldr	r2, [r2, #0]
10005676:	2a00      	cmp	r2, #0
10005678:	d008      	beq.n	1000568c <_sbrk+0x1c>
1000567a:	4a08      	ldr	r2, [pc, #32]	; (1000569c <_sbrk+0x2c>)
1000567c:	6810      	ldr	r0, [r2, #0]
1000567e:	18c3      	adds	r3, r0, r3
10005680:	4a07      	ldr	r2, [pc, #28]	; (100056a0 <_sbrk+0x30>)
10005682:	429a      	cmp	r2, r3
10005684:	d306      	bcc.n	10005694 <_sbrk+0x24>
10005686:	4a05      	ldr	r2, [pc, #20]	; (1000569c <_sbrk+0x2c>)
10005688:	6013      	str	r3, [r2, #0]
1000568a:	4770      	bx	lr
1000568c:	4a03      	ldr	r2, [pc, #12]	; (1000569c <_sbrk+0x2c>)
1000568e:	4905      	ldr	r1, [pc, #20]	; (100056a4 <_sbrk+0x34>)
10005690:	6011      	str	r1, [r2, #0]
10005692:	e7f2      	b.n	1000567a <_sbrk+0xa>
10005694:	2001      	movs	r0, #1
10005696:	4240      	negs	r0, r0
10005698:	e7f7      	b.n	1000568a <_sbrk+0x1a>
1000569a:	46c0      	nop			; (mov r8, r8)
1000569c:	200014c8 	.word	0x200014c8
100056a0:	20040000 	.word	0x20040000
100056a4:	20001b2c 	.word	0x20001b2c

100056a8 <exit>:
100056a8:	b510      	push	{r4, lr}
100056aa:	f7ff ffdf 	bl	1000566c <_exit>
	...

100056b0 <__assert_func>:
100056b0:	b510      	push	{r4, lr}
100056b2:	b082      	sub	sp, #8
100056b4:	000c      	movs	r4, r1
100056b6:	0019      	movs	r1, r3
100056b8:	2a00      	cmp	r2, #0
100056ba:	d00c      	beq.n	100056d6 <__assert_func+0x26>
100056bc:	4b08      	ldr	r3, [pc, #32]	; (100056e0 <__assert_func+0x30>)
100056be:	2a00      	cmp	r2, #0
100056c0:	d00b      	beq.n	100056da <__assert_func+0x2a>
100056c2:	9201      	str	r2, [sp, #4]
100056c4:	9300      	str	r3, [sp, #0]
100056c6:	0023      	movs	r3, r4
100056c8:	0002      	movs	r2, r0
100056ca:	4806      	ldr	r0, [pc, #24]	; (100056e4 <__assert_func+0x34>)
100056cc:	f002 fca8 	bl	10008020 <__wrap_printf>
100056d0:	2001      	movs	r0, #1
100056d2:	f7ff ffcb 	bl	1000566c <_exit>
100056d6:	4b04      	ldr	r3, [pc, #16]	; (100056e8 <__assert_func+0x38>)
100056d8:	e7f1      	b.n	100056be <__assert_func+0xe>
100056da:	4a03      	ldr	r2, [pc, #12]	; (100056e8 <__assert_func+0x38>)
100056dc:	e7f1      	b.n	100056c2 <__assert_func+0x12>
100056de:	46c0      	nop			; (mov r8, r8)
100056e0:	1000d018 	.word	0x1000d018
100056e4:	1000d028 	.word	0x1000d028
100056e8:	1000c5b4 	.word	0x1000c5b4

100056ec <runtime_init>:
100056ec:	b570      	push	{r4, r5, r6, lr}
100056ee:	4b2b      	ldr	r3, [pc, #172]	; (1000579c <runtime_init+0xb0>)
100056f0:	4a2b      	ldr	r2, [pc, #172]	; (100057a0 <runtime_init+0xb4>)
100056f2:	601a      	str	r2, [r3, #0]
100056f4:	4b2b      	ldr	r3, [pc, #172]	; (100057a4 <runtime_init+0xb8>)
100056f6:	4a2c      	ldr	r2, [pc, #176]	; (100057a8 <runtime_init+0xbc>)
100056f8:	601a      	str	r2, [r3, #0]
100056fa:	4b2c      	ldr	r3, [pc, #176]	; (100057ac <runtime_init+0xc0>)
100056fc:	689a      	ldr	r2, [r3, #8]
100056fe:	4b2a      	ldr	r3, [pc, #168]	; (100057a8 <runtime_init+0xbc>)
10005700:	4393      	bics	r3, r2
10005702:	d1fa      	bne.n	100056fa <runtime_init+0xe>
10005704:	4c2a      	ldr	r4, [pc, #168]	; (100057b0 <runtime_init+0xc4>)
10005706:	e001      	b.n	1000570c <runtime_init+0x20>
10005708:	cc08      	ldmia	r4!, {r3}
1000570a:	4798      	blx	r3
1000570c:	4b29      	ldr	r3, [pc, #164]	; (100057b4 <runtime_init+0xc8>)
1000570e:	429c      	cmp	r4, r3
10005710:	d3fa      	bcc.n	10005708 <runtime_init+0x1c>
10005712:	f000 f901 	bl	10005918 <clocks_init>
10005716:	4b23      	ldr	r3, [pc, #140]	; (100057a4 <runtime_init+0xb8>)
10005718:	4a27      	ldr	r2, [pc, #156]	; (100057b8 <runtime_init+0xcc>)
1000571a:	601a      	str	r2, [r3, #0]
1000571c:	4b23      	ldr	r3, [pc, #140]	; (100057ac <runtime_init+0xc0>)
1000571e:	689b      	ldr	r3, [r3, #8]
10005720:	43db      	mvns	r3, r3
10005722:	01db      	lsls	r3, r3, #7
10005724:	d1fa      	bne.n	1000571c <runtime_init+0x30>
10005726:	4b25      	ldr	r3, [pc, #148]	; (100057bc <runtime_init+0xd0>)
10005728:	2240      	movs	r2, #64	; 0x40
1000572a:	679a      	str	r2, [r3, #120]	; 0x78
1000572c:	675a      	str	r2, [r3, #116]	; 0x74
1000572e:	671a      	str	r2, [r3, #112]	; 0x70
10005730:	66da      	str	r2, [r3, #108]	; 0x6c
10005732:	4c23      	ldr	r4, [pc, #140]	; (100057c0 <runtime_init+0xd4>)
10005734:	e009      	b.n	1000574a <runtime_init+0x5e>
10005736:	4b23      	ldr	r3, [pc, #140]	; (100057c4 <runtime_init+0xd8>)
10005738:	4a23      	ldr	r2, [pc, #140]	; (100057c8 <runtime_init+0xdc>)
1000573a:	2183      	movs	r1, #131	; 0x83
1000573c:	4823      	ldr	r0, [pc, #140]	; (100057cc <runtime_init+0xe0>)
1000573e:	f7ff ffb7 	bl	100056b0 <__assert_func>
10005742:	0020      	movs	r0, r4
10005744:	f7ff ff62 	bl	1000560c <mutex_init>
10005748:	3408      	adds	r4, #8
1000574a:	4b21      	ldr	r3, [pc, #132]	; (100057d0 <runtime_init+0xe4>)
1000574c:	429c      	cmp	r4, r3
1000574e:	d209      	bcs.n	10005764 <runtime_init+0x78>
10005750:	6823      	ldr	r3, [r4, #0]
10005752:	2b00      	cmp	r3, #0
10005754:	d0f5      	beq.n	10005742 <runtime_init+0x56>
10005756:	2b01      	cmp	r3, #1
10005758:	d1ed      	bne.n	10005736 <runtime_init+0x4a>
1000575a:	0020      	movs	r0, r4
1000575c:	f7ff ff63 	bl	10005626 <recursive_mutex_init>
10005760:	3408      	adds	r4, #8
10005762:	e7f2      	b.n	1000574a <runtime_init+0x5e>
10005764:	4c1b      	ldr	r4, [pc, #108]	; (100057d4 <runtime_init+0xe8>)
10005766:	68a1      	ldr	r1, [r4, #8]
10005768:	4d1b      	ldr	r5, [pc, #108]	; (100057d8 <runtime_init+0xec>)
1000576a:	22c0      	movs	r2, #192	; 0xc0
1000576c:	0028      	movs	r0, r5
1000576e:	f002 faa1 	bl	10007cb4 <__wrap___aeabi_memcpy>
10005772:	60a5      	str	r5, [r4, #8]
10005774:	f7fa fd77 	bl	10000266 <__get_current_exception>
10005778:	2800      	cmp	r0, #0
1000577a:	d000      	beq.n	1000577e <runtime_init+0x92>
1000577c:	be00      	bkpt	0x0000
1000577e:	f7fe faaf 	bl	10003ce0 <spin_locks_reset>
10005782:	f7fe fe07 	bl	10004394 <irq_init_priorities>
10005786:	f7ff f969 	bl	10004a5c <alarm_pool_init_default>
1000578a:	4c14      	ldr	r4, [pc, #80]	; (100057dc <runtime_init+0xf0>)
1000578c:	e001      	b.n	10005792 <runtime_init+0xa6>
1000578e:	cc08      	ldmia	r4!, {r3}
10005790:	4798      	blx	r3
10005792:	4b13      	ldr	r3, [pc, #76]	; (100057e0 <runtime_init+0xf4>)
10005794:	429c      	cmp	r4, r3
10005796:	d3fa      	bcc.n	1000578e <runtime_init+0xa2>
10005798:	bd70      	pop	{r4, r5, r6, pc}
1000579a:	46c0      	nop			; (mov r8, r8)
1000579c:	4000e000 	.word	0x4000e000
100057a0:	fefbcdbf 	.word	0xfefbcdbf
100057a4:	4000f000 	.word	0x4000f000
100057a8:	003c7ffe 	.word	0x003c7ffe
100057ac:	4000c000 	.word	0x4000c000
100057b0:	20000d48 	.word	0x20000d48
100057b4:	20000d58 	.word	0x20000d58
100057b8:	01ffffff 	.word	0x01ffffff
100057bc:	4001f000 	.word	0x4001f000
100057c0:	20000d40 	.word	0x20000d40
100057c4:	1000d058 	.word	0x1000d058
100057c8:	1000d0d4 	.word	0x1000d0d4
100057cc:	1000d078 	.word	0x1000d078
100057d0:	20000d48 	.word	0x20000d48
100057d4:	e000ed00 	.word	0xe000ed00
100057d8:	20000000 	.word	0x20000000
100057dc:	20000d58 	.word	0x20000d58
100057e0:	20000d60 	.word	0x20000d60

100057e4 <panic>:
100057e4:	b40f      	push	{r0, r1, r2, r3}
100057e6:	b500      	push	{lr}
100057e8:	b083      	sub	sp, #12
100057ea:	4808      	ldr	r0, [pc, #32]	; (1000580c <panic+0x28>)
100057ec:	f002 fbe6 	bl	10007fbc <__wrap_puts>
100057f0:	9b04      	ldr	r3, [sp, #16]
100057f2:	2b00      	cmp	r3, #0
100057f4:	d007      	beq.n	10005806 <panic+0x22>
100057f6:	a905      	add	r1, sp, #20
100057f8:	9101      	str	r1, [sp, #4]
100057fa:	0018      	movs	r0, r3
100057fc:	f002 fbee 	bl	10007fdc <__wrap_vprintf>
10005800:	4803      	ldr	r0, [pc, #12]	; (10005810 <panic+0x2c>)
10005802:	f002 fbdb 	bl	10007fbc <__wrap_puts>
10005806:	2001      	movs	r0, #1
10005808:	f7ff ff30 	bl	1000566c <_exit>
1000580c:	1000d0c4 	.word	0x1000d0c4
10005810:	1000c26c 	.word	0x1000c26c

10005814 <clock_configure>:
10005814:	b5f8      	push	{r3, r4, r5, r6, r7, lr}
10005816:	46de      	mov	lr, fp
10005818:	4657      	mov	r7, sl
1000581a:	464e      	mov	r6, r9
1000581c:	4645      	mov	r5, r8
1000581e:	b5e0      	push	{r5, r6, r7, lr}
10005820:	0005      	movs	r5, r0
10005822:	000f      	movs	r7, r1
10005824:	4692      	mov	sl, r2
10005826:	9a0a      	ldr	r2, [sp, #40]	; 0x28
10005828:	4293      	cmp	r3, r2
1000582a:	d34e      	bcc.n	100058ca <clock_configure+0xb6>
1000582c:	0e1a      	lsrs	r2, r3, #24
1000582e:	4691      	mov	r9, r2
10005830:	021e      	lsls	r6, r3, #8
10005832:	9a0a      	ldr	r2, [sp, #40]	; 0x28
10005834:	2300      	movs	r3, #0
10005836:	0030      	movs	r0, r6
10005838:	4649      	mov	r1, r9
1000583a:	f001 fb51 	bl	10006ee0 <__wrap___aeabi_uldivmod>
1000583e:	4680      	mov	r8, r0
10005840:	006c      	lsls	r4, r5, #1
10005842:	1964      	adds	r4, r4, r5
10005844:	00a4      	lsls	r4, r4, #2
10005846:	4b2f      	ldr	r3, [pc, #188]	; (10005904 <clock_configure+0xf0>)
10005848:	469c      	mov	ip, r3
1000584a:	4464      	add	r4, ip
1000584c:	6863      	ldr	r3, [r4, #4]
1000584e:	4283      	cmp	r3, r0
10005850:	d200      	bcs.n	10005854 <clock_configure+0x40>
10005852:	6060      	str	r0, [r4, #4]
10005854:	1f2b      	subs	r3, r5, #4
10005856:	b2db      	uxtb	r3, r3
10005858:	469b      	mov	fp, r3
1000585a:	2b01      	cmp	r3, #1
1000585c:	d93b      	bls.n	100058d6 <clock_configure+0xc2>
1000585e:	23c0      	movs	r3, #192	; 0xc0
10005860:	019b      	lsls	r3, r3, #6
10005862:	4323      	orrs	r3, r4
10005864:	2280      	movs	r2, #128	; 0x80
10005866:	0112      	lsls	r2, r2, #4
10005868:	601a      	str	r2, [r3, #0]
1000586a:	00ab      	lsls	r3, r5, #2
1000586c:	4a26      	ldr	r2, [pc, #152]	; (10005908 <clock_configure+0xf4>)
1000586e:	5899      	ldr	r1, [r3, r2]
10005870:	2900      	cmp	r1, #0
10005872:	d005      	beq.n	10005880 <clock_configure+0x6c>
10005874:	6950      	ldr	r0, [r2, #20]
10005876:	f001 faf1 	bl	10006e5c <__wrap___aeabi_uidiv>
1000587a:	3001      	adds	r0, #1
1000587c:	3801      	subs	r0, #1
1000587e:	d1fd      	bne.n	1000587c <clock_configure+0x68>
10005880:	4653      	mov	r3, sl
10005882:	015a      	lsls	r2, r3, #5
10005884:	6823      	ldr	r3, [r4, #0]
10005886:	405a      	eors	r2, r3
10005888:	23e0      	movs	r3, #224	; 0xe0
1000588a:	401a      	ands	r2, r3
1000588c:	2380      	movs	r3, #128	; 0x80
1000588e:	015b      	lsls	r3, r3, #5
10005890:	4323      	orrs	r3, r4
10005892:	601a      	str	r2, [r3, #0]
10005894:	465a      	mov	r2, fp
10005896:	2a01      	cmp	r2, #1
10005898:	d928      	bls.n	100058ec <clock_configure+0xd8>
1000589a:	2380      	movs	r3, #128	; 0x80
1000589c:	019b      	lsls	r3, r3, #6
1000589e:	4323      	orrs	r3, r4
100058a0:	2280      	movs	r2, #128	; 0x80
100058a2:	0112      	lsls	r2, r2, #4
100058a4:	601a      	str	r2, [r3, #0]
100058a6:	4643      	mov	r3, r8
100058a8:	6063      	str	r3, [r4, #4]
100058aa:	4642      	mov	r2, r8
100058ac:	2300      	movs	r3, #0
100058ae:	0030      	movs	r0, r6
100058b0:	4649      	mov	r1, r9
100058b2:	f001 fb15 	bl	10006ee0 <__wrap___aeabi_uldivmod>
100058b6:	00ad      	lsls	r5, r5, #2
100058b8:	4b13      	ldr	r3, [pc, #76]	; (10005908 <clock_configure+0xf4>)
100058ba:	5158      	str	r0, [r3, r5]
100058bc:	2001      	movs	r0, #1
100058be:	bcf0      	pop	{r4, r5, r6, r7}
100058c0:	46bb      	mov	fp, r7
100058c2:	46b2      	mov	sl, r6
100058c4:	46a9      	mov	r9, r5
100058c6:	46a0      	mov	r8, r4
100058c8:	bdf8      	pop	{r3, r4, r5, r6, r7, pc}
100058ca:	4b10      	ldr	r3, [pc, #64]	; (1000590c <clock_configure+0xf8>)
100058cc:	4a10      	ldr	r2, [pc, #64]	; (10005910 <clock_configure+0xfc>)
100058ce:	212d      	movs	r1, #45	; 0x2d
100058d0:	4810      	ldr	r0, [pc, #64]	; (10005914 <clock_configure+0x100>)
100058d2:	f7ff feed 	bl	100056b0 <__assert_func>
100058d6:	2f01      	cmp	r7, #1
100058d8:	d1c1      	bne.n	1000585e <clock_configure+0x4a>
100058da:	23c0      	movs	r3, #192	; 0xc0
100058dc:	019b      	lsls	r3, r3, #6
100058de:	4323      	orrs	r3, r4
100058e0:	2203      	movs	r2, #3
100058e2:	601a      	str	r2, [r3, #0]
100058e4:	68a3      	ldr	r3, [r4, #8]
100058e6:	07db      	lsls	r3, r3, #31
100058e8:	d5fc      	bpl.n	100058e4 <clock_configure+0xd0>
100058ea:	e7c9      	b.n	10005880 <clock_configure+0x6c>
100058ec:	6821      	ldr	r1, [r4, #0]
100058ee:	4079      	eors	r1, r7
100058f0:	2203      	movs	r2, #3
100058f2:	400a      	ands	r2, r1
100058f4:	601a      	str	r2, [r3, #0]
100058f6:	68a2      	ldr	r2, [r4, #8]
100058f8:	2301      	movs	r3, #1
100058fa:	40bb      	lsls	r3, r7
100058fc:	4213      	tst	r3, r2
100058fe:	d0fa      	beq.n	100058f6 <clock_configure+0xe2>
10005900:	e7cb      	b.n	1000589a <clock_configure+0x86>
10005902:	46c0      	nop			; (mov r8, r8)
10005904:	40008000 	.word	0x40008000
10005908:	2000142c 	.word	0x2000142c
1000590c:	1000d0e4 	.word	0x1000d0e4
10005910:	1000d148 	.word	0x1000d148
10005914:	1000d0f8 	.word	0x1000d0f8

10005918 <clocks_init>:
10005918:	b530      	push	{r4, r5, lr}
1000591a:	b083      	sub	sp, #12
1000591c:	200c      	movs	r0, #12
1000591e:	f000 f91b 	bl	10005b58 <watchdog_start_tick>
10005922:	f7fe f9d3 	bl	10003ccc <running_on_fpga>
10005926:	2800      	cmp	r0, #0
10005928:	d00d      	beq.n	10005946 <clocks_init+0x2e>
1000592a:	2300      	movs	r3, #0
1000592c:	e004      	b.n	10005938 <clocks_init+0x20>
1000592e:	0099      	lsls	r1, r3, #2
10005930:	4a2d      	ldr	r2, [pc, #180]	; (100059e8 <clocks_init+0xd0>)
10005932:	482e      	ldr	r0, [pc, #184]	; (100059ec <clocks_init+0xd4>)
10005934:	5088      	str	r0, [r1, r2]
10005936:	3301      	adds	r3, #1
10005938:	2b09      	cmp	r3, #9
1000593a:	d9f8      	bls.n	1000592e <clocks_init+0x16>
1000593c:	4b2a      	ldr	r3, [pc, #168]	; (100059e8 <clocks_init+0xd0>)
1000593e:	4a2c      	ldr	r2, [pc, #176]	; (100059f0 <clocks_init+0xd8>)
10005940:	625a      	str	r2, [r3, #36]	; 0x24
10005942:	b003      	add	sp, #12
10005944:	bd30      	pop	{r4, r5, pc}
10005946:	4b2b      	ldr	r3, [pc, #172]	; (100059f4 <clocks_init+0xdc>)
10005948:	2200      	movs	r2, #0
1000594a:	679a      	str	r2, [r3, #120]	; 0x78
1000594c:	f000 f976 	bl	10005c3c <xosc_init>
10005950:	4b29      	ldr	r3, [pc, #164]	; (100059f8 <clocks_init+0xe0>)
10005952:	2201      	movs	r2, #1
10005954:	601a      	str	r2, [r3, #0]
10005956:	4b27      	ldr	r3, [pc, #156]	; (100059f4 <clocks_init+0xdc>)
10005958:	6c5b      	ldr	r3, [r3, #68]	; 0x44
1000595a:	2b01      	cmp	r3, #1
1000595c:	d1fb      	bne.n	10005956 <clocks_init+0x3e>
1000595e:	4b27      	ldr	r3, [pc, #156]	; (100059fc <clocks_init+0xe4>)
10005960:	2203      	movs	r2, #3
10005962:	601a      	str	r2, [r3, #0]
10005964:	4b23      	ldr	r3, [pc, #140]	; (100059f4 <clocks_init+0xdc>)
10005966:	6b9b      	ldr	r3, [r3, #56]	; 0x38
10005968:	2b01      	cmp	r3, #1
1000596a:	d1fb      	bne.n	10005964 <clocks_init+0x4c>
1000596c:	3301      	adds	r3, #1
1000596e:	9300      	str	r3, [sp, #0]
10005970:	3304      	adds	r3, #4
10005972:	4a23      	ldr	r2, [pc, #140]	; (10005a00 <clocks_init+0xe8>)
10005974:	2101      	movs	r1, #1
10005976:	4823      	ldr	r0, [pc, #140]	; (10005a04 <clocks_init+0xec>)
10005978:	f000 f84e 	bl	10005a18 <pll_init>
1000597c:	2305      	movs	r3, #5
1000597e:	9300      	str	r3, [sp, #0]
10005980:	4a21      	ldr	r2, [pc, #132]	; (10005a08 <clocks_init+0xf0>)
10005982:	2101      	movs	r1, #1
10005984:	4821      	ldr	r0, [pc, #132]	; (10005a0c <clocks_init+0xf4>)
10005986:	f000 f847 	bl	10005a18 <pll_init>
1000598a:	4b21      	ldr	r3, [pc, #132]	; (10005a10 <clocks_init+0xf8>)
1000598c:	9300      	str	r3, [sp, #0]
1000598e:	2200      	movs	r2, #0
10005990:	2102      	movs	r1, #2
10005992:	2004      	movs	r0, #4
10005994:	f7ff ff3e 	bl	10005814 <clock_configure>
10005998:	4d1e      	ldr	r5, [pc, #120]	; (10005a14 <clocks_init+0xfc>)
1000599a:	9500      	str	r5, [sp, #0]
1000599c:	002b      	movs	r3, r5
1000599e:	2200      	movs	r2, #0
100059a0:	2101      	movs	r1, #1
100059a2:	2005      	movs	r0, #5
100059a4:	f7ff ff36 	bl	10005814 <clock_configure>
100059a8:	4c10      	ldr	r4, [pc, #64]	; (100059ec <clocks_init+0xd4>)
100059aa:	9400      	str	r4, [sp, #0]
100059ac:	0023      	movs	r3, r4
100059ae:	2200      	movs	r2, #0
100059b0:	2100      	movs	r1, #0
100059b2:	2007      	movs	r0, #7
100059b4:	f7ff ff2e 	bl	10005814 <clock_configure>
100059b8:	9400      	str	r4, [sp, #0]
100059ba:	0023      	movs	r3, r4
100059bc:	2200      	movs	r2, #0
100059be:	2100      	movs	r1, #0
100059c0:	2008      	movs	r0, #8
100059c2:	f7ff ff27 	bl	10005814 <clock_configure>
100059c6:	4b0a      	ldr	r3, [pc, #40]	; (100059f0 <clocks_init+0xd8>)
100059c8:	9300      	str	r3, [sp, #0]
100059ca:	0023      	movs	r3, r4
100059cc:	2200      	movs	r2, #0
100059ce:	2100      	movs	r1, #0
100059d0:	2009      	movs	r0, #9
100059d2:	f7ff ff1f 	bl	10005814 <clock_configure>
100059d6:	9500      	str	r5, [sp, #0]
100059d8:	002b      	movs	r3, r5
100059da:	2200      	movs	r2, #0
100059dc:	2100      	movs	r1, #0
100059de:	2006      	movs	r0, #6
100059e0:	f7ff ff18 	bl	10005814 <clock_configure>
100059e4:	e7ad      	b.n	10005942 <clocks_init+0x2a>
100059e6:	46c0      	nop			; (mov r8, r8)
100059e8:	2000142c 	.word	0x2000142c
100059ec:	02dc6c00 	.word	0x02dc6c00
100059f0:	0000b71b 	.word	0x0000b71b
100059f4:	40008000 	.word	0x40008000
100059f8:	4000b03c 	.word	0x4000b03c
100059fc:	4000b030 	.word	0x4000b030
10005a00:	59682f00 	.word	0x59682f00
10005a04:	40028000 	.word	0x40028000
10005a08:	47868c00 	.word	0x47868c00
10005a0c:	4002c000 	.word	0x4002c000
10005a10:	00b71b00 	.word	0x00b71b00
10005a14:	07735940 	.word	0x07735940

10005a18 <pll_init>:
10005a18:	b5f0      	push	{r4, r5, r6, r7, lr}
10005a1a:	46c6      	mov	lr, r8
10005a1c:	b500      	push	{lr}
10005a1e:	0004      	movs	r4, r0
10005a20:	000f      	movs	r7, r1
10005a22:	4690      	mov	r8, r2
10005a24:	001d      	movs	r5, r3
10005a26:	200c      	movs	r0, #12
10005a28:	f001 fa18 	bl	10006e5c <__wrap___aeabi_uidiv>
10005a2c:	0006      	movs	r6, r0
10005a2e:	4a3d      	ldr	r2, [pc, #244]	; (10005b24 <pll_init+0x10c>)
10005a30:	4442      	add	r2, r8
10005a32:	4b3d      	ldr	r3, [pc, #244]	; (10005b28 <pll_init+0x110>)
10005a34:	429a      	cmp	r2, r3
10005a36:	d843      	bhi.n	10005ac0 <pll_init+0xa8>
10005a38:	0143      	lsls	r3, r0, #5
10005a3a:	1a1b      	subs	r3, r3, r0
10005a3c:	0199      	lsls	r1, r3, #6
10005a3e:	1ac9      	subs	r1, r1, r3
10005a40:	00c9      	lsls	r1, r1, #3
10005a42:	1809      	adds	r1, r1, r0
10005a44:	0189      	lsls	r1, r1, #6
10005a46:	4640      	mov	r0, r8
10005a48:	f001 fa08 	bl	10006e5c <__wrap___aeabi_uidiv>
10005a4c:	0002      	movs	r2, r0
10005a4e:	3a10      	subs	r2, #16
10005a50:	2398      	movs	r3, #152	; 0x98
10005a52:	005b      	lsls	r3, r3, #1
10005a54:	429a      	cmp	r2, r3
10005a56:	d839      	bhi.n	10005acc <pll_init+0xb4>
10005a58:	1e6b      	subs	r3, r5, #1
10005a5a:	2b06      	cmp	r3, #6
10005a5c:	d83c      	bhi.n	10005ad8 <pll_init+0xc0>
10005a5e:	9b06      	ldr	r3, [sp, #24]
10005a60:	3b01      	subs	r3, #1
10005a62:	2b06      	cmp	r3, #6
10005a64:	d838      	bhi.n	10005ad8 <pll_init+0xc0>
10005a66:	9b06      	ldr	r3, [sp, #24]
10005a68:	429d      	cmp	r5, r3
10005a6a:	d33b      	bcc.n	10005ae4 <pll_init+0xcc>
10005a6c:	4643      	mov	r3, r8
10005a6e:	091a      	lsrs	r2, r3, #4
10005a70:	42b2      	cmp	r2, r6
10005a72:	d33d      	bcc.n	10005af0 <pll_init+0xd8>
10005a74:	042d      	lsls	r5, r5, #16
10005a76:	9b06      	ldr	r3, [sp, #24]
10005a78:	031e      	lsls	r6, r3, #12
10005a7a:	4335      	orrs	r5, r6
10005a7c:	6823      	ldr	r3, [r4, #0]
10005a7e:	2b00      	cmp	r3, #0
10005a80:	db3c      	blt.n	10005afc <pll_init+0xe4>
10005a82:	4b2a      	ldr	r3, [pc, #168]	; (10005b2c <pll_init+0x114>)
10005a84:	429c      	cmp	r4, r3
10005a86:	d04a      	beq.n	10005b1e <pll_init+0x106>
10005a88:	2280      	movs	r2, #128	; 0x80
10005a8a:	0152      	lsls	r2, r2, #5
10005a8c:	4b28      	ldr	r3, [pc, #160]	; (10005b30 <pll_init+0x118>)
10005a8e:	601a      	str	r2, [r3, #0]
10005a90:	4b28      	ldr	r3, [pc, #160]	; (10005b34 <pll_init+0x11c>)
10005a92:	601a      	str	r2, [r3, #0]
10005a94:	4b28      	ldr	r3, [pc, #160]	; (10005b38 <pll_init+0x120>)
10005a96:	689b      	ldr	r3, [r3, #8]
10005a98:	0011      	movs	r1, r2
10005a9a:	4399      	bics	r1, r3
10005a9c:	d1fa      	bne.n	10005a94 <pll_init+0x7c>
10005a9e:	6027      	str	r7, [r4, #0]
10005aa0:	60a0      	str	r0, [r4, #8]
10005aa2:	1d23      	adds	r3, r4, #4
10005aa4:	22c0      	movs	r2, #192	; 0xc0
10005aa6:	0192      	lsls	r2, r2, #6
10005aa8:	431a      	orrs	r2, r3
10005aaa:	2321      	movs	r3, #33	; 0x21
10005aac:	6013      	str	r3, [r2, #0]
10005aae:	6823      	ldr	r3, [r4, #0]
10005ab0:	2b00      	cmp	r3, #0
10005ab2:	dafc      	bge.n	10005aae <pll_init+0x96>
10005ab4:	60e5      	str	r5, [r4, #12]
10005ab6:	2308      	movs	r3, #8
10005ab8:	6013      	str	r3, [r2, #0]
10005aba:	bc80      	pop	{r7}
10005abc:	46b8      	mov	r8, r7
10005abe:	bdf0      	pop	{r4, r5, r6, r7, pc}
10005ac0:	4b1e      	ldr	r3, [pc, #120]	; (10005b3c <pll_init+0x124>)
10005ac2:	4a1f      	ldr	r2, [pc, #124]	; (10005b40 <pll_init+0x128>)
10005ac4:	2111      	movs	r1, #17
10005ac6:	481f      	ldr	r0, [pc, #124]	; (10005b44 <pll_init+0x12c>)
10005ac8:	f7ff fdf2 	bl	100056b0 <__assert_func>
10005acc:	4b1e      	ldr	r3, [pc, #120]	; (10005b48 <pll_init+0x130>)
10005ace:	4a1c      	ldr	r2, [pc, #112]	; (10005b40 <pll_init+0x128>)
10005ad0:	2119      	movs	r1, #25
10005ad2:	481c      	ldr	r0, [pc, #112]	; (10005b44 <pll_init+0x12c>)
10005ad4:	f7ff fdec 	bl	100056b0 <__assert_func>
10005ad8:	4b1c      	ldr	r3, [pc, #112]	; (10005b4c <pll_init+0x134>)
10005ada:	4a19      	ldr	r2, [pc, #100]	; (10005b40 <pll_init+0x128>)
10005adc:	211c      	movs	r1, #28
10005ade:	4819      	ldr	r0, [pc, #100]	; (10005b44 <pll_init+0x12c>)
10005ae0:	f7ff fde6 	bl	100056b0 <__assert_func>
10005ae4:	4b1a      	ldr	r3, [pc, #104]	; (10005b50 <pll_init+0x138>)
10005ae6:	4a16      	ldr	r2, [pc, #88]	; (10005b40 <pll_init+0x128>)
10005ae8:	2122      	movs	r1, #34	; 0x22
10005aea:	4816      	ldr	r0, [pc, #88]	; (10005b44 <pll_init+0x12c>)
10005aec:	f7ff fde0 	bl	100056b0 <__assert_func>
10005af0:	4b18      	ldr	r3, [pc, #96]	; (10005b54 <pll_init+0x13c>)
10005af2:	4a13      	ldr	r2, [pc, #76]	; (10005b40 <pll_init+0x128>)
10005af4:	2125      	movs	r1, #37	; 0x25
10005af6:	4813      	ldr	r0, [pc, #76]	; (10005b44 <pll_init+0x12c>)
10005af8:	f7ff fdda 	bl	100056b0 <__assert_func>
10005afc:	6822      	ldr	r2, [r4, #0]
10005afe:	233f      	movs	r3, #63	; 0x3f
10005b00:	4013      	ands	r3, r2
10005b02:	42bb      	cmp	r3, r7
10005b04:	d1bd      	bne.n	10005a82 <pll_init+0x6a>
10005b06:	68a3      	ldr	r3, [r4, #8]
10005b08:	051b      	lsls	r3, r3, #20
10005b0a:	0d1b      	lsrs	r3, r3, #20
10005b0c:	4283      	cmp	r3, r0
10005b0e:	d1b8      	bne.n	10005a82 <pll_init+0x6a>
10005b10:	68e3      	ldr	r3, [r4, #12]
10005b12:	22ee      	movs	r2, #238	; 0xee
10005b14:	02d2      	lsls	r2, r2, #11
10005b16:	4013      	ands	r3, r2
10005b18:	42ab      	cmp	r3, r5
10005b1a:	d1b2      	bne.n	10005a82 <pll_init+0x6a>
10005b1c:	e7cd      	b.n	10005aba <pll_init+0xa2>
10005b1e:	2280      	movs	r2, #128	; 0x80
10005b20:	0192      	lsls	r2, r2, #6
10005b22:	e7b3      	b.n	10005a8c <pll_init+0x74>
10005b24:	d34be880 	.word	0xd34be880
10005b28:	32a9f880 	.word	0x32a9f880
10005b2c:	4002c000 	.word	0x4002c000
10005b30:	4000e000 	.word	0x4000e000
10005b34:	4000f000 	.word	0x4000f000
10005b38:	4000c000 	.word	0x4000c000
10005b3c:	1000d158 	.word	0x1000d158
10005b40:	1000d29c 	.word	0x1000d29c
10005b44:	1000d1b8 	.word	0x1000d1b8
10005b48:	1000d200 	.word	0x1000d200
10005b4c:	1000d21c 	.word	0x1000d21c
10005b50:	1000d268 	.word	0x1000d268
10005b54:	1000d280 	.word	0x1000d280

10005b58 <watchdog_start_tick>:
10005b58:	2380      	movs	r3, #128	; 0x80
10005b5a:	009b      	lsls	r3, r3, #2
10005b5c:	4303      	orrs	r3, r0
10005b5e:	4a01      	ldr	r2, [pc, #4]	; (10005b64 <watchdog_start_tick+0xc>)
10005b60:	62d3      	str	r3, [r2, #44]	; 0x2c
10005b62:	4770      	bx	lr
10005b64:	40058000 	.word	0x40058000

10005b68 <watchdog_update>:
10005b68:	4b02      	ldr	r3, [pc, #8]	; (10005b74 <watchdog_update+0xc>)
10005b6a:	681a      	ldr	r2, [r3, #0]
10005b6c:	4b02      	ldr	r3, [pc, #8]	; (10005b78 <watchdog_update+0x10>)
10005b6e:	605a      	str	r2, [r3, #4]
10005b70:	4770      	bx	lr
10005b72:	46c0      	nop			; (mov r8, r8)
10005b74:	200018cc 	.word	0x200018cc
10005b78:	40058000 	.word	0x40058000

10005b7c <_watchdog_enable>:
10005b7c:	b510      	push	{r4, lr}
10005b7e:	0002      	movs	r2, r0
10005b80:	4b16      	ldr	r3, [pc, #88]	; (10005bdc <_watchdog_enable+0x60>)
10005b82:	2080      	movs	r0, #128	; 0x80
10005b84:	05c0      	lsls	r0, r0, #23
10005b86:	6018      	str	r0, [r3, #0]
10005b88:	4b15      	ldr	r3, [pc, #84]	; (10005be0 <_watchdog_enable+0x64>)
10005b8a:	4816      	ldr	r0, [pc, #88]	; (10005be4 <_watchdog_enable+0x68>)
10005b8c:	6018      	str	r0, [r3, #0]
10005b8e:	2900      	cmp	r1, #0
10005b90:	d00a      	beq.n	10005ba8 <_watchdog_enable+0x2c>
10005b92:	4b15      	ldr	r3, [pc, #84]	; (10005be8 <_watchdog_enable+0x6c>)
10005b94:	21e0      	movs	r1, #224	; 0xe0
10005b96:	04c9      	lsls	r1, r1, #19
10005b98:	6019      	str	r1, [r3, #0]
10005b9a:	2a00      	cmp	r2, #0
10005b9c:	d109      	bne.n	10005bb2 <_watchdog_enable+0x36>
10005b9e:	4b12      	ldr	r3, [pc, #72]	; (10005be8 <_watchdog_enable+0x6c>)
10005ba0:	2280      	movs	r2, #128	; 0x80
10005ba2:	0612      	lsls	r2, r2, #24
10005ba4:	601a      	str	r2, [r3, #0]
10005ba6:	bd10      	pop	{r4, pc}
10005ba8:	4b0c      	ldr	r3, [pc, #48]	; (10005bdc <_watchdog_enable+0x60>)
10005baa:	21e0      	movs	r1, #224	; 0xe0
10005bac:	04c9      	lsls	r1, r1, #19
10005bae:	6019      	str	r1, [r3, #0]
10005bb0:	e7f3      	b.n	10005b9a <_watchdog_enable+0x1e>
10005bb2:	0153      	lsls	r3, r2, #5
10005bb4:	1a9b      	subs	r3, r3, r2
10005bb6:	0098      	lsls	r0, r3, #2
10005bb8:	1880      	adds	r0, r0, r2
10005bba:	0100      	lsls	r0, r0, #4
10005bbc:	4b0b      	ldr	r3, [pc, #44]	; (10005bec <_watchdog_enable+0x70>)
10005bbe:	6018      	str	r0, [r3, #0]
10005bc0:	2380      	movs	r3, #128	; 0x80
10005bc2:	045b      	lsls	r3, r3, #17
10005bc4:	4298      	cmp	r0, r3
10005bc6:	d302      	bcc.n	10005bce <_watchdog_enable+0x52>
10005bc8:	4b08      	ldr	r3, [pc, #32]	; (10005bec <_watchdog_enable+0x70>)
10005bca:	4a09      	ldr	r2, [pc, #36]	; (10005bf0 <_watchdog_enable+0x74>)
10005bcc:	601a      	str	r2, [r3, #0]
10005bce:	f7ff ffcb 	bl	10005b68 <watchdog_update>
10005bd2:	4b05      	ldr	r3, [pc, #20]	; (10005be8 <_watchdog_enable+0x6c>)
10005bd4:	2280      	movs	r2, #128	; 0x80
10005bd6:	05d2      	lsls	r2, r2, #23
10005bd8:	601a      	str	r2, [r3, #0]
10005bda:	e7e4      	b.n	10005ba6 <_watchdog_enable+0x2a>
10005bdc:	4005b000 	.word	0x4005b000
10005be0:	40012008 	.word	0x40012008
10005be4:	0001fffc 	.word	0x0001fffc
10005be8:	4005a000 	.word	0x4005a000
10005bec:	200018cc 	.word	0x200018cc
10005bf0:	00ffffff 	.word	0x00ffffff

10005bf4 <watchdog_reboot>:
10005bf4:	b510      	push	{r4, lr}
10005bf6:	0003      	movs	r3, r0
10005bf8:	0010      	movs	r0, r2
10005bfa:	4a0c      	ldr	r2, [pc, #48]	; (10005c2c <watchdog_reboot+0x38>)
10005bfc:	2480      	movs	r4, #128	; 0x80
10005bfe:	05e4      	lsls	r4, r4, #23
10005c00:	6014      	str	r4, [r2, #0]
10005c02:	2b00      	cmp	r3, #0
10005c04:	d00d      	beq.n	10005c22 <watchdog_reboot+0x2e>
10005c06:	2201      	movs	r2, #1
10005c08:	4313      	orrs	r3, r2
10005c0a:	4a09      	ldr	r2, [pc, #36]	; (10005c30 <watchdog_reboot+0x3c>)
10005c0c:	4c09      	ldr	r4, [pc, #36]	; (10005c34 <watchdog_reboot+0x40>)
10005c0e:	61d4      	str	r4, [r2, #28]
10005c10:	4c09      	ldr	r4, [pc, #36]	; (10005c38 <watchdog_reboot+0x44>)
10005c12:	405c      	eors	r4, r3
10005c14:	6214      	str	r4, [r2, #32]
10005c16:	6251      	str	r1, [r2, #36]	; 0x24
10005c18:	6293      	str	r3, [r2, #40]	; 0x28
10005c1a:	2100      	movs	r1, #0
10005c1c:	f7ff ffae 	bl	10005b7c <_watchdog_enable>
10005c20:	bd10      	pop	{r4, pc}
10005c22:	4b03      	ldr	r3, [pc, #12]	; (10005c30 <watchdog_reboot+0x3c>)
10005c24:	2200      	movs	r2, #0
10005c26:	61da      	str	r2, [r3, #28]
10005c28:	e7f7      	b.n	10005c1a <watchdog_reboot+0x26>
10005c2a:	46c0      	nop			; (mov r8, r8)
10005c2c:	4005b000 	.word	0x4005b000
10005c30:	40058000 	.word	0x40058000
10005c34:	b007c0d3 	.word	0xb007c0d3
10005c38:	4ff83f2d 	.word	0x4ff83f2d

10005c3c <xosc_init>:
10005c3c:	4b06      	ldr	r3, [pc, #24]	; (10005c58 <xosc_init+0x1c>)
10005c3e:	22aa      	movs	r2, #170	; 0xaa
10005c40:	0112      	lsls	r2, r2, #4
10005c42:	601a      	str	r2, [r3, #0]
10005c44:	222f      	movs	r2, #47	; 0x2f
10005c46:	60da      	str	r2, [r3, #12]
10005c48:	4b04      	ldr	r3, [pc, #16]	; (10005c5c <xosc_init+0x20>)
10005c4a:	4a05      	ldr	r2, [pc, #20]	; (10005c60 <xosc_init+0x24>)
10005c4c:	601a      	str	r2, [r3, #0]
10005c4e:	4b02      	ldr	r3, [pc, #8]	; (10005c58 <xosc_init+0x1c>)
10005c50:	685b      	ldr	r3, [r3, #4]
10005c52:	2b00      	cmp	r3, #0
10005c54:	dafb      	bge.n	10005c4e <xosc_init+0x12>
10005c56:	4770      	bx	lr
10005c58:	40024000 	.word	0x40024000
10005c5c:	40026000 	.word	0x40026000
10005c60:	00fab000 	.word	0x00fab000

10005c64 <_out_null>:
10005c64:	4770      	bx	lr

10005c66 <_out_fct>:
10005c66:	b510      	push	{r4, lr}
10005c68:	2800      	cmp	r0, #0
10005c6a:	d002      	beq.n	10005c72 <_out_fct+0xc>
10005c6c:	680b      	ldr	r3, [r1, #0]
10005c6e:	6849      	ldr	r1, [r1, #4]
10005c70:	4798      	blx	r3
10005c72:	bd10      	pop	{r4, pc}

10005c74 <_atoi>:
10005c74:	0001      	movs	r1, r0
10005c76:	2000      	movs	r0, #0
10005c78:	e007      	b.n	10005c8a <_atoi+0x16>
10005c7a:	0083      	lsls	r3, r0, #2
10005c7c:	181b      	adds	r3, r3, r0
10005c7e:	005b      	lsls	r3, r3, #1
10005c80:	1c50      	adds	r0, r2, #1
10005c82:	6008      	str	r0, [r1, #0]
10005c84:	7810      	ldrb	r0, [r2, #0]
10005c86:	18c0      	adds	r0, r0, r3
10005c88:	3830      	subs	r0, #48	; 0x30
10005c8a:	680a      	ldr	r2, [r1, #0]
10005c8c:	7813      	ldrb	r3, [r2, #0]
10005c8e:	3b30      	subs	r3, #48	; 0x30
10005c90:	b2db      	uxtb	r3, r3
10005c92:	2b09      	cmp	r3, #9
10005c94:	d9f1      	bls.n	10005c7a <_atoi+0x6>
10005c96:	4770      	bx	lr

10005c98 <_out_rev>:
10005c98:	b5f0      	push	{r4, r5, r6, r7, lr}
10005c9a:	46de      	mov	lr, fp
10005c9c:	4657      	mov	r7, sl
10005c9e:	464e      	mov	r6, r9
10005ca0:	4645      	mov	r5, r8
10005ca2:	b5e0      	push	{r5, r6, r7, lr}
10005ca4:	b083      	sub	sp, #12
10005ca6:	4693      	mov	fp, r2
10005ca8:	001f      	movs	r7, r3
10005caa:	9b0c      	ldr	r3, [sp, #48]	; 0x30
10005cac:	469a      	mov	sl, r3
10005cae:	9c0d      	ldr	r4, [sp, #52]	; 0x34
10005cb0:	9b0e      	ldr	r3, [sp, #56]	; 0x38
10005cb2:	4699      	mov	r9, r3
10005cb4:	9b0f      	ldr	r3, [sp, #60]	; 0x3c
10005cb6:	079b      	lsls	r3, r3, #30
10005cb8:	d003      	beq.n	10005cc2 <_out_rev+0x2a>
10005cba:	46b8      	mov	r8, r7
10005cbc:	000f      	movs	r7, r1
10005cbe:	0006      	movs	r6, r0
10005cc0:	e022      	b.n	10005d08 <_out_rev+0x70>
10005cc2:	9201      	str	r2, [sp, #4]
10005cc4:	46a3      	mov	fp, r4
10005cc6:	4688      	mov	r8, r1
10005cc8:	464e      	mov	r6, r9
10005cca:	46b9      	mov	r9, r7
10005ccc:	0007      	movs	r7, r0
10005cce:	42b4      	cmp	r4, r6
10005cd0:	d207      	bcs.n	10005ce2 <_out_rev+0x4a>
10005cd2:	1c55      	adds	r5, r2, #1
10005cd4:	464b      	mov	r3, r9
10005cd6:	4641      	mov	r1, r8
10005cd8:	2020      	movs	r0, #32
10005cda:	47b8      	blx	r7
10005cdc:	3401      	adds	r4, #1
10005cde:	002a      	movs	r2, r5
10005ce0:	e7f5      	b.n	10005cce <_out_rev+0x36>
10005ce2:	003d      	movs	r5, r7
10005ce4:	464f      	mov	r7, r9
10005ce6:	465c      	mov	r4, fp
10005ce8:	9b01      	ldr	r3, [sp, #4]
10005cea:	469b      	mov	fp, r3
10005cec:	46b1      	mov	r9, r6
10005cee:	4646      	mov	r6, r8
10005cf0:	46b8      	mov	r8, r7
10005cf2:	0037      	movs	r7, r6
10005cf4:	002e      	movs	r6, r5
10005cf6:	e007      	b.n	10005d08 <_out_rev+0x70>
10005cf8:	3c01      	subs	r4, #1
10005cfa:	1c55      	adds	r5, r2, #1
10005cfc:	4653      	mov	r3, sl
10005cfe:	5d18      	ldrb	r0, [r3, r4]
10005d00:	4643      	mov	r3, r8
10005d02:	0039      	movs	r1, r7
10005d04:	47b0      	blx	r6
10005d06:	002a      	movs	r2, r5
10005d08:	2c00      	cmp	r4, #0
10005d0a:	d1f5      	bne.n	10005cf8 <_out_rev+0x60>
10005d0c:	0035      	movs	r5, r6
10005d0e:	003e      	movs	r6, r7
10005d10:	4647      	mov	r7, r8
10005d12:	9b0f      	ldr	r3, [sp, #60]	; 0x3c
10005d14:	079b      	lsls	r3, r3, #30
10005d16:	d407      	bmi.n	10005d28 <_out_rev+0x90>
10005d18:	0010      	movs	r0, r2
10005d1a:	b003      	add	sp, #12
10005d1c:	bcf0      	pop	{r4, r5, r6, r7}
10005d1e:	46bb      	mov	fp, r7
10005d20:	46b2      	mov	sl, r6
10005d22:	46a9      	mov	r9, r5
10005d24:	46a0      	mov	r8, r4
10005d26:	bdf0      	pop	{r4, r5, r6, r7, pc}
10005d28:	46b0      	mov	r8, r6
10005d2a:	464e      	mov	r6, r9
10005d2c:	46b9      	mov	r9, r7
10005d2e:	002f      	movs	r7, r5
10005d30:	465d      	mov	r5, fp
10005d32:	1b53      	subs	r3, r2, r5
10005d34:	42b3      	cmp	r3, r6
10005d36:	d2ef      	bcs.n	10005d18 <_out_rev+0x80>
10005d38:	1c54      	adds	r4, r2, #1
10005d3a:	464b      	mov	r3, r9
10005d3c:	4641      	mov	r1, r8
10005d3e:	2020      	movs	r0, #32
10005d40:	47b8      	blx	r7
10005d42:	0022      	movs	r2, r4
10005d44:	e7f5      	b.n	10005d32 <_out_rev+0x9a>

10005d46 <_ntoa_format>:
10005d46:	b5f0      	push	{r4, r5, r6, r7, lr}
10005d48:	46ce      	mov	lr, r9
10005d4a:	4647      	mov	r7, r8
10005d4c:	b580      	push	{r7, lr}
10005d4e:	b085      	sub	sp, #20
10005d50:	4694      	mov	ip, r2
10005d52:	4698      	mov	r8, r3
10005d54:	9d0c      	ldr	r5, [sp, #48]	; 0x30
10005d56:	9c0d      	ldr	r4, [sp, #52]	; 0x34
10005d58:	ab0e      	add	r3, sp, #56	; 0x38
10005d5a:	781b      	ldrb	r3, [r3, #0]
10005d5c:	4699      	mov	r9, r3
10005d5e:	9a10      	ldr	r2, [sp, #64]	; 0x40
10005d60:	9b11      	ldr	r3, [sp, #68]	; 0x44
10005d62:	9e12      	ldr	r6, [sp, #72]	; 0x48
10005d64:	07b7      	lsls	r7, r6, #30
10005d66:	d41c      	bmi.n	10005da2 <_ntoa_format+0x5c>
10005d68:	2b00      	cmp	r3, #0
10005d6a:	d00c      	beq.n	10005d86 <_ntoa_format+0x40>
10005d6c:	07f7      	lsls	r7, r6, #31
10005d6e:	d50a      	bpl.n	10005d86 <_ntoa_format+0x40>
10005d70:	464f      	mov	r7, r9
10005d72:	2f00      	cmp	r7, #0
10005d74:	d102      	bne.n	10005d7c <_ntoa_format+0x36>
10005d76:	370c      	adds	r7, #12
10005d78:	4237      	tst	r7, r6
10005d7a:	d004      	beq.n	10005d86 <_ntoa_format+0x40>
10005d7c:	3b01      	subs	r3, #1
10005d7e:	e002      	b.n	10005d86 <_ntoa_format+0x40>
10005d80:	2730      	movs	r7, #48	; 0x30
10005d82:	552f      	strb	r7, [r5, r4]
10005d84:	3401      	adds	r4, #1
10005d86:	4294      	cmp	r4, r2
10005d88:	d201      	bcs.n	10005d8e <_ntoa_format+0x48>
10005d8a:	2c1f      	cmp	r4, #31
10005d8c:	d9f8      	bls.n	10005d80 <_ntoa_format+0x3a>
10005d8e:	07f7      	lsls	r7, r6, #31
10005d90:	d507      	bpl.n	10005da2 <_ntoa_format+0x5c>
10005d92:	429c      	cmp	r4, r3
10005d94:	d205      	bcs.n	10005da2 <_ntoa_format+0x5c>
10005d96:	2c1f      	cmp	r4, #31
10005d98:	d803      	bhi.n	10005da2 <_ntoa_format+0x5c>
10005d9a:	2730      	movs	r7, #48	; 0x30
10005d9c:	552f      	strb	r7, [r5, r4]
10005d9e:	3401      	adds	r4, #1
10005da0:	e7f5      	b.n	10005d8e <_ntoa_format+0x48>
10005da2:	06f7      	lsls	r7, r6, #27
10005da4:	d515      	bpl.n	10005dd2 <_ntoa_format+0x8c>
10005da6:	0577      	lsls	r7, r6, #21
10005da8:	d405      	bmi.n	10005db6 <_ntoa_format+0x70>
10005daa:	2c00      	cmp	r4, #0
10005dac:	d003      	beq.n	10005db6 <_ntoa_format+0x70>
10005dae:	4294      	cmp	r4, r2
10005db0:	d024      	beq.n	10005dfc <_ntoa_format+0xb6>
10005db2:	429c      	cmp	r4, r3
10005db4:	d022      	beq.n	10005dfc <_ntoa_format+0xb6>
10005db6:	9a0f      	ldr	r2, [sp, #60]	; 0x3c
10005db8:	2a10      	cmp	r2, #16
10005dba:	d02b      	beq.n	10005e14 <_ntoa_format+0xce>
10005dbc:	9a0f      	ldr	r2, [sp, #60]	; 0x3c
10005dbe:	2a10      	cmp	r2, #16
10005dc0:	d030      	beq.n	10005e24 <_ntoa_format+0xde>
10005dc2:	9a0f      	ldr	r2, [sp, #60]	; 0x3c
10005dc4:	2a02      	cmp	r2, #2
10005dc6:	d035      	beq.n	10005e34 <_ntoa_format+0xee>
10005dc8:	2c1f      	cmp	r4, #31
10005dca:	d802      	bhi.n	10005dd2 <_ntoa_format+0x8c>
10005dcc:	2230      	movs	r2, #48	; 0x30
10005dce:	552a      	strb	r2, [r5, r4]
10005dd0:	3401      	adds	r4, #1
10005dd2:	2c1f      	cmp	r4, #31
10005dd4:	d805      	bhi.n	10005de2 <_ntoa_format+0x9c>
10005dd6:	464a      	mov	r2, r9
10005dd8:	2a00      	cmp	r2, #0
10005dda:	d031      	beq.n	10005e40 <_ntoa_format+0xfa>
10005ddc:	222d      	movs	r2, #45	; 0x2d
10005dde:	552a      	strb	r2, [r5, r4]
10005de0:	3401      	adds	r4, #1
10005de2:	9603      	str	r6, [sp, #12]
10005de4:	9302      	str	r3, [sp, #8]
10005de6:	9401      	str	r4, [sp, #4]
10005de8:	9500      	str	r5, [sp, #0]
10005dea:	4643      	mov	r3, r8
10005dec:	4662      	mov	r2, ip
10005dee:	f7ff ff53 	bl	10005c98 <_out_rev>
10005df2:	b005      	add	sp, #20
10005df4:	bcc0      	pop	{r6, r7}
10005df6:	46b9      	mov	r9, r7
10005df8:	46b0      	mov	r8, r6
10005dfa:	bdf0      	pop	{r4, r5, r6, r7, pc}
10005dfc:	1e62      	subs	r2, r4, #1
10005dfe:	2c01      	cmp	r4, #1
10005e00:	d006      	beq.n	10005e10 <_ntoa_format+0xca>
10005e02:	9f0f      	ldr	r7, [sp, #60]	; 0x3c
10005e04:	2f10      	cmp	r7, #16
10005e06:	d001      	beq.n	10005e0c <_ntoa_format+0xc6>
10005e08:	0014      	movs	r4, r2
10005e0a:	e7d4      	b.n	10005db6 <_ntoa_format+0x70>
10005e0c:	3c02      	subs	r4, #2
10005e0e:	e7d2      	b.n	10005db6 <_ntoa_format+0x70>
10005e10:	0014      	movs	r4, r2
10005e12:	e7d0      	b.n	10005db6 <_ntoa_format+0x70>
10005e14:	06b2      	lsls	r2, r6, #26
10005e16:	d4d1      	bmi.n	10005dbc <_ntoa_format+0x76>
10005e18:	2c1f      	cmp	r4, #31
10005e1a:	d8cf      	bhi.n	10005dbc <_ntoa_format+0x76>
10005e1c:	2278      	movs	r2, #120	; 0x78
10005e1e:	552a      	strb	r2, [r5, r4]
10005e20:	3401      	adds	r4, #1
10005e22:	e7d1      	b.n	10005dc8 <_ntoa_format+0x82>
10005e24:	06b2      	lsls	r2, r6, #26
10005e26:	d5cc      	bpl.n	10005dc2 <_ntoa_format+0x7c>
10005e28:	2c1f      	cmp	r4, #31
10005e2a:	d8ca      	bhi.n	10005dc2 <_ntoa_format+0x7c>
10005e2c:	2258      	movs	r2, #88	; 0x58
10005e2e:	552a      	strb	r2, [r5, r4]
10005e30:	3401      	adds	r4, #1
10005e32:	e7c9      	b.n	10005dc8 <_ntoa_format+0x82>
10005e34:	2c1f      	cmp	r4, #31
10005e36:	d8c7      	bhi.n	10005dc8 <_ntoa_format+0x82>
10005e38:	3260      	adds	r2, #96	; 0x60
10005e3a:	552a      	strb	r2, [r5, r4]
10005e3c:	3401      	adds	r4, #1
10005e3e:	e7c3      	b.n	10005dc8 <_ntoa_format+0x82>
10005e40:	0772      	lsls	r2, r6, #29
10005e42:	d503      	bpl.n	10005e4c <_ntoa_format+0x106>
10005e44:	222b      	movs	r2, #43	; 0x2b
10005e46:	552a      	strb	r2, [r5, r4]
10005e48:	3401      	adds	r4, #1
10005e4a:	e7ca      	b.n	10005de2 <_ntoa_format+0x9c>
10005e4c:	0732      	lsls	r2, r6, #28
10005e4e:	d5c8      	bpl.n	10005de2 <_ntoa_format+0x9c>
10005e50:	2220      	movs	r2, #32
10005e52:	552a      	strb	r2, [r5, r4]
10005e54:	3401      	adds	r4, #1
10005e56:	e7c4      	b.n	10005de2 <_ntoa_format+0x9c>

10005e58 <_ntoa_long>:
10005e58:	b5f0      	push	{r4, r5, r6, r7, lr}
10005e5a:	46de      	mov	lr, fp
10005e5c:	4657      	mov	r7, sl
10005e5e:	464e      	mov	r6, r9
10005e60:	4645      	mov	r5, r8
10005e62:	b5e0      	push	{r5, r6, r7, lr}
10005e64:	b093      	sub	sp, #76	; 0x4c
10005e66:	4681      	mov	r9, r0
10005e68:	468a      	mov	sl, r1
10005e6a:	9208      	str	r2, [sp, #32]
10005e6c:	9309      	str	r3, [sp, #36]	; 0x24
10005e6e:	ab1c      	add	r3, sp, #112	; 0x70
10005e70:	cb10      	ldmia	r3!, {r4}
10005e72:	781b      	ldrb	r3, [r3, #0]
10005e74:	469b      	mov	fp, r3
10005e76:	9d1e      	ldr	r5, [sp, #120]	; 0x78
10005e78:	9b21      	ldr	r3, [sp, #132]	; 0x84
10005e7a:	4698      	mov	r8, r3
10005e7c:	2c00      	cmp	r4, #0
10005e7e:	d103      	bne.n	10005e88 <_ntoa_long+0x30>
10005e80:	2310      	movs	r3, #16
10005e82:	4642      	mov	r2, r8
10005e84:	439a      	bics	r2, r3
10005e86:	4690      	mov	r8, r2
10005e88:	2380      	movs	r3, #128	; 0x80
10005e8a:	00db      	lsls	r3, r3, #3
10005e8c:	4646      	mov	r6, r8
10005e8e:	401e      	ands	r6, r3
10005e90:	4642      	mov	r2, r8
10005e92:	421a      	tst	r2, r3
10005e94:	d012      	beq.n	10005ebc <_ntoa_long+0x64>
10005e96:	2c00      	cmp	r4, #0
10005e98:	d022      	beq.n	10005ee0 <_ntoa_long+0x88>
10005e9a:	2600      	movs	r6, #0
10005e9c:	e00e      	b.n	10005ebc <_ntoa_long+0x64>
10005e9e:	3330      	adds	r3, #48	; 0x30
10005ea0:	b2d9      	uxtb	r1, r3
10005ea2:	1c77      	adds	r7, r6, #1
10005ea4:	ab0a      	add	r3, sp, #40	; 0x28
10005ea6:	5599      	strb	r1, [r3, r6]
10005ea8:	0029      	movs	r1, r5
10005eaa:	0020      	movs	r0, r4
10005eac:	f000 ffd6 	bl	10006e5c <__wrap___aeabi_uidiv>
10005eb0:	42ac      	cmp	r4, r5
10005eb2:	d316      	bcc.n	10005ee2 <_ntoa_long+0x8a>
10005eb4:	2f1f      	cmp	r7, #31
10005eb6:	d814      	bhi.n	10005ee2 <_ntoa_long+0x8a>
10005eb8:	003e      	movs	r6, r7
10005eba:	0004      	movs	r4, r0
10005ebc:	0029      	movs	r1, r5
10005ebe:	0020      	movs	r0, r4
10005ec0:	f000 ffcc 	bl	10006e5c <__wrap___aeabi_uidiv>
10005ec4:	b2cb      	uxtb	r3, r1
10005ec6:	2b09      	cmp	r3, #9
10005ec8:	d9e9      	bls.n	10005e9e <_ntoa_long+0x46>
10005eca:	4642      	mov	r2, r8
10005ecc:	0692      	lsls	r2, r2, #26
10005ece:	d505      	bpl.n	10005edc <_ntoa_long+0x84>
10005ed0:	2141      	movs	r1, #65	; 0x41
10005ed2:	18c9      	adds	r1, r1, r3
10005ed4:	b2c9      	uxtb	r1, r1
10005ed6:	390a      	subs	r1, #10
10005ed8:	b2c9      	uxtb	r1, r1
10005eda:	e7e2      	b.n	10005ea2 <_ntoa_long+0x4a>
10005edc:	2161      	movs	r1, #97	; 0x61
10005ede:	e7f8      	b.n	10005ed2 <_ntoa_long+0x7a>
10005ee0:	0027      	movs	r7, r4
10005ee2:	4643      	mov	r3, r8
10005ee4:	9306      	str	r3, [sp, #24]
10005ee6:	9b20      	ldr	r3, [sp, #128]	; 0x80
10005ee8:	9305      	str	r3, [sp, #20]
10005eea:	9b1f      	ldr	r3, [sp, #124]	; 0x7c
10005eec:	9304      	str	r3, [sp, #16]
10005eee:	9503      	str	r5, [sp, #12]
10005ef0:	465b      	mov	r3, fp
10005ef2:	9302      	str	r3, [sp, #8]
10005ef4:	9701      	str	r7, [sp, #4]
10005ef6:	ab0a      	add	r3, sp, #40	; 0x28
10005ef8:	9300      	str	r3, [sp, #0]
10005efa:	9b09      	ldr	r3, [sp, #36]	; 0x24
10005efc:	9a08      	ldr	r2, [sp, #32]
10005efe:	4651      	mov	r1, sl
10005f00:	4648      	mov	r0, r9
10005f02:	f7ff ff20 	bl	10005d46 <_ntoa_format>
10005f06:	b013      	add	sp, #76	; 0x4c
10005f08:	bcf0      	pop	{r4, r5, r6, r7}
10005f0a:	46bb      	mov	fp, r7
10005f0c:	46b2      	mov	sl, r6
10005f0e:	46a9      	mov	r9, r5
10005f10:	46a0      	mov	r8, r4
10005f12:	bdf0      	pop	{r4, r5, r6, r7, pc}

10005f14 <_ntoa_long_long>:
10005f14:	b5f0      	push	{r4, r5, r6, r7, lr}
10005f16:	46de      	mov	lr, fp
10005f18:	4657      	mov	r7, sl
10005f1a:	464e      	mov	r6, r9
10005f1c:	4645      	mov	r5, r8
10005f1e:	b5e0      	push	{r5, r6, r7, lr}
10005f20:	b095      	sub	sp, #84	; 0x54
10005f22:	9008      	str	r0, [sp, #32]
10005f24:	9109      	str	r1, [sp, #36]	; 0x24
10005f26:	920a      	str	r2, [sp, #40]	; 0x28
10005f28:	930b      	str	r3, [sp, #44]	; 0x2c
10005f2a:	9e1e      	ldr	r6, [sp, #120]	; 0x78
10005f2c:	9c1f      	ldr	r4, [sp, #124]	; 0x7c
10005f2e:	ab20      	add	r3, sp, #128	; 0x80
10005f30:	781b      	ldrb	r3, [r3, #0]
10005f32:	469b      	mov	fp, r3
10005f34:	9b22      	ldr	r3, [sp, #136]	; 0x88
10005f36:	4699      	mov	r9, r3
10005f38:	9d23      	ldr	r5, [sp, #140]	; 0x8c
10005f3a:	9b26      	ldr	r3, [sp, #152]	; 0x98
10005f3c:	469a      	mov	sl, r3
10005f3e:	0033      	movs	r3, r6
10005f40:	4323      	orrs	r3, r4
10005f42:	d103      	bne.n	10005f4c <_ntoa_long_long+0x38>
10005f44:	3310      	adds	r3, #16
10005f46:	4652      	mov	r2, sl
10005f48:	439a      	bics	r2, r3
10005f4a:	4692      	mov	sl, r2
10005f4c:	2380      	movs	r3, #128	; 0x80
10005f4e:	00db      	lsls	r3, r3, #3
10005f50:	4657      	mov	r7, sl
10005f52:	401f      	ands	r7, r3
10005f54:	4652      	mov	r2, sl
10005f56:	421a      	tst	r2, r3
10005f58:	d019      	beq.n	10005f8e <_ntoa_long_long+0x7a>
10005f5a:	0033      	movs	r3, r6
10005f5c:	4323      	orrs	r3, r4
10005f5e:	d02d      	beq.n	10005fbc <_ntoa_long_long+0xa8>
10005f60:	2700      	movs	r7, #0
10005f62:	e014      	b.n	10005f8e <_ntoa_long_long+0x7a>
10005f64:	3330      	adds	r3, #48	; 0x30
10005f66:	b2da      	uxtb	r2, r3
10005f68:	1c7b      	adds	r3, r7, #1
10005f6a:	4698      	mov	r8, r3
10005f6c:	ab0c      	add	r3, sp, #48	; 0x30
10005f6e:	55da      	strb	r2, [r3, r7]
10005f70:	464a      	mov	r2, r9
10005f72:	002b      	movs	r3, r5
10005f74:	0030      	movs	r0, r6
10005f76:	0021      	movs	r1, r4
10005f78:	f000 ffb2 	bl	10006ee0 <__wrap___aeabi_uldivmod>
10005f7c:	42a5      	cmp	r5, r4
10005f7e:	d81f      	bhi.n	10005fc0 <_ntoa_long_long+0xac>
10005f80:	d019      	beq.n	10005fb6 <_ntoa_long_long+0xa2>
10005f82:	4643      	mov	r3, r8
10005f84:	2b1f      	cmp	r3, #31
10005f86:	d81b      	bhi.n	10005fc0 <_ntoa_long_long+0xac>
10005f88:	4647      	mov	r7, r8
10005f8a:	0006      	movs	r6, r0
10005f8c:	000c      	movs	r4, r1
10005f8e:	464a      	mov	r2, r9
10005f90:	002b      	movs	r3, r5
10005f92:	0030      	movs	r0, r6
10005f94:	0021      	movs	r1, r4
10005f96:	f000 ffa3 	bl	10006ee0 <__wrap___aeabi_uldivmod>
10005f9a:	b2d3      	uxtb	r3, r2
10005f9c:	2b09      	cmp	r3, #9
10005f9e:	d9e1      	bls.n	10005f64 <_ntoa_long_long+0x50>
10005fa0:	4652      	mov	r2, sl
10005fa2:	0692      	lsls	r2, r2, #26
10005fa4:	d505      	bpl.n	10005fb2 <_ntoa_long_long+0x9e>
10005fa6:	2241      	movs	r2, #65	; 0x41
10005fa8:	18d2      	adds	r2, r2, r3
10005faa:	b2d2      	uxtb	r2, r2
10005fac:	3a0a      	subs	r2, #10
10005fae:	b2d2      	uxtb	r2, r2
10005fb0:	e7da      	b.n	10005f68 <_ntoa_long_long+0x54>
10005fb2:	2261      	movs	r2, #97	; 0x61
10005fb4:	e7f8      	b.n	10005fa8 <_ntoa_long_long+0x94>
10005fb6:	45b1      	cmp	r9, r6
10005fb8:	d9e3      	bls.n	10005f82 <_ntoa_long_long+0x6e>
10005fba:	e001      	b.n	10005fc0 <_ntoa_long_long+0xac>
10005fbc:	2300      	movs	r3, #0
10005fbe:	4698      	mov	r8, r3
10005fc0:	4653      	mov	r3, sl
10005fc2:	9306      	str	r3, [sp, #24]
10005fc4:	9b25      	ldr	r3, [sp, #148]	; 0x94
10005fc6:	9305      	str	r3, [sp, #20]
10005fc8:	9b24      	ldr	r3, [sp, #144]	; 0x90
10005fca:	9304      	str	r3, [sp, #16]
10005fcc:	464b      	mov	r3, r9
10005fce:	9303      	str	r3, [sp, #12]
10005fd0:	465b      	mov	r3, fp
10005fd2:	9302      	str	r3, [sp, #8]
10005fd4:	4643      	mov	r3, r8
10005fd6:	9301      	str	r3, [sp, #4]
10005fd8:	ab0c      	add	r3, sp, #48	; 0x30
10005fda:	9300      	str	r3, [sp, #0]
10005fdc:	9b0b      	ldr	r3, [sp, #44]	; 0x2c
10005fde:	9a0a      	ldr	r2, [sp, #40]	; 0x28
10005fe0:	9909      	ldr	r1, [sp, #36]	; 0x24
10005fe2:	9808      	ldr	r0, [sp, #32]
10005fe4:	f7ff feaf 	bl	10005d46 <_ntoa_format>
10005fe8:	b015      	add	sp, #84	; 0x54
10005fea:	bcf0      	pop	{r4, r5, r6, r7}
10005fec:	46bb      	mov	fp, r7
10005fee:	46b2      	mov	sl, r6
10005ff0:	46a9      	mov	r9, r5
10005ff2:	46a0      	mov	r8, r4
10005ff4:	bdf0      	pop	{r4, r5, r6, r7, pc}
	...

10005ff8 <_etoa>:
10005ff8:	b5f0      	push	{r4, r5, r6, r7, lr}
10005ffa:	46de      	mov	lr, fp
10005ffc:	4657      	mov	r7, sl
10005ffe:	464e      	mov	r6, r9
10006000:	4645      	mov	r5, r8
10006002:	b5e0      	push	{r5, r6, r7, lr}
10006004:	b091      	sub	sp, #68	; 0x44
10006006:	4683      	mov	fp, r0
10006008:	468a      	mov	sl, r1
1000600a:	920c      	str	r2, [sp, #48]	; 0x30
1000600c:	4698      	mov	r8, r3
1000600e:	9c1a      	ldr	r4, [sp, #104]	; 0x68
10006010:	9408      	str	r4, [sp, #32]
10006012:	9d1b      	ldr	r5, [sp, #108]	; 0x6c
10006014:	9509      	str	r5, [sp, #36]	; 0x24
10006016:	0022      	movs	r2, r4
10006018:	002b      	movs	r3, r5
1000601a:	0020      	movs	r0, r4
1000601c:	0029      	movs	r1, r5
1000601e:	f001 f9ee 	bl	100073fe <__wrap___aeabi_dcmpun>
10006022:	2800      	cmp	r0, #0
10006024:	d000      	beq.n	10006028 <_etoa+0x30>
10006026:	e0e5      	b.n	100061f4 <_etoa+0x1fc>
10006028:	2201      	movs	r2, #1
1000602a:	4252      	negs	r2, r2
1000602c:	4bd7      	ldr	r3, [pc, #860]	; (1000638c <_etoa+0x394>)
1000602e:	0020      	movs	r0, r4
10006030:	0029      	movs	r1, r5
10006032:	f001 f9df 	bl	100073f4 <__wrap___aeabi_dcmpgt>
10006036:	2800      	cmp	r0, #0
10006038:	d000      	beq.n	1000603c <_etoa+0x44>
1000603a:	e0db      	b.n	100061f4 <_etoa+0x1fc>
1000603c:	2201      	movs	r2, #1
1000603e:	4252      	negs	r2, r2
10006040:	4bd3      	ldr	r3, [pc, #844]	; (10006390 <_etoa+0x398>)
10006042:	0020      	movs	r0, r4
10006044:	0029      	movs	r1, r5
10006046:	f001 f9bf 	bl	100073c8 <__wrap___aeabi_dcmplt>
1000604a:	2800      	cmp	r0, #0
1000604c:	d000      	beq.n	10006050 <_etoa+0x58>
1000604e:	e0d1      	b.n	100061f4 <_etoa+0x1fc>
10006050:	2200      	movs	r2, #0
10006052:	2300      	movs	r3, #0
10006054:	9e08      	ldr	r6, [sp, #32]
10006056:	0030      	movs	r0, r6
10006058:	9d09      	ldr	r5, [sp, #36]	; 0x24
1000605a:	0029      	movs	r1, r5
1000605c:	f001 f9b4 	bl	100073c8 <__wrap___aeabi_dcmplt>
10006060:	2800      	cmp	r0, #0
10006062:	d000      	beq.n	10006066 <_etoa+0x6e>
10006064:	e0dd      	b.n	10006222 <_etoa+0x22a>
10006066:	9808      	ldr	r0, [sp, #32]
10006068:	9909      	ldr	r1, [sp, #36]	; 0x24
1000606a:	9006      	str	r0, [sp, #24]
1000606c:	9107      	str	r1, [sp, #28]
1000606e:	2380      	movs	r3, #128	; 0x80
10006070:	00db      	lsls	r3, r3, #3
10006072:	9a1e      	ldr	r2, [sp, #120]	; 0x78
10006074:	401a      	ands	r2, r3
10006076:	920d      	str	r2, [sp, #52]	; 0x34
10006078:	9a1e      	ldr	r2, [sp, #120]	; 0x78
1000607a:	421a      	tst	r2, r3
1000607c:	d101      	bne.n	10006082 <_etoa+0x8a>
1000607e:	2306      	movs	r3, #6
10006080:	931c      	str	r3, [sp, #112]	; 0x70
10006082:	9806      	ldr	r0, [sp, #24]
10006084:	9907      	ldr	r1, [sp, #28]
10006086:	0004      	movs	r4, r0
10006088:	000d      	movs	r5, r1
1000608a:	000a      	movs	r2, r1
1000608c:	0006      	movs	r6, r0
1000608e:	4302      	orrs	r2, r0
10006090:	d100      	bne.n	10006094 <_etoa+0x9c>
10006092:	e0d1      	b.n	10006238 <_etoa+0x240>
10006094:	0d08      	lsrs	r0, r1, #20
10006096:	0540      	lsls	r0, r0, #21
10006098:	0d40      	lsrs	r0, r0, #21
1000609a:	4cbe      	ldr	r4, [pc, #760]	; (10006394 <_etoa+0x39c>)
1000609c:	46a4      	mov	ip, r4
1000609e:	4460      	add	r0, ip
100060a0:	030a      	lsls	r2, r1, #12
100060a2:	0b12      	lsrs	r2, r2, #12
100060a4:	4bbc      	ldr	r3, [pc, #752]	; (10006398 <_etoa+0x3a0>)
100060a6:	4313      	orrs	r3, r2
100060a8:	001f      	movs	r7, r3
100060aa:	f001 f9bb 	bl	10007424 <__wrap___aeabi_i2d>
100060ae:	4abb      	ldr	r2, [pc, #748]	; (1000639c <_etoa+0x3a4>)
100060b0:	4bbb      	ldr	r3, [pc, #748]	; (100063a0 <_etoa+0x3a8>)
100060b2:	f001 f946 	bl	10007342 <__wrap___aeabi_dmul>
100060b6:	4abb      	ldr	r2, [pc, #748]	; (100063a4 <_etoa+0x3ac>)
100060b8:	4bbb      	ldr	r3, [pc, #748]	; (100063a8 <_etoa+0x3b0>)
100060ba:	f001 f91b 	bl	100072f4 <__wrap___aeabi_dadd>
100060be:	0004      	movs	r4, r0
100060c0:	000d      	movs	r5, r1
100060c2:	2200      	movs	r2, #0
100060c4:	4bb9      	ldr	r3, [pc, #740]	; (100063ac <_etoa+0x3b4>)
100060c6:	0030      	movs	r0, r6
100060c8:	0039      	movs	r1, r7
100060ca:	f001 f90a 	bl	100072e2 <__wrap___aeabi_dsub>
100060ce:	4ab8      	ldr	r2, [pc, #736]	; (100063b0 <_etoa+0x3b8>)
100060d0:	4bb8      	ldr	r3, [pc, #736]	; (100063b4 <_etoa+0x3bc>)
100060d2:	f001 f936 	bl	10007342 <__wrap___aeabi_dmul>
100060d6:	0002      	movs	r2, r0
100060d8:	000b      	movs	r3, r1
100060da:	0020      	movs	r0, r4
100060dc:	0029      	movs	r1, r5
100060de:	f001 f909 	bl	100072f4 <__wrap___aeabi_dadd>
100060e2:	f001 f9b7 	bl	10007454 <__wrap___aeabi_d2iz>
100060e6:	4681      	mov	r9, r0
100060e8:	f001 f99c 	bl	10007424 <__wrap___aeabi_i2d>
100060ec:	0004      	movs	r4, r0
100060ee:	000d      	movs	r5, r1
100060f0:	4ab1      	ldr	r2, [pc, #708]	; (100063b8 <_etoa+0x3c0>)
100060f2:	4bb2      	ldr	r3, [pc, #712]	; (100063bc <_etoa+0x3c4>)
100060f4:	f001 f925 	bl	10007342 <__wrap___aeabi_dmul>
100060f8:	2200      	movs	r2, #0
100060fa:	4bb1      	ldr	r3, [pc, #708]	; (100063c0 <_etoa+0x3c8>)
100060fc:	f001 f8fa 	bl	100072f4 <__wrap___aeabi_dadd>
10006100:	f001 f9a8 	bl	10007454 <__wrap___aeabi_d2iz>
10006104:	0006      	movs	r6, r0
10006106:	4aaf      	ldr	r2, [pc, #700]	; (100063c4 <_etoa+0x3cc>)
10006108:	4baf      	ldr	r3, [pc, #700]	; (100063c8 <_etoa+0x3d0>)
1000610a:	0020      	movs	r0, r4
1000610c:	0029      	movs	r1, r5
1000610e:	f001 f918 	bl	10007342 <__wrap___aeabi_dmul>
10006112:	0004      	movs	r4, r0
10006114:	000d      	movs	r5, r1
10006116:	0030      	movs	r0, r6
10006118:	f001 f984 	bl	10007424 <__wrap___aeabi_i2d>
1000611c:	4aab      	ldr	r2, [pc, #684]	; (100063cc <_etoa+0x3d4>)
1000611e:	4bac      	ldr	r3, [pc, #688]	; (100063d0 <_etoa+0x3d8>)
10006120:	f001 f90f 	bl	10007342 <__wrap___aeabi_dmul>
10006124:	0002      	movs	r2, r0
10006126:	000b      	movs	r3, r1
10006128:	0020      	movs	r0, r4
1000612a:	0029      	movs	r1, r5
1000612c:	f001 f8d9 	bl	100072e2 <__wrap___aeabi_dsub>
10006130:	0004      	movs	r4, r0
10006132:	000d      	movs	r5, r1
10006134:	0002      	movs	r2, r0
10006136:	000b      	movs	r3, r1
10006138:	f001 f903 	bl	10007342 <__wrap___aeabi_dmul>
1000613c:	900a      	str	r0, [sp, #40]	; 0x28
1000613e:	910b      	str	r1, [sp, #44]	; 0x2c
10006140:	4ba4      	ldr	r3, [pc, #656]	; (100063d4 <_etoa+0x3dc>)
10006142:	18f3      	adds	r3, r6, r3
10006144:	2600      	movs	r6, #0
10006146:	051f      	lsls	r7, r3, #20
10006148:	0022      	movs	r2, r4
1000614a:	002b      	movs	r3, r5
1000614c:	0020      	movs	r0, r4
1000614e:	0029      	movs	r1, r5
10006150:	f001 f8d0 	bl	100072f4 <__wrap___aeabi_dadd>
10006154:	900e      	str	r0, [sp, #56]	; 0x38
10006156:	910f      	str	r1, [sp, #60]	; 0x3c
10006158:	0022      	movs	r2, r4
1000615a:	002b      	movs	r3, r5
1000615c:	2000      	movs	r0, #0
1000615e:	2180      	movs	r1, #128	; 0x80
10006160:	05c9      	lsls	r1, r1, #23
10006162:	f001 f8be 	bl	100072e2 <__wrap___aeabi_dsub>
10006166:	0004      	movs	r4, r0
10006168:	000d      	movs	r5, r1
1000616a:	2200      	movs	r2, #0
1000616c:	4b9a      	ldr	r3, [pc, #616]	; (100063d8 <_etoa+0x3e0>)
1000616e:	980a      	ldr	r0, [sp, #40]	; 0x28
10006170:	990b      	ldr	r1, [sp, #44]	; 0x2c
10006172:	f001 f8c8 	bl	10007306 <__wrap___aeabi_ddiv>
10006176:	2200      	movs	r2, #0
10006178:	4b98      	ldr	r3, [pc, #608]	; (100063dc <_etoa+0x3e4>)
1000617a:	f001 f8bb 	bl	100072f4 <__wrap___aeabi_dadd>
1000617e:	0002      	movs	r2, r0
10006180:	000b      	movs	r3, r1
10006182:	980a      	ldr	r0, [sp, #40]	; 0x28
10006184:	990b      	ldr	r1, [sp, #44]	; 0x2c
10006186:	f001 f8be 	bl	10007306 <__wrap___aeabi_ddiv>
1000618a:	2200      	movs	r2, #0
1000618c:	4b94      	ldr	r3, [pc, #592]	; (100063e0 <_etoa+0x3e8>)
1000618e:	f001 f8b1 	bl	100072f4 <__wrap___aeabi_dadd>
10006192:	0002      	movs	r2, r0
10006194:	000b      	movs	r3, r1
10006196:	980a      	ldr	r0, [sp, #40]	; 0x28
10006198:	990b      	ldr	r1, [sp, #44]	; 0x2c
1000619a:	f001 f8b4 	bl	10007306 <__wrap___aeabi_ddiv>
1000619e:	0002      	movs	r2, r0
100061a0:	000b      	movs	r3, r1
100061a2:	0020      	movs	r0, r4
100061a4:	0029      	movs	r1, r5
100061a6:	f001 f8a5 	bl	100072f4 <__wrap___aeabi_dadd>
100061aa:	0002      	movs	r2, r0
100061ac:	000b      	movs	r3, r1
100061ae:	980e      	ldr	r0, [sp, #56]	; 0x38
100061b0:	990f      	ldr	r1, [sp, #60]	; 0x3c
100061b2:	f001 f8a8 	bl	10007306 <__wrap___aeabi_ddiv>
100061b6:	2200      	movs	r2, #0
100061b8:	4b77      	ldr	r3, [pc, #476]	; (10006398 <_etoa+0x3a0>)
100061ba:	f001 f89b 	bl	100072f4 <__wrap___aeabi_dadd>
100061be:	0032      	movs	r2, r6
100061c0:	003b      	movs	r3, r7
100061c2:	f001 f8be 	bl	10007342 <__wrap___aeabi_dmul>
100061c6:	0006      	movs	r6, r0
100061c8:	000f      	movs	r7, r1
100061ca:	0004      	movs	r4, r0
100061cc:	000d      	movs	r5, r1
100061ce:	9a06      	ldr	r2, [sp, #24]
100061d0:	9b07      	ldr	r3, [sp, #28]
100061d2:	f001 f90f 	bl	100073f4 <__wrap___aeabi_dcmpgt>
100061d6:	2800      	cmp	r0, #0
100061d8:	d030      	beq.n	1000623c <_etoa+0x244>
100061da:	2301      	movs	r3, #1
100061dc:	425b      	negs	r3, r3
100061de:	469c      	mov	ip, r3
100061e0:	44e1      	add	r9, ip
100061e2:	2200      	movs	r2, #0
100061e4:	4b7d      	ldr	r3, [pc, #500]	; (100063dc <_etoa+0x3e4>)
100061e6:	0030      	movs	r0, r6
100061e8:	0039      	movs	r1, r7
100061ea:	f001 f88c 	bl	10007306 <__wrap___aeabi_ddiv>
100061ee:	0004      	movs	r4, r0
100061f0:	000d      	movs	r5, r1
100061f2:	e023      	b.n	1000623c <_etoa+0x244>
100061f4:	9b1e      	ldr	r3, [sp, #120]	; 0x78
100061f6:	9304      	str	r3, [sp, #16]
100061f8:	9b1d      	ldr	r3, [sp, #116]	; 0x74
100061fa:	9303      	str	r3, [sp, #12]
100061fc:	9b1c      	ldr	r3, [sp, #112]	; 0x70
100061fe:	9302      	str	r3, [sp, #8]
10006200:	9a08      	ldr	r2, [sp, #32]
10006202:	9b09      	ldr	r3, [sp, #36]	; 0x24
10006204:	9200      	str	r2, [sp, #0]
10006206:	9301      	str	r3, [sp, #4]
10006208:	4643      	mov	r3, r8
1000620a:	9a0c      	ldr	r2, [sp, #48]	; 0x30
1000620c:	4651      	mov	r1, sl
1000620e:	4658      	mov	r0, fp
10006210:	f000 f8fc 	bl	1000640c <_ftoa>
10006214:	b011      	add	sp, #68	; 0x44
10006216:	bcf0      	pop	{r4, r5, r6, r7}
10006218:	46bb      	mov	fp, r7
1000621a:	46b2      	mov	sl, r6
1000621c:	46a9      	mov	r9, r5
1000621e:	46a0      	mov	r8, r4
10006220:	bdf0      	pop	{r4, r5, r6, r7, pc}
10006222:	2300      	movs	r3, #0
10006224:	2400      	movs	r4, #0
10006226:	9306      	str	r3, [sp, #24]
10006228:	9407      	str	r4, [sp, #28]
1000622a:	9606      	str	r6, [sp, #24]
1000622c:	2380      	movs	r3, #128	; 0x80
1000622e:	061b      	lsls	r3, r3, #24
10006230:	469c      	mov	ip, r3
10006232:	4465      	add	r5, ip
10006234:	9507      	str	r5, [sp, #28]
10006236:	e71a      	b.n	1000606e <_etoa+0x76>
10006238:	2300      	movs	r3, #0
1000623a:	4699      	mov	r9, r3
1000623c:	464b      	mov	r3, r9
1000623e:	3363      	adds	r3, #99	; 0x63
10006240:	2bc6      	cmp	r3, #198	; 0xc6
10006242:	d81e      	bhi.n	10006282 <_etoa+0x28a>
10006244:	2604      	movs	r6, #4
10006246:	9b1e      	ldr	r3, [sp, #120]	; 0x78
10006248:	051b      	lsls	r3, r3, #20
1000624a:	d526      	bpl.n	1000629a <_etoa+0x2a2>
1000624c:	002b      	movs	r3, r5
1000624e:	4323      	orrs	r3, r4
10006250:	d00f      	beq.n	10006272 <_etoa+0x27a>
10006252:	4a64      	ldr	r2, [pc, #400]	; (100063e4 <_etoa+0x3ec>)
10006254:	4b64      	ldr	r3, [pc, #400]	; (100063e8 <_etoa+0x3f0>)
10006256:	9806      	ldr	r0, [sp, #24]
10006258:	9907      	ldr	r1, [sp, #28]
1000625a:	f001 f8c3 	bl	100073e4 <__wrap___aeabi_dcmpge>
1000625e:	2800      	cmp	r0, #0
10006260:	d079      	beq.n	10006356 <_etoa+0x35e>
10006262:	2200      	movs	r2, #0
10006264:	4b61      	ldr	r3, [pc, #388]	; (100063ec <_etoa+0x3f4>)
10006266:	9806      	ldr	r0, [sp, #24]
10006268:	9907      	ldr	r1, [sp, #28]
1000626a:	f001 f8ad 	bl	100073c8 <__wrap___aeabi_dcmplt>
1000626e:	2800      	cmp	r0, #0
10006270:	d071      	beq.n	10006356 <_etoa+0x35e>
10006272:	9b1c      	ldr	r3, [sp, #112]	; 0x70
10006274:	454b      	cmp	r3, r9
10006276:	dd06      	ble.n	10006286 <_etoa+0x28e>
10006278:	464a      	mov	r2, r9
1000627a:	1a98      	subs	r0, r3, r2
1000627c:	1e43      	subs	r3, r0, #1
1000627e:	931c      	str	r3, [sp, #112]	; 0x70
10006280:	e003      	b.n	1000628a <_etoa+0x292>
10006282:	2605      	movs	r6, #5
10006284:	e7df      	b.n	10006246 <_etoa+0x24e>
10006286:	2300      	movs	r3, #0
10006288:	931c      	str	r3, [sp, #112]	; 0x70
1000628a:	2380      	movs	r3, #128	; 0x80
1000628c:	00db      	lsls	r3, r3, #3
1000628e:	9a1e      	ldr	r2, [sp, #120]	; 0x78
10006290:	431a      	orrs	r2, r3
10006292:	921e      	str	r2, [sp, #120]	; 0x78
10006294:	2600      	movs	r6, #0
10006296:	2300      	movs	r3, #0
10006298:	4699      	mov	r9, r3
1000629a:	9b1d      	ldr	r3, [sp, #116]	; 0x74
1000629c:	429e      	cmp	r6, r3
1000629e:	d264      	bcs.n	1000636a <_etoa+0x372>
100062a0:	1b9f      	subs	r7, r3, r6
100062a2:	2302      	movs	r3, #2
100062a4:	9a1e      	ldr	r2, [sp, #120]	; 0x78
100062a6:	401a      	ands	r2, r3
100062a8:	920a      	str	r2, [sp, #40]	; 0x28
100062aa:	9a1e      	ldr	r2, [sp, #120]	; 0x78
100062ac:	4213      	tst	r3, r2
100062ae:	d002      	beq.n	100062b6 <_etoa+0x2be>
100062b0:	2e00      	cmp	r6, #0
100062b2:	d000      	beq.n	100062b6 <_etoa+0x2be>
100062b4:	2700      	movs	r7, #0
100062b6:	464b      	mov	r3, r9
100062b8:	2b00      	cmp	r3, #0
100062ba:	d007      	beq.n	100062cc <_etoa+0x2d4>
100062bc:	0022      	movs	r2, r4
100062be:	002b      	movs	r3, r5
100062c0:	9806      	ldr	r0, [sp, #24]
100062c2:	9907      	ldr	r1, [sp, #28]
100062c4:	f001 f81f 	bl	10007306 <__wrap___aeabi_ddiv>
100062c8:	9006      	str	r0, [sp, #24]
100062ca:	9107      	str	r1, [sp, #28]
100062cc:	2200      	movs	r2, #0
100062ce:	2300      	movs	r3, #0
100062d0:	9808      	ldr	r0, [sp, #32]
100062d2:	9909      	ldr	r1, [sp, #36]	; 0x24
100062d4:	f001 f878 	bl	100073c8 <__wrap___aeabi_dcmplt>
100062d8:	2800      	cmp	r0, #0
100062da:	d148      	bne.n	1000636e <_etoa+0x376>
100062dc:	4b44      	ldr	r3, [pc, #272]	; (100063f0 <_etoa+0x3f8>)
100062de:	9a1e      	ldr	r2, [sp, #120]	; 0x78
100062e0:	4013      	ands	r3, r2
100062e2:	9304      	str	r3, [sp, #16]
100062e4:	9703      	str	r7, [sp, #12]
100062e6:	9b1c      	ldr	r3, [sp, #112]	; 0x70
100062e8:	9302      	str	r3, [sp, #8]
100062ea:	9b06      	ldr	r3, [sp, #24]
100062ec:	9c07      	ldr	r4, [sp, #28]
100062ee:	9300      	str	r3, [sp, #0]
100062f0:	9401      	str	r4, [sp, #4]
100062f2:	4643      	mov	r3, r8
100062f4:	9a0c      	ldr	r2, [sp, #48]	; 0x30
100062f6:	4651      	mov	r1, sl
100062f8:	4658      	mov	r0, fp
100062fa:	f000 f887 	bl	1000640c <_ftoa>
100062fe:	2e00      	cmp	r6, #0
10006300:	d100      	bne.n	10006304 <_etoa+0x30c>
10006302:	e787      	b.n	10006214 <_etoa+0x21c>
10006304:	9b1e      	ldr	r3, [sp, #120]	; 0x78
10006306:	069b      	lsls	r3, r3, #26
10006308:	d53d      	bpl.n	10006386 <_etoa+0x38e>
1000630a:	2545      	movs	r5, #69	; 0x45
1000630c:	1c44      	adds	r4, r0, #1
1000630e:	4643      	mov	r3, r8
10006310:	0002      	movs	r2, r0
10006312:	4651      	mov	r1, sl
10006314:	0028      	movs	r0, r5
10006316:	47d8      	blx	fp
10006318:	464b      	mov	r3, r9
1000631a:	17da      	asrs	r2, r3, #31
1000631c:	189b      	adds	r3, r3, r2
1000631e:	4053      	eors	r3, r2
10006320:	2205      	movs	r2, #5
10006322:	9205      	str	r2, [sp, #20]
10006324:	3e01      	subs	r6, #1
10006326:	9604      	str	r6, [sp, #16]
10006328:	2200      	movs	r2, #0
1000632a:	9203      	str	r2, [sp, #12]
1000632c:	320a      	adds	r2, #10
1000632e:	9202      	str	r2, [sp, #8]
10006330:	464a      	mov	r2, r9
10006332:	0fd0      	lsrs	r0, r2, #31
10006334:	9001      	str	r0, [sp, #4]
10006336:	9300      	str	r3, [sp, #0]
10006338:	4643      	mov	r3, r8
1000633a:	0022      	movs	r2, r4
1000633c:	4651      	mov	r1, sl
1000633e:	4658      	mov	r0, fp
10006340:	f7ff fd8a 	bl	10005e58 <_ntoa_long>
10006344:	9b0a      	ldr	r3, [sp, #40]	; 0x28
10006346:	2b00      	cmp	r3, #0
10006348:	d100      	bne.n	1000634c <_etoa+0x354>
1000634a:	e763      	b.n	10006214 <_etoa+0x21c>
1000634c:	0002      	movs	r2, r0
1000634e:	465f      	mov	r7, fp
10006350:	9e0c      	ldr	r6, [sp, #48]	; 0x30
10006352:	9d1d      	ldr	r5, [sp, #116]	; 0x74
10006354:	e054      	b.n	10006400 <_etoa+0x408>
10006356:	9b1c      	ldr	r3, [sp, #112]	; 0x70
10006358:	2b00      	cmp	r3, #0
1000635a:	d09e      	beq.n	1000629a <_etoa+0x2a2>
1000635c:	9b0d      	ldr	r3, [sp, #52]	; 0x34
1000635e:	2b00      	cmp	r3, #0
10006360:	d09b      	beq.n	1000629a <_etoa+0x2a2>
10006362:	9b1c      	ldr	r3, [sp, #112]	; 0x70
10006364:	3b01      	subs	r3, #1
10006366:	931c      	str	r3, [sp, #112]	; 0x70
10006368:	e797      	b.n	1000629a <_etoa+0x2a2>
1000636a:	2700      	movs	r7, #0
1000636c:	e799      	b.n	100062a2 <_etoa+0x2aa>
1000636e:	9c06      	ldr	r4, [sp, #24]
10006370:	9d07      	ldr	r5, [sp, #28]
10006372:	0022      	movs	r2, r4
10006374:	0029      	movs	r1, r5
10006376:	2080      	movs	r0, #128	; 0x80
10006378:	0600      	lsls	r0, r0, #24
1000637a:	4684      	mov	ip, r0
1000637c:	4461      	add	r1, ip
1000637e:	000b      	movs	r3, r1
10006380:	9206      	str	r2, [sp, #24]
10006382:	9307      	str	r3, [sp, #28]
10006384:	e7aa      	b.n	100062dc <_etoa+0x2e4>
10006386:	2565      	movs	r5, #101	; 0x65
10006388:	e7c0      	b.n	1000630c <_etoa+0x314>
1000638a:	46c0      	nop			; (mov r8, r8)
1000638c:	7fefffff 	.word	0x7fefffff
10006390:	ffefffff 	.word	0xffefffff
10006394:	fffffc01 	.word	0xfffffc01
10006398:	3ff00000 	.word	0x3ff00000
1000639c:	509f79fb 	.word	0x509f79fb
100063a0:	3fd34413 	.word	0x3fd34413
100063a4:	8b60c8b3 	.word	0x8b60c8b3
100063a8:	3fc68a28 	.word	0x3fc68a28
100063ac:	3ff80000 	.word	0x3ff80000
100063b0:	636f4361 	.word	0x636f4361
100063b4:	3fd287a7 	.word	0x3fd287a7
100063b8:	0979a371 	.word	0x0979a371
100063bc:	400a934f 	.word	0x400a934f
100063c0:	3fe00000 	.word	0x3fe00000
100063c4:	bbb55516 	.word	0xbbb55516
100063c8:	40026bb1 	.word	0x40026bb1
100063cc:	fefa39ef 	.word	0xfefa39ef
100063d0:	3fe62e42 	.word	0x3fe62e42
100063d4:	000003ff 	.word	0x000003ff
100063d8:	402c0000 	.word	0x402c0000
100063dc:	40240000 	.word	0x40240000
100063e0:	40180000 	.word	0x40180000
100063e4:	eb1c432d 	.word	0xeb1c432d
100063e8:	3f1a36e2 	.word	0x3f1a36e2
100063ec:	412e8480 	.word	0x412e8480
100063f0:	fffff7ff 	.word	0xfffff7ff
100063f4:	1c54      	adds	r4, r2, #1
100063f6:	4643      	mov	r3, r8
100063f8:	4651      	mov	r1, sl
100063fa:	2020      	movs	r0, #32
100063fc:	47b8      	blx	r7
100063fe:	0022      	movs	r2, r4
10006400:	1b93      	subs	r3, r2, r6
10006402:	42ab      	cmp	r3, r5
10006404:	d3f6      	bcc.n	100063f4 <_etoa+0x3fc>
10006406:	0010      	movs	r0, r2
10006408:	e704      	b.n	10006214 <_etoa+0x21c>
1000640a:	46c0      	nop			; (mov r8, r8)

1000640c <_ftoa>:
1000640c:	b5f0      	push	{r4, r5, r6, r7, lr}
1000640e:	46de      	mov	lr, fp
10006410:	4657      	mov	r7, sl
10006412:	464e      	mov	r6, r9
10006414:	4645      	mov	r5, r8
10006416:	b5e0      	push	{r5, r6, r7, lr}
10006418:	b095      	sub	sp, #84	; 0x54
1000641a:	9006      	str	r0, [sp, #24]
1000641c:	9107      	str	r1, [sp, #28]
1000641e:	4693      	mov	fp, r2
10006420:	4699      	mov	r9, r3
10006422:	9f20      	ldr	r7, [sp, #128]	; 0x80
10006424:	9a1e      	ldr	r2, [sp, #120]	; 0x78
10006426:	9b1f      	ldr	r3, [sp, #124]	; 0x7c
10006428:	0010      	movs	r0, r2
1000642a:	0019      	movs	r1, r3
1000642c:	f000 ffe7 	bl	100073fe <__wrap___aeabi_dcmpun>
10006430:	2800      	cmp	r0, #0
10006432:	d131      	bne.n	10006498 <_ftoa+0x8c>
10006434:	2201      	movs	r2, #1
10006436:	4252      	negs	r2, r2
10006438:	4bbf      	ldr	r3, [pc, #764]	; (10006738 <_ftoa+0x32c>)
1000643a:	981e      	ldr	r0, [sp, #120]	; 0x78
1000643c:	991f      	ldr	r1, [sp, #124]	; 0x7c
1000643e:	f000 ffc3 	bl	100073c8 <__wrap___aeabi_dcmplt>
10006442:	2800      	cmp	r0, #0
10006444:	d137      	bne.n	100064b6 <_ftoa+0xaa>
10006446:	2201      	movs	r2, #1
10006448:	4252      	negs	r2, r2
1000644a:	4bbc      	ldr	r3, [pc, #752]	; (1000673c <_ftoa+0x330>)
1000644c:	981e      	ldr	r0, [sp, #120]	; 0x78
1000644e:	991f      	ldr	r1, [sp, #124]	; 0x7c
10006450:	f000 ffd0 	bl	100073f4 <__wrap___aeabi_dcmpgt>
10006454:	2800      	cmp	r0, #0
10006456:	d13d      	bne.n	100064d4 <_ftoa+0xc8>
10006458:	2200      	movs	r2, #0
1000645a:	4bb9      	ldr	r3, [pc, #740]	; (10006740 <_ftoa+0x334>)
1000645c:	981e      	ldr	r0, [sp, #120]	; 0x78
1000645e:	991f      	ldr	r1, [sp, #124]	; 0x7c
10006460:	f000 ffc8 	bl	100073f4 <__wrap___aeabi_dcmpgt>
10006464:	2800      	cmp	r0, #0
10006466:	d150      	bne.n	1000650a <_ftoa+0xfe>
10006468:	2200      	movs	r2, #0
1000646a:	4bb6      	ldr	r3, [pc, #728]	; (10006744 <_ftoa+0x338>)
1000646c:	981e      	ldr	r0, [sp, #120]	; 0x78
1000646e:	991f      	ldr	r1, [sp, #124]	; 0x7c
10006470:	f000 ffaa 	bl	100073c8 <__wrap___aeabi_dcmplt>
10006474:	2800      	cmp	r0, #0
10006476:	d148      	bne.n	1000650a <_ftoa+0xfe>
10006478:	2200      	movs	r2, #0
1000647a:	2300      	movs	r3, #0
1000647c:	981e      	ldr	r0, [sp, #120]	; 0x78
1000647e:	991f      	ldr	r1, [sp, #124]	; 0x7c
10006480:	f000 ffa2 	bl	100073c8 <__wrap___aeabi_dcmplt>
10006484:	2800      	cmp	r0, #0
10006486:	d150      	bne.n	1000652a <_ftoa+0x11e>
10006488:	2300      	movs	r3, #0
1000648a:	4698      	mov	r8, r3
1000648c:	9b22      	ldr	r3, [sp, #136]	; 0x88
1000648e:	055b      	lsls	r3, r3, #21
10006490:	d400      	bmi.n	10006494 <_ftoa+0x88>
10006492:	e0b6      	b.n	10006602 <_ftoa+0x1f6>
10006494:	2400      	movs	r4, #0
10006496:	e058      	b.n	1000654a <_ftoa+0x13e>
10006498:	9b22      	ldr	r3, [sp, #136]	; 0x88
1000649a:	9303      	str	r3, [sp, #12]
1000649c:	9b21      	ldr	r3, [sp, #132]	; 0x84
1000649e:	9302      	str	r3, [sp, #8]
100064a0:	2303      	movs	r3, #3
100064a2:	9301      	str	r3, [sp, #4]
100064a4:	4ba8      	ldr	r3, [pc, #672]	; (10006748 <_ftoa+0x33c>)
100064a6:	9300      	str	r3, [sp, #0]
100064a8:	464b      	mov	r3, r9
100064aa:	465a      	mov	r2, fp
100064ac:	9907      	ldr	r1, [sp, #28]
100064ae:	9806      	ldr	r0, [sp, #24]
100064b0:	f7ff fbf2 	bl	10005c98 <_out_rev>
100064b4:	e10e      	b.n	100066d4 <_ftoa+0x2c8>
100064b6:	9b22      	ldr	r3, [sp, #136]	; 0x88
100064b8:	9303      	str	r3, [sp, #12]
100064ba:	9b21      	ldr	r3, [sp, #132]	; 0x84
100064bc:	9302      	str	r3, [sp, #8]
100064be:	2304      	movs	r3, #4
100064c0:	9301      	str	r3, [sp, #4]
100064c2:	4ba2      	ldr	r3, [pc, #648]	; (1000674c <_ftoa+0x340>)
100064c4:	9300      	str	r3, [sp, #0]
100064c6:	464b      	mov	r3, r9
100064c8:	465a      	mov	r2, fp
100064ca:	9907      	ldr	r1, [sp, #28]
100064cc:	9806      	ldr	r0, [sp, #24]
100064ce:	f7ff fbe3 	bl	10005c98 <_out_rev>
100064d2:	e0ff      	b.n	100066d4 <_ftoa+0x2c8>
100064d4:	2304      	movs	r3, #4
100064d6:	9a22      	ldr	r2, [sp, #136]	; 0x88
100064d8:	401a      	ands	r2, r3
100064da:	9922      	ldr	r1, [sp, #136]	; 0x88
100064dc:	420b      	tst	r3, r1
100064de:	d010      	beq.n	10006502 <_ftoa+0xf6>
100064e0:	4b9b      	ldr	r3, [pc, #620]	; (10006750 <_ftoa+0x344>)
100064e2:	2a00      	cmp	r2, #0
100064e4:	d00f      	beq.n	10006506 <_ftoa+0xfa>
100064e6:	2204      	movs	r2, #4
100064e8:	9922      	ldr	r1, [sp, #136]	; 0x88
100064ea:	9103      	str	r1, [sp, #12]
100064ec:	9921      	ldr	r1, [sp, #132]	; 0x84
100064ee:	9102      	str	r1, [sp, #8]
100064f0:	9201      	str	r2, [sp, #4]
100064f2:	9300      	str	r3, [sp, #0]
100064f4:	464b      	mov	r3, r9
100064f6:	465a      	mov	r2, fp
100064f8:	9907      	ldr	r1, [sp, #28]
100064fa:	9806      	ldr	r0, [sp, #24]
100064fc:	f7ff fbcc 	bl	10005c98 <_out_rev>
10006500:	e0e8      	b.n	100066d4 <_ftoa+0x2c8>
10006502:	4b94      	ldr	r3, [pc, #592]	; (10006754 <_ftoa+0x348>)
10006504:	e7ed      	b.n	100064e2 <_ftoa+0xd6>
10006506:	2203      	movs	r2, #3
10006508:	e7ee      	b.n	100064e8 <_ftoa+0xdc>
1000650a:	9b22      	ldr	r3, [sp, #136]	; 0x88
1000650c:	9304      	str	r3, [sp, #16]
1000650e:	9b21      	ldr	r3, [sp, #132]	; 0x84
10006510:	9303      	str	r3, [sp, #12]
10006512:	9702      	str	r7, [sp, #8]
10006514:	9b1e      	ldr	r3, [sp, #120]	; 0x78
10006516:	9c1f      	ldr	r4, [sp, #124]	; 0x7c
10006518:	9300      	str	r3, [sp, #0]
1000651a:	9401      	str	r4, [sp, #4]
1000651c:	464b      	mov	r3, r9
1000651e:	465a      	mov	r2, fp
10006520:	9907      	ldr	r1, [sp, #28]
10006522:	9806      	ldr	r0, [sp, #24]
10006524:	f7ff fd68 	bl	10005ff8 <_etoa>
10006528:	e0d4      	b.n	100066d4 <_ftoa+0x2c8>
1000652a:	9a1e      	ldr	r2, [sp, #120]	; 0x78
1000652c:	9b1f      	ldr	r3, [sp, #124]	; 0x7c
1000652e:	2000      	movs	r0, #0
10006530:	2100      	movs	r1, #0
10006532:	f000 fed6 	bl	100072e2 <__wrap___aeabi_dsub>
10006536:	901e      	str	r0, [sp, #120]	; 0x78
10006538:	911f      	str	r1, [sp, #124]	; 0x7c
1000653a:	2301      	movs	r3, #1
1000653c:	4698      	mov	r8, r3
1000653e:	e7a5      	b.n	1000648c <_ftoa+0x80>
10006540:	ab0c      	add	r3, sp, #48	; 0x30
10006542:	2230      	movs	r2, #48	; 0x30
10006544:	551a      	strb	r2, [r3, r4]
10006546:	3f01      	subs	r7, #1
10006548:	3401      	adds	r4, #1
1000654a:	2c1f      	cmp	r4, #31
1000654c:	d801      	bhi.n	10006552 <_ftoa+0x146>
1000654e:	2f09      	cmp	r7, #9
10006550:	d8f6      	bhi.n	10006540 <_ftoa+0x134>
10006552:	981e      	ldr	r0, [sp, #120]	; 0x78
10006554:	991f      	ldr	r1, [sp, #124]	; 0x7c
10006556:	f000 ff7d 	bl	10007454 <__wrap___aeabi_d2iz>
1000655a:	0005      	movs	r5, r0
1000655c:	f000 ff62 	bl	10007424 <__wrap___aeabi_i2d>
10006560:	0002      	movs	r2, r0
10006562:	000b      	movs	r3, r1
10006564:	981e      	ldr	r0, [sp, #120]	; 0x78
10006566:	991f      	ldr	r1, [sp, #124]	; 0x7c
10006568:	f000 febb 	bl	100072e2 <__wrap___aeabi_dsub>
1000656c:	00fa      	lsls	r2, r7, #3
1000656e:	4b7a      	ldr	r3, [pc, #488]	; (10006758 <_ftoa+0x34c>)
10006570:	189b      	adds	r3, r3, r2
10006572:	681a      	ldr	r2, [r3, #0]
10006574:	685b      	ldr	r3, [r3, #4]
10006576:	920a      	str	r2, [sp, #40]	; 0x28
10006578:	930b      	str	r3, [sp, #44]	; 0x2c
1000657a:	f000 fee2 	bl	10007342 <__wrap___aeabi_dmul>
1000657e:	9008      	str	r0, [sp, #32]
10006580:	9109      	str	r1, [sp, #36]	; 0x24
10006582:	f000 ff8b 	bl	1000749c <__wrap___aeabi_d2uiz>
10006586:	0006      	movs	r6, r0
10006588:	f000 ff48 	bl	1000741c <__wrap___aeabi_ui2d>
1000658c:	0002      	movs	r2, r0
1000658e:	000b      	movs	r3, r1
10006590:	9808      	ldr	r0, [sp, #32]
10006592:	9909      	ldr	r1, [sp, #36]	; 0x24
10006594:	f000 fea5 	bl	100072e2 <__wrap___aeabi_dsub>
10006598:	9008      	str	r0, [sp, #32]
1000659a:	9109      	str	r1, [sp, #36]	; 0x24
1000659c:	2200      	movs	r2, #0
1000659e:	4b6f      	ldr	r3, [pc, #444]	; (1000675c <_ftoa+0x350>)
100065a0:	f000 ff28 	bl	100073f4 <__wrap___aeabi_dcmpgt>
100065a4:	2800      	cmp	r0, #0
100065a6:	d02e      	beq.n	10006606 <_ftoa+0x1fa>
100065a8:	3601      	adds	r6, #1
100065aa:	0030      	movs	r0, r6
100065ac:	f000 ff36 	bl	1000741c <__wrap___aeabi_ui2d>
100065b0:	0002      	movs	r2, r0
100065b2:	000b      	movs	r3, r1
100065b4:	980a      	ldr	r0, [sp, #40]	; 0x28
100065b6:	990b      	ldr	r1, [sp, #44]	; 0x2c
100065b8:	f000 ff0c 	bl	100073d4 <__wrap___aeabi_dcmple>
100065bc:	2800      	cmp	r0, #0
100065be:	d001      	beq.n	100065c4 <_ftoa+0x1b8>
100065c0:	3501      	adds	r5, #1
100065c2:	2600      	movs	r6, #0
100065c4:	2f00      	cmp	r7, #0
100065c6:	d12c      	bne.n	10006622 <_ftoa+0x216>
100065c8:	0028      	movs	r0, r5
100065ca:	f000 ff2b 	bl	10007424 <__wrap___aeabi_i2d>
100065ce:	0002      	movs	r2, r0
100065d0:	000b      	movs	r3, r1
100065d2:	981e      	ldr	r0, [sp, #120]	; 0x78
100065d4:	991f      	ldr	r1, [sp, #124]	; 0x7c
100065d6:	f000 fe84 	bl	100072e2 <__wrap___aeabi_dsub>
100065da:	0006      	movs	r6, r0
100065dc:	000f      	movs	r7, r1
100065de:	2200      	movs	r2, #0
100065e0:	4b5e      	ldr	r3, [pc, #376]	; (1000675c <_ftoa+0x350>)
100065e2:	f000 fef1 	bl	100073c8 <__wrap___aeabi_dcmplt>
100065e6:	2800      	cmp	r0, #0
100065e8:	d146      	bne.n	10006678 <_ftoa+0x26c>
100065ea:	2200      	movs	r2, #0
100065ec:	4b5b      	ldr	r3, [pc, #364]	; (1000675c <_ftoa+0x350>)
100065ee:	0030      	movs	r0, r6
100065f0:	0039      	movs	r1, r7
100065f2:	f000 feff 	bl	100073f4 <__wrap___aeabi_dcmpgt>
100065f6:	2800      	cmp	r0, #0
100065f8:	d13e      	bne.n	10006678 <_ftoa+0x26c>
100065fa:	07eb      	lsls	r3, r5, #31
100065fc:	d53c      	bpl.n	10006678 <_ftoa+0x26c>
100065fe:	3501      	adds	r5, #1
10006600:	e03a      	b.n	10006678 <_ftoa+0x26c>
10006602:	2706      	movs	r7, #6
10006604:	e746      	b.n	10006494 <_ftoa+0x88>
10006606:	2200      	movs	r2, #0
10006608:	4b54      	ldr	r3, [pc, #336]	; (1000675c <_ftoa+0x350>)
1000660a:	9808      	ldr	r0, [sp, #32]
1000660c:	9909      	ldr	r1, [sp, #36]	; 0x24
1000660e:	f000 fedb 	bl	100073c8 <__wrap___aeabi_dcmplt>
10006612:	2800      	cmp	r0, #0
10006614:	d1d6      	bne.n	100065c4 <_ftoa+0x1b8>
10006616:	2e00      	cmp	r6, #0
10006618:	d001      	beq.n	1000661e <_ftoa+0x212>
1000661a:	07f3      	lsls	r3, r6, #31
1000661c:	d5d2      	bpl.n	100065c4 <_ftoa+0x1b8>
1000661e:	3601      	adds	r6, #1
10006620:	e7d0      	b.n	100065c4 <_ftoa+0x1b8>
10006622:	46aa      	mov	sl, r5
10006624:	2c1f      	cmp	r4, #31
10006626:	d811      	bhi.n	1000664c <_ftoa+0x240>
10006628:	3f01      	subs	r7, #1
1000662a:	210a      	movs	r1, #10
1000662c:	0030      	movs	r0, r6
1000662e:	f000 fc15 	bl	10006e5c <__wrap___aeabi_uidiv>
10006632:	1c65      	adds	r5, r4, #1
10006634:	3130      	adds	r1, #48	; 0x30
10006636:	ab0c      	add	r3, sp, #48	; 0x30
10006638:	5519      	strb	r1, [r3, r4]
1000663a:	210a      	movs	r1, #10
1000663c:	0030      	movs	r0, r6
1000663e:	f000 fc0d 	bl	10006e5c <__wrap___aeabi_uidiv>
10006642:	2e09      	cmp	r6, #9
10006644:	d90e      	bls.n	10006664 <_ftoa+0x258>
10006646:	0006      	movs	r6, r0
10006648:	002c      	movs	r4, r5
1000664a:	e7eb      	b.n	10006624 <_ftoa+0x218>
1000664c:	4655      	mov	r5, sl
1000664e:	2c1f      	cmp	r4, #31
10006650:	d80c      	bhi.n	1000666c <_ftoa+0x260>
10006652:	1e7b      	subs	r3, r7, #1
10006654:	2f00      	cmp	r7, #0
10006656:	d009      	beq.n	1000666c <_ftoa+0x260>
10006658:	aa0c      	add	r2, sp, #48	; 0x30
1000665a:	2130      	movs	r1, #48	; 0x30
1000665c:	5511      	strb	r1, [r2, r4]
1000665e:	001f      	movs	r7, r3
10006660:	3401      	adds	r4, #1
10006662:	e7f4      	b.n	1000664e <_ftoa+0x242>
10006664:	002b      	movs	r3, r5
10006666:	4655      	mov	r5, sl
10006668:	001c      	movs	r4, r3
1000666a:	e7f0      	b.n	1000664e <_ftoa+0x242>
1000666c:	2c1f      	cmp	r4, #31
1000666e:	d803      	bhi.n	10006678 <_ftoa+0x26c>
10006670:	ab0c      	add	r3, sp, #48	; 0x30
10006672:	222e      	movs	r2, #46	; 0x2e
10006674:	551a      	strb	r2, [r3, r4]
10006676:	3401      	adds	r4, #1
10006678:	2c1f      	cmp	r4, #31
1000667a:	d810      	bhi.n	1000669e <_ftoa+0x292>
1000667c:	210a      	movs	r1, #10
1000667e:	0028      	movs	r0, r5
10006680:	f000 fbc4 	bl	10006e0c <__wrap___aeabi_idiv>
10006684:	1c66      	adds	r6, r4, #1
10006686:	3130      	adds	r1, #48	; 0x30
10006688:	ab0c      	add	r3, sp, #48	; 0x30
1000668a:	5519      	strb	r1, [r3, r4]
1000668c:	210a      	movs	r1, #10
1000668e:	0028      	movs	r0, r5
10006690:	f000 fbbc 	bl	10006e0c <__wrap___aeabi_idiv>
10006694:	1e05      	subs	r5, r0, #0
10006696:	d001      	beq.n	1000669c <_ftoa+0x290>
10006698:	0034      	movs	r4, r6
1000669a:	e7ed      	b.n	10006678 <_ftoa+0x26c>
1000669c:	0034      	movs	r4, r6
1000669e:	2303      	movs	r3, #3
100066a0:	9a22      	ldr	r2, [sp, #136]	; 0x88
100066a2:	4013      	ands	r3, r2
100066a4:	2b01      	cmp	r3, #1
100066a6:	d01c      	beq.n	100066e2 <_ftoa+0x2d6>
100066a8:	2c1f      	cmp	r4, #31
100066aa:	d806      	bhi.n	100066ba <_ftoa+0x2ae>
100066ac:	4643      	mov	r3, r8
100066ae:	2b00      	cmp	r3, #0
100066b0:	d032      	beq.n	10006718 <_ftoa+0x30c>
100066b2:	ab0c      	add	r3, sp, #48	; 0x30
100066b4:	222d      	movs	r2, #45	; 0x2d
100066b6:	551a      	strb	r2, [r3, r4]
100066b8:	3401      	adds	r4, #1
100066ba:	9b22      	ldr	r3, [sp, #136]	; 0x88
100066bc:	9303      	str	r3, [sp, #12]
100066be:	9b21      	ldr	r3, [sp, #132]	; 0x84
100066c0:	9302      	str	r3, [sp, #8]
100066c2:	9401      	str	r4, [sp, #4]
100066c4:	ab0c      	add	r3, sp, #48	; 0x30
100066c6:	9300      	str	r3, [sp, #0]
100066c8:	464b      	mov	r3, r9
100066ca:	465a      	mov	r2, fp
100066cc:	9907      	ldr	r1, [sp, #28]
100066ce:	9806      	ldr	r0, [sp, #24]
100066d0:	f7ff fae2 	bl	10005c98 <_out_rev>
100066d4:	b015      	add	sp, #84	; 0x54
100066d6:	bcf0      	pop	{r4, r5, r6, r7}
100066d8:	46bb      	mov	fp, r7
100066da:	46b2      	mov	sl, r6
100066dc:	46a9      	mov	r9, r5
100066de:	46a0      	mov	r8, r4
100066e0:	bdf0      	pop	{r4, r5, r6, r7, pc}
100066e2:	9b21      	ldr	r3, [sp, #132]	; 0x84
100066e4:	2b00      	cmp	r3, #0
100066e6:	d013      	beq.n	10006710 <_ftoa+0x304>
100066e8:	4643      	mov	r3, r8
100066ea:	2b00      	cmp	r3, #0
100066ec:	d102      	bne.n	100066f4 <_ftoa+0x2e8>
100066ee:	330c      	adds	r3, #12
100066f0:	4213      	tst	r3, r2
100066f2:	d00f      	beq.n	10006714 <_ftoa+0x308>
100066f4:	9b21      	ldr	r3, [sp, #132]	; 0x84
100066f6:	3b01      	subs	r3, #1
100066f8:	9321      	str	r3, [sp, #132]	; 0x84
100066fa:	0019      	movs	r1, r3
100066fc:	e003      	b.n	10006706 <_ftoa+0x2fa>
100066fe:	ab0c      	add	r3, sp, #48	; 0x30
10006700:	2230      	movs	r2, #48	; 0x30
10006702:	551a      	strb	r2, [r3, r4]
10006704:	3401      	adds	r4, #1
10006706:	428c      	cmp	r4, r1
10006708:	d2ce      	bcs.n	100066a8 <_ftoa+0x29c>
1000670a:	2c1f      	cmp	r4, #31
1000670c:	d9f7      	bls.n	100066fe <_ftoa+0x2f2>
1000670e:	e7cb      	b.n	100066a8 <_ftoa+0x29c>
10006710:	9921      	ldr	r1, [sp, #132]	; 0x84
10006712:	e7f8      	b.n	10006706 <_ftoa+0x2fa>
10006714:	9921      	ldr	r1, [sp, #132]	; 0x84
10006716:	e7f6      	b.n	10006706 <_ftoa+0x2fa>
10006718:	9b22      	ldr	r3, [sp, #136]	; 0x88
1000671a:	075b      	lsls	r3, r3, #29
1000671c:	d504      	bpl.n	10006728 <_ftoa+0x31c>
1000671e:	ab0c      	add	r3, sp, #48	; 0x30
10006720:	222b      	movs	r2, #43	; 0x2b
10006722:	551a      	strb	r2, [r3, r4]
10006724:	3401      	adds	r4, #1
10006726:	e7c8      	b.n	100066ba <_ftoa+0x2ae>
10006728:	9b22      	ldr	r3, [sp, #136]	; 0x88
1000672a:	071b      	lsls	r3, r3, #28
1000672c:	d5c5      	bpl.n	100066ba <_ftoa+0x2ae>
1000672e:	ab0c      	add	r3, sp, #48	; 0x30
10006730:	2220      	movs	r2, #32
10006732:	551a      	strb	r2, [r3, r4]
10006734:	3401      	adds	r4, #1
10006736:	e7c0      	b.n	100066ba <_ftoa+0x2ae>
10006738:	ffefffff 	.word	0xffefffff
1000673c:	7fefffff 	.word	0x7fefffff
10006740:	41cdcd65 	.word	0x41cdcd65
10006744:	c1cdcd65 	.word	0xc1cdcd65
10006748:	1000d2b4 	.word	0x1000d2b4
1000674c:	1000d2b8 	.word	0x1000d2b8
10006750:	1000d2ac 	.word	0x1000d2ac
10006754:	1000d2a8 	.word	0x1000d2a8
10006758:	1000d4a0 	.word	0x1000d4a0
1000675c:	3fe00000 	.word	0x3fe00000

10006760 <_vsnprintf>:
10006760:	b5f0      	push	{r4, r5, r6, r7, lr}
10006762:	46de      	mov	lr, fp
10006764:	4657      	mov	r7, sl
10006766:	464e      	mov	r6, r9
10006768:	4645      	mov	r5, r8
1000676a:	b5e0      	push	{r5, r6, r7, lr}
1000676c:	b093      	sub	sp, #76	; 0x4c
1000676e:	4682      	mov	sl, r0
10006770:	468b      	mov	fp, r1
10006772:	4690      	mov	r8, r2
10006774:	9311      	str	r3, [sp, #68]	; 0x44
10006776:	2900      	cmp	r1, #0
10006778:	d100      	bne.n	1000677c <_vsnprintf+0x1c>
1000677a:	e2eb      	b.n	10006d54 <_vsnprintf+0x5f4>
1000677c:	2700      	movs	r7, #0
1000677e:	4655      	mov	r5, sl
10006780:	9b11      	ldr	r3, [sp, #68]	; 0x44
10006782:	7818      	ldrb	r0, [r3, #0]
10006784:	2800      	cmp	r0, #0
10006786:	d100      	bne.n	1000678a <_vsnprintf+0x2a>
10006788:	e2e7      	b.n	10006d5a <_vsnprintf+0x5fa>
1000678a:	2825      	cmp	r0, #37	; 0x25
1000678c:	d009      	beq.n	100067a2 <_vsnprintf+0x42>
1000678e:	1c7c      	adds	r4, r7, #1
10006790:	4643      	mov	r3, r8
10006792:	003a      	movs	r2, r7
10006794:	4659      	mov	r1, fp
10006796:	47a8      	blx	r5
10006798:	9b11      	ldr	r3, [sp, #68]	; 0x44
1000679a:	3301      	adds	r3, #1
1000679c:	9311      	str	r3, [sp, #68]	; 0x44
1000679e:	0027      	movs	r7, r4
100067a0:	e7ee      	b.n	10006780 <_vsnprintf+0x20>
100067a2:	3301      	adds	r3, #1
100067a4:	9311      	str	r3, [sp, #68]	; 0x44
100067a6:	2400      	movs	r4, #0
100067a8:	9a11      	ldr	r2, [sp, #68]	; 0x44
100067aa:	7811      	ldrb	r1, [r2, #0]
100067ac:	000b      	movs	r3, r1
100067ae:	3b20      	subs	r3, #32
100067b0:	b2d8      	uxtb	r0, r3
100067b2:	2810      	cmp	r0, #16
100067b4:	d803      	bhi.n	100067be <_vsnprintf+0x5e>
100067b6:	0083      	lsls	r3, r0, #2
100067b8:	48d0      	ldr	r0, [pc, #832]	; (10006afc <_vsnprintf+0x39c>)
100067ba:	58c3      	ldr	r3, [r0, r3]
100067bc:	469f      	mov	pc, r3
100067be:	000b      	movs	r3, r1
100067c0:	3b30      	subs	r3, #48	; 0x30
100067c2:	b2db      	uxtb	r3, r3
100067c4:	2b09      	cmp	r3, #9
100067c6:	d92c      	bls.n	10006822 <_vsnprintf+0xc2>
100067c8:	292a      	cmp	r1, #42	; 0x2a
100067ca:	d02f      	beq.n	1000682c <_vsnprintf+0xcc>
100067cc:	2300      	movs	r3, #0
100067ce:	930a      	str	r3, [sp, #40]	; 0x28
100067d0:	9b11      	ldr	r3, [sp, #68]	; 0x44
100067d2:	781a      	ldrb	r2, [r3, #0]
100067d4:	2a2e      	cmp	r2, #46	; 0x2e
100067d6:	d039      	beq.n	1000684c <_vsnprintf+0xec>
100067d8:	2300      	movs	r3, #0
100067da:	469a      	mov	sl, r3
100067dc:	9a11      	ldr	r2, [sp, #68]	; 0x44
100067de:	7813      	ldrb	r3, [r2, #0]
100067e0:	3b68      	subs	r3, #104	; 0x68
100067e2:	b2d9      	uxtb	r1, r3
100067e4:	2912      	cmp	r1, #18
100067e6:	d876      	bhi.n	100068d6 <_vsnprintf+0x176>
100067e8:	008b      	lsls	r3, r1, #2
100067ea:	49c5      	ldr	r1, [pc, #788]	; (10006b00 <_vsnprintf+0x3a0>)
100067ec:	58cb      	ldr	r3, [r1, r3]
100067ee:	469f      	mov	pc, r3
100067f0:	2301      	movs	r3, #1
100067f2:	431c      	orrs	r4, r3
100067f4:	3201      	adds	r2, #1
100067f6:	9211      	str	r2, [sp, #68]	; 0x44
100067f8:	e7d6      	b.n	100067a8 <_vsnprintf+0x48>
100067fa:	2302      	movs	r3, #2
100067fc:	431c      	orrs	r4, r3
100067fe:	3201      	adds	r2, #1
10006800:	9211      	str	r2, [sp, #68]	; 0x44
10006802:	e7d1      	b.n	100067a8 <_vsnprintf+0x48>
10006804:	2304      	movs	r3, #4
10006806:	431c      	orrs	r4, r3
10006808:	3201      	adds	r2, #1
1000680a:	9211      	str	r2, [sp, #68]	; 0x44
1000680c:	e7cc      	b.n	100067a8 <_vsnprintf+0x48>
1000680e:	2308      	movs	r3, #8
10006810:	431c      	orrs	r4, r3
10006812:	3201      	adds	r2, #1
10006814:	9211      	str	r2, [sp, #68]	; 0x44
10006816:	e7c7      	b.n	100067a8 <_vsnprintf+0x48>
10006818:	2310      	movs	r3, #16
1000681a:	431c      	orrs	r4, r3
1000681c:	3201      	adds	r2, #1
1000681e:	9211      	str	r2, [sp, #68]	; 0x44
10006820:	e7c2      	b.n	100067a8 <_vsnprintf+0x48>
10006822:	a811      	add	r0, sp, #68	; 0x44
10006824:	f7ff fa26 	bl	10005c74 <_atoi>
10006828:	900a      	str	r0, [sp, #40]	; 0x28
1000682a:	e7d1      	b.n	100067d0 <_vsnprintf+0x70>
1000682c:	9b1c      	ldr	r3, [sp, #112]	; 0x70
1000682e:	1d1a      	adds	r2, r3, #4
10006830:	921c      	str	r2, [sp, #112]	; 0x70
10006832:	6818      	ldr	r0, [r3, #0]
10006834:	2800      	cmp	r0, #0
10006836:	db04      	blt.n	10006842 <_vsnprintf+0xe2>
10006838:	900a      	str	r0, [sp, #40]	; 0x28
1000683a:	9b11      	ldr	r3, [sp, #68]	; 0x44
1000683c:	3301      	adds	r3, #1
1000683e:	9311      	str	r3, [sp, #68]	; 0x44
10006840:	e7c6      	b.n	100067d0 <_vsnprintf+0x70>
10006842:	2302      	movs	r3, #2
10006844:	431c      	orrs	r4, r3
10006846:	4243      	negs	r3, r0
10006848:	930a      	str	r3, [sp, #40]	; 0x28
1000684a:	e7f6      	b.n	1000683a <_vsnprintf+0xda>
1000684c:	2280      	movs	r2, #128	; 0x80
1000684e:	00d2      	lsls	r2, r2, #3
10006850:	4314      	orrs	r4, r2
10006852:	1c5a      	adds	r2, r3, #1
10006854:	9211      	str	r2, [sp, #68]	; 0x44
10006856:	785a      	ldrb	r2, [r3, #1]
10006858:	0013      	movs	r3, r2
1000685a:	3b30      	subs	r3, #48	; 0x30
1000685c:	b2db      	uxtb	r3, r3
1000685e:	2b09      	cmp	r3, #9
10006860:	d904      	bls.n	1000686c <_vsnprintf+0x10c>
10006862:	2a2a      	cmp	r2, #42	; 0x2a
10006864:	d007      	beq.n	10006876 <_vsnprintf+0x116>
10006866:	2300      	movs	r3, #0
10006868:	469a      	mov	sl, r3
1000686a:	e7b7      	b.n	100067dc <_vsnprintf+0x7c>
1000686c:	a811      	add	r0, sp, #68	; 0x44
1000686e:	f7ff fa01 	bl	10005c74 <_atoi>
10006872:	4682      	mov	sl, r0
10006874:	e7b2      	b.n	100067dc <_vsnprintf+0x7c>
10006876:	9b1c      	ldr	r3, [sp, #112]	; 0x70
10006878:	1d1a      	adds	r2, r3, #4
1000687a:	921c      	str	r2, [sp, #112]	; 0x70
1000687c:	6818      	ldr	r0, [r3, #0]
1000687e:	2800      	cmp	r0, #0
10006880:	db04      	blt.n	1000688c <_vsnprintf+0x12c>
10006882:	4682      	mov	sl, r0
10006884:	9b11      	ldr	r3, [sp, #68]	; 0x44
10006886:	3301      	adds	r3, #1
10006888:	9311      	str	r3, [sp, #68]	; 0x44
1000688a:	e7a7      	b.n	100067dc <_vsnprintf+0x7c>
1000688c:	2000      	movs	r0, #0
1000688e:	e7f8      	b.n	10006882 <_vsnprintf+0x122>
10006890:	2380      	movs	r3, #128	; 0x80
10006892:	005b      	lsls	r3, r3, #1
10006894:	4323      	orrs	r3, r4
10006896:	1c51      	adds	r1, r2, #1
10006898:	9111      	str	r1, [sp, #68]	; 0x44
1000689a:	7852      	ldrb	r2, [r2, #1]
1000689c:	2a6c      	cmp	r2, #108	; 0x6c
1000689e:	d001      	beq.n	100068a4 <_vsnprintf+0x144>
100068a0:	001c      	movs	r4, r3
100068a2:	e018      	b.n	100068d6 <_vsnprintf+0x176>
100068a4:	23c0      	movs	r3, #192	; 0xc0
100068a6:	009b      	lsls	r3, r3, #2
100068a8:	431c      	orrs	r4, r3
100068aa:	3101      	adds	r1, #1
100068ac:	9111      	str	r1, [sp, #68]	; 0x44
100068ae:	e012      	b.n	100068d6 <_vsnprintf+0x176>
100068b0:	2380      	movs	r3, #128	; 0x80
100068b2:	4323      	orrs	r3, r4
100068b4:	1c51      	adds	r1, r2, #1
100068b6:	9111      	str	r1, [sp, #68]	; 0x44
100068b8:	7852      	ldrb	r2, [r2, #1]
100068ba:	2a68      	cmp	r2, #104	; 0x68
100068bc:	d001      	beq.n	100068c2 <_vsnprintf+0x162>
100068be:	001c      	movs	r4, r3
100068c0:	e009      	b.n	100068d6 <_vsnprintf+0x176>
100068c2:	23c0      	movs	r3, #192	; 0xc0
100068c4:	431c      	orrs	r4, r3
100068c6:	3101      	adds	r1, #1
100068c8:	9111      	str	r1, [sp, #68]	; 0x44
100068ca:	e004      	b.n	100068d6 <_vsnprintf+0x176>
100068cc:	2380      	movs	r3, #128	; 0x80
100068ce:	005b      	lsls	r3, r3, #1
100068d0:	431c      	orrs	r4, r3
100068d2:	3201      	adds	r2, #1
100068d4:	9211      	str	r2, [sp, #68]	; 0x44
100068d6:	9b11      	ldr	r3, [sp, #68]	; 0x44
100068d8:	7818      	ldrb	r0, [r3, #0]
100068da:	0003      	movs	r3, r0
100068dc:	3b25      	subs	r3, #37	; 0x25
100068de:	b2da      	uxtb	r2, r3
100068e0:	2a53      	cmp	r2, #83	; 0x53
100068e2:	d900      	bls.n	100068e6 <_vsnprintf+0x186>
100068e4:	e22c      	b.n	10006d40 <_vsnprintf+0x5e0>
100068e6:	0093      	lsls	r3, r2, #2
100068e8:	4a86      	ldr	r2, [pc, #536]	; (10006b04 <_vsnprintf+0x3a4>)
100068ea:	58d3      	ldr	r3, [r2, r3]
100068ec:	469f      	mov	pc, r3
100068ee:	2380      	movs	r3, #128	; 0x80
100068f0:	009b      	lsls	r3, r3, #2
100068f2:	431c      	orrs	r4, r3
100068f4:	3201      	adds	r2, #1
100068f6:	9211      	str	r2, [sp, #68]	; 0x44
100068f8:	e7ed      	b.n	100068d6 <_vsnprintf+0x176>
100068fa:	2380      	movs	r3, #128	; 0x80
100068fc:	005b      	lsls	r3, r3, #1
100068fe:	431c      	orrs	r4, r3
10006900:	3201      	adds	r2, #1
10006902:	9211      	str	r2, [sp, #68]	; 0x44
10006904:	e7e7      	b.n	100068d6 <_vsnprintf+0x176>
10006906:	2878      	cmp	r0, #120	; 0x78
10006908:	d009      	beq.n	1000691e <_vsnprintf+0x1be>
1000690a:	2858      	cmp	r0, #88	; 0x58
1000690c:	d038      	beq.n	10006980 <_vsnprintf+0x220>
1000690e:	286f      	cmp	r0, #111	; 0x6f
10006910:	d038      	beq.n	10006984 <_vsnprintf+0x224>
10006912:	2862      	cmp	r0, #98	; 0x62
10006914:	d038      	beq.n	10006988 <_vsnprintf+0x228>
10006916:	2310      	movs	r3, #16
10006918:	439c      	bics	r4, r3
1000691a:	260a      	movs	r6, #10
1000691c:	e000      	b.n	10006920 <_vsnprintf+0x1c0>
1000691e:	2610      	movs	r6, #16
10006920:	2858      	cmp	r0, #88	; 0x58
10006922:	d033      	beq.n	1000698c <_vsnprintf+0x22c>
10006924:	2869      	cmp	r0, #105	; 0x69
10006926:	d003      	beq.n	10006930 <_vsnprintf+0x1d0>
10006928:	2864      	cmp	r0, #100	; 0x64
1000692a:	d001      	beq.n	10006930 <_vsnprintf+0x1d0>
1000692c:	220c      	movs	r2, #12
1000692e:	4394      	bics	r4, r2
10006930:	0563      	lsls	r3, r4, #21
10006932:	d501      	bpl.n	10006938 <_vsnprintf+0x1d8>
10006934:	2201      	movs	r2, #1
10006936:	4394      	bics	r4, r2
10006938:	2869      	cmp	r0, #105	; 0x69
1000693a:	d02a      	beq.n	10006992 <_vsnprintf+0x232>
1000693c:	2864      	cmp	r0, #100	; 0x64
1000693e:	d028      	beq.n	10006992 <_vsnprintf+0x232>
10006940:	05a3      	lsls	r3, r4, #22
10006942:	d500      	bpl.n	10006946 <_vsnprintf+0x1e6>
10006944:	e09f      	b.n	10006a86 <_vsnprintf+0x326>
10006946:	05e3      	lsls	r3, r4, #23
10006948:	d500      	bpl.n	1000694c <_vsnprintf+0x1ec>
1000694a:	e0b8      	b.n	10006abe <_vsnprintf+0x35e>
1000694c:	0663      	lsls	r3, r4, #25
1000694e:	d400      	bmi.n	10006952 <_vsnprintf+0x1f2>
10006950:	e0ca      	b.n	10006ae8 <_vsnprintf+0x388>
10006952:	9a1c      	ldr	r2, [sp, #112]	; 0x70
10006954:	1d11      	adds	r1, r2, #4
10006956:	911c      	str	r1, [sp, #112]	; 0x70
10006958:	6811      	ldr	r1, [r2, #0]
1000695a:	22ff      	movs	r2, #255	; 0xff
1000695c:	400a      	ands	r2, r1
1000695e:	9405      	str	r4, [sp, #20]
10006960:	9b0a      	ldr	r3, [sp, #40]	; 0x28
10006962:	9304      	str	r3, [sp, #16]
10006964:	4653      	mov	r3, sl
10006966:	9303      	str	r3, [sp, #12]
10006968:	9602      	str	r6, [sp, #8]
1000696a:	2300      	movs	r3, #0
1000696c:	9301      	str	r3, [sp, #4]
1000696e:	9200      	str	r2, [sp, #0]
10006970:	4643      	mov	r3, r8
10006972:	003a      	movs	r2, r7
10006974:	4659      	mov	r1, fp
10006976:	0028      	movs	r0, r5
10006978:	f7ff fa6e 	bl	10005e58 <_ntoa_long>
1000697c:	0007      	movs	r7, r0
1000697e:	e027      	b.n	100069d0 <_vsnprintf+0x270>
10006980:	2610      	movs	r6, #16
10006982:	e7cd      	b.n	10006920 <_vsnprintf+0x1c0>
10006984:	2608      	movs	r6, #8
10006986:	e7cb      	b.n	10006920 <_vsnprintf+0x1c0>
10006988:	2602      	movs	r6, #2
1000698a:	e7c9      	b.n	10006920 <_vsnprintf+0x1c0>
1000698c:	2220      	movs	r2, #32
1000698e:	4314      	orrs	r4, r2
10006990:	e7c8      	b.n	10006924 <_vsnprintf+0x1c4>
10006992:	05a3      	lsls	r3, r4, #22
10006994:	d420      	bmi.n	100069d8 <_vsnprintf+0x278>
10006996:	05e3      	lsls	r3, r4, #23
10006998:	d450      	bmi.n	10006a3c <_vsnprintf+0x2dc>
1000699a:	0663      	lsls	r3, r4, #25
1000699c:	d566      	bpl.n	10006a6c <_vsnprintf+0x30c>
1000699e:	9a1c      	ldr	r2, [sp, #112]	; 0x70
100069a0:	1d11      	adds	r1, r2, #4
100069a2:	911c      	str	r1, [sp, #112]	; 0x70
100069a4:	6811      	ldr	r1, [r2, #0]
100069a6:	22ff      	movs	r2, #255	; 0xff
100069a8:	400a      	ands	r2, r1
100069aa:	17d3      	asrs	r3, r2, #31
100069ac:	18d1      	adds	r1, r2, r3
100069ae:	4059      	eors	r1, r3
100069b0:	9405      	str	r4, [sp, #20]
100069b2:	9b0a      	ldr	r3, [sp, #40]	; 0x28
100069b4:	9304      	str	r3, [sp, #16]
100069b6:	4653      	mov	r3, sl
100069b8:	9303      	str	r3, [sp, #12]
100069ba:	9602      	str	r6, [sp, #8]
100069bc:	0fd2      	lsrs	r2, r2, #31
100069be:	9201      	str	r2, [sp, #4]
100069c0:	9100      	str	r1, [sp, #0]
100069c2:	4643      	mov	r3, r8
100069c4:	003a      	movs	r2, r7
100069c6:	4659      	mov	r1, fp
100069c8:	0028      	movs	r0, r5
100069ca:	f7ff fa45 	bl	10005e58 <_ntoa_long>
100069ce:	0007      	movs	r7, r0
100069d0:	9b11      	ldr	r3, [sp, #68]	; 0x44
100069d2:	3301      	adds	r3, #1
100069d4:	9311      	str	r3, [sp, #68]	; 0x44
100069d6:	e6d3      	b.n	10006780 <_vsnprintf+0x20>
100069d8:	9b1c      	ldr	r3, [sp, #112]	; 0x70
100069da:	1dda      	adds	r2, r3, #7
100069dc:	2107      	movs	r1, #7
100069de:	438a      	bics	r2, r1
100069e0:	0011      	movs	r1, r2
100069e2:	3108      	adds	r1, #8
100069e4:	911c      	str	r1, [sp, #112]	; 0x70
100069e6:	6811      	ldr	r1, [r2, #0]
100069e8:	6853      	ldr	r3, [r2, #4]
100069ea:	469c      	mov	ip, r3
100069ec:	17db      	asrs	r3, r3, #31
100069ee:	930c      	str	r3, [sp, #48]	; 0x30
100069f0:	930d      	str	r3, [sp, #52]	; 0x34
100069f2:	9a0c      	ldr	r2, [sp, #48]	; 0x30
100069f4:	9b0d      	ldr	r3, [sp, #52]	; 0x34
100069f6:	0010      	movs	r0, r2
100069f8:	4048      	eors	r0, r1
100069fa:	900e      	str	r0, [sp, #56]	; 0x38
100069fc:	4662      	mov	r2, ip
100069fe:	4053      	eors	r3, r2
10006a00:	930f      	str	r3, [sp, #60]	; 0x3c
10006a02:	980e      	ldr	r0, [sp, #56]	; 0x38
10006a04:	990f      	ldr	r1, [sp, #60]	; 0x3c
10006a06:	9a0c      	ldr	r2, [sp, #48]	; 0x30
10006a08:	9b0d      	ldr	r3, [sp, #52]	; 0x34
10006a0a:	1a80      	subs	r0, r0, r2
10006a0c:	4199      	sbcs	r1, r3
10006a0e:	900e      	str	r0, [sp, #56]	; 0x38
10006a10:	910f      	str	r1, [sp, #60]	; 0x3c
10006a12:	9408      	str	r4, [sp, #32]
10006a14:	9b0a      	ldr	r3, [sp, #40]	; 0x28
10006a16:	9307      	str	r3, [sp, #28]
10006a18:	4653      	mov	r3, sl
10006a1a:	9306      	str	r3, [sp, #24]
10006a1c:	9604      	str	r6, [sp, #16]
10006a1e:	2300      	movs	r3, #0
10006a20:	9305      	str	r3, [sp, #20]
10006a22:	4663      	mov	r3, ip
10006a24:	0fda      	lsrs	r2, r3, #31
10006a26:	9202      	str	r2, [sp, #8]
10006a28:	9000      	str	r0, [sp, #0]
10006a2a:	9101      	str	r1, [sp, #4]
10006a2c:	4643      	mov	r3, r8
10006a2e:	003a      	movs	r2, r7
10006a30:	4659      	mov	r1, fp
10006a32:	0028      	movs	r0, r5
10006a34:	f7ff fa6e 	bl	10005f14 <_ntoa_long_long>
10006a38:	0007      	movs	r7, r0
10006a3a:	e7c9      	b.n	100069d0 <_vsnprintf+0x270>
10006a3c:	9a1c      	ldr	r2, [sp, #112]	; 0x70
10006a3e:	1d11      	adds	r1, r2, #4
10006a40:	911c      	str	r1, [sp, #112]	; 0x70
10006a42:	6812      	ldr	r2, [r2, #0]
10006a44:	17d3      	asrs	r3, r2, #31
10006a46:	18d1      	adds	r1, r2, r3
10006a48:	4059      	eors	r1, r3
10006a4a:	9405      	str	r4, [sp, #20]
10006a4c:	9b0a      	ldr	r3, [sp, #40]	; 0x28
10006a4e:	9304      	str	r3, [sp, #16]
10006a50:	4653      	mov	r3, sl
10006a52:	9303      	str	r3, [sp, #12]
10006a54:	9602      	str	r6, [sp, #8]
10006a56:	0fd2      	lsrs	r2, r2, #31
10006a58:	9201      	str	r2, [sp, #4]
10006a5a:	9100      	str	r1, [sp, #0]
10006a5c:	4643      	mov	r3, r8
10006a5e:	003a      	movs	r2, r7
10006a60:	4659      	mov	r1, fp
10006a62:	0028      	movs	r0, r5
10006a64:	f7ff f9f8 	bl	10005e58 <_ntoa_long>
10006a68:	0007      	movs	r7, r0
10006a6a:	e7b1      	b.n	100069d0 <_vsnprintf+0x270>
10006a6c:	0623      	lsls	r3, r4, #24
10006a6e:	d505      	bpl.n	10006a7c <_vsnprintf+0x31c>
10006a70:	9a1c      	ldr	r2, [sp, #112]	; 0x70
10006a72:	1d11      	adds	r1, r2, #4
10006a74:	911c      	str	r1, [sp, #112]	; 0x70
10006a76:	2300      	movs	r3, #0
10006a78:	5ed2      	ldrsh	r2, [r2, r3]
10006a7a:	e796      	b.n	100069aa <_vsnprintf+0x24a>
10006a7c:	9a1c      	ldr	r2, [sp, #112]	; 0x70
10006a7e:	1d11      	adds	r1, r2, #4
10006a80:	911c      	str	r1, [sp, #112]	; 0x70
10006a82:	6812      	ldr	r2, [r2, #0]
10006a84:	e791      	b.n	100069aa <_vsnprintf+0x24a>
10006a86:	9b1c      	ldr	r3, [sp, #112]	; 0x70
10006a88:	1dda      	adds	r2, r3, #7
10006a8a:	2107      	movs	r1, #7
10006a8c:	438a      	bics	r2, r1
10006a8e:	0011      	movs	r1, r2
10006a90:	3108      	adds	r1, #8
10006a92:	911c      	str	r1, [sp, #112]	; 0x70
10006a94:	9408      	str	r4, [sp, #32]
10006a96:	9b0a      	ldr	r3, [sp, #40]	; 0x28
10006a98:	9307      	str	r3, [sp, #28]
10006a9a:	4653      	mov	r3, sl
10006a9c:	9306      	str	r3, [sp, #24]
10006a9e:	9604      	str	r6, [sp, #16]
10006aa0:	2300      	movs	r3, #0
10006aa2:	9305      	str	r3, [sp, #20]
10006aa4:	9302      	str	r3, [sp, #8]
10006aa6:	6813      	ldr	r3, [r2, #0]
10006aa8:	6854      	ldr	r4, [r2, #4]
10006aaa:	9300      	str	r3, [sp, #0]
10006aac:	9401      	str	r4, [sp, #4]
10006aae:	4643      	mov	r3, r8
10006ab0:	003a      	movs	r2, r7
10006ab2:	4659      	mov	r1, fp
10006ab4:	0028      	movs	r0, r5
10006ab6:	f7ff fa2d 	bl	10005f14 <_ntoa_long_long>
10006aba:	0007      	movs	r7, r0
10006abc:	e788      	b.n	100069d0 <_vsnprintf+0x270>
10006abe:	9a1c      	ldr	r2, [sp, #112]	; 0x70
10006ac0:	1d11      	adds	r1, r2, #4
10006ac2:	911c      	str	r1, [sp, #112]	; 0x70
10006ac4:	9405      	str	r4, [sp, #20]
10006ac6:	9b0a      	ldr	r3, [sp, #40]	; 0x28
10006ac8:	9304      	str	r3, [sp, #16]
10006aca:	4653      	mov	r3, sl
10006acc:	9303      	str	r3, [sp, #12]
10006ace:	9602      	str	r6, [sp, #8]
10006ad0:	2300      	movs	r3, #0
10006ad2:	9301      	str	r3, [sp, #4]
10006ad4:	6813      	ldr	r3, [r2, #0]
10006ad6:	9300      	str	r3, [sp, #0]
10006ad8:	4643      	mov	r3, r8
10006ada:	003a      	movs	r2, r7
10006adc:	4659      	mov	r1, fp
10006ade:	0028      	movs	r0, r5
10006ae0:	f7ff f9ba 	bl	10005e58 <_ntoa_long>
10006ae4:	0007      	movs	r7, r0
10006ae6:	e773      	b.n	100069d0 <_vsnprintf+0x270>
10006ae8:	0623      	lsls	r3, r4, #24
10006aea:	d50d      	bpl.n	10006b08 <_vsnprintf+0x3a8>
10006aec:	9a1c      	ldr	r2, [sp, #112]	; 0x70
10006aee:	1d11      	adds	r1, r2, #4
10006af0:	911c      	str	r1, [sp, #112]	; 0x70
10006af2:	6812      	ldr	r2, [r2, #0]
10006af4:	0412      	lsls	r2, r2, #16
10006af6:	0c12      	lsrs	r2, r2, #16
10006af8:	e731      	b.n	1000695e <_vsnprintf+0x1fe>
10006afa:	46c0      	nop			; (mov r8, r8)
10006afc:	1000d2c0 	.word	0x1000d2c0
10006b00:	1000d304 	.word	0x1000d304
10006b04:	1000d350 	.word	0x1000d350
10006b08:	9a1c      	ldr	r2, [sp, #112]	; 0x70
10006b0a:	1d11      	adds	r1, r2, #4
10006b0c:	911c      	str	r1, [sp, #112]	; 0x70
10006b0e:	6812      	ldr	r2, [r2, #0]
10006b10:	e725      	b.n	1000695e <_vsnprintf+0x1fe>
10006b12:	2846      	cmp	r0, #70	; 0x46
10006b14:	d01a      	beq.n	10006b4c <_vsnprintf+0x3ec>
10006b16:	9b1c      	ldr	r3, [sp, #112]	; 0x70
10006b18:	3307      	adds	r3, #7
10006b1a:	2207      	movs	r2, #7
10006b1c:	4393      	bics	r3, r2
10006b1e:	001a      	movs	r2, r3
10006b20:	3208      	adds	r2, #8
10006b22:	921c      	str	r2, [sp, #112]	; 0x70
10006b24:	9404      	str	r4, [sp, #16]
10006b26:	9a0a      	ldr	r2, [sp, #40]	; 0x28
10006b28:	9203      	str	r2, [sp, #12]
10006b2a:	4652      	mov	r2, sl
10006b2c:	9202      	str	r2, [sp, #8]
10006b2e:	685c      	ldr	r4, [r3, #4]
10006b30:	681b      	ldr	r3, [r3, #0]
10006b32:	9300      	str	r3, [sp, #0]
10006b34:	9401      	str	r4, [sp, #4]
10006b36:	4643      	mov	r3, r8
10006b38:	003a      	movs	r2, r7
10006b3a:	4659      	mov	r1, fp
10006b3c:	0028      	movs	r0, r5
10006b3e:	f7ff fc65 	bl	1000640c <_ftoa>
10006b42:	0007      	movs	r7, r0
10006b44:	9b11      	ldr	r3, [sp, #68]	; 0x44
10006b46:	3301      	adds	r3, #1
10006b48:	9311      	str	r3, [sp, #68]	; 0x44
10006b4a:	e619      	b.n	10006780 <_vsnprintf+0x20>
10006b4c:	2320      	movs	r3, #32
10006b4e:	431c      	orrs	r4, r3
10006b50:	e7e1      	b.n	10006b16 <_vsnprintf+0x3b6>
10006b52:	2867      	cmp	r0, #103	; 0x67
10006b54:	d001      	beq.n	10006b5a <_vsnprintf+0x3fa>
10006b56:	2847      	cmp	r0, #71	; 0x47
10006b58:	d102      	bne.n	10006b60 <_vsnprintf+0x400>
10006b5a:	2380      	movs	r3, #128	; 0x80
10006b5c:	011b      	lsls	r3, r3, #4
10006b5e:	431c      	orrs	r4, r3
10006b60:	2845      	cmp	r0, #69	; 0x45
10006b62:	d001      	beq.n	10006b68 <_vsnprintf+0x408>
10006b64:	2847      	cmp	r0, #71	; 0x47
10006b66:	d101      	bne.n	10006b6c <_vsnprintf+0x40c>
10006b68:	2320      	movs	r3, #32
10006b6a:	431c      	orrs	r4, r3
10006b6c:	9b1c      	ldr	r3, [sp, #112]	; 0x70
10006b6e:	3307      	adds	r3, #7
10006b70:	2207      	movs	r2, #7
10006b72:	4393      	bics	r3, r2
10006b74:	001a      	movs	r2, r3
10006b76:	3208      	adds	r2, #8
10006b78:	921c      	str	r2, [sp, #112]	; 0x70
10006b7a:	9404      	str	r4, [sp, #16]
10006b7c:	9a0a      	ldr	r2, [sp, #40]	; 0x28
10006b7e:	9203      	str	r2, [sp, #12]
10006b80:	4652      	mov	r2, sl
10006b82:	9202      	str	r2, [sp, #8]
10006b84:	685c      	ldr	r4, [r3, #4]
10006b86:	681b      	ldr	r3, [r3, #0]
10006b88:	9300      	str	r3, [sp, #0]
10006b8a:	9401      	str	r4, [sp, #4]
10006b8c:	4643      	mov	r3, r8
10006b8e:	003a      	movs	r2, r7
10006b90:	4659      	mov	r1, fp
10006b92:	0028      	movs	r0, r5
10006b94:	f7ff fa30 	bl	10005ff8 <_etoa>
10006b98:	0007      	movs	r7, r0
10006b9a:	9b11      	ldr	r3, [sp, #68]	; 0x44
10006b9c:	3301      	adds	r3, #1
10006b9e:	9311      	str	r3, [sp, #68]	; 0x44
10006ba0:	e5ee      	b.n	10006780 <_vsnprintf+0x20>
10006ba2:	2302      	movs	r3, #2
10006ba4:	001a      	movs	r2, r3
10006ba6:	4022      	ands	r2, r4
10006ba8:	4692      	mov	sl, r2
10006baa:	4223      	tst	r3, r4
10006bac:	d01f      	beq.n	10006bee <_vsnprintf+0x48e>
10006bae:	2401      	movs	r4, #1
10006bb0:	9b1c      	ldr	r3, [sp, #112]	; 0x70
10006bb2:	1d1a      	adds	r2, r3, #4
10006bb4:	921c      	str	r2, [sp, #112]	; 0x70
10006bb6:	1c7a      	adds	r2, r7, #1
10006bb8:	4691      	mov	r9, r2
10006bba:	7818      	ldrb	r0, [r3, #0]
10006bbc:	4643      	mov	r3, r8
10006bbe:	003a      	movs	r2, r7
10006bc0:	4659      	mov	r1, fp
10006bc2:	47a8      	blx	r5
10006bc4:	4653      	mov	r3, sl
10006bc6:	2b00      	cmp	r3, #0
10006bc8:	d116      	bne.n	10006bf8 <_vsnprintf+0x498>
10006bca:	9b11      	ldr	r3, [sp, #68]	; 0x44
10006bcc:	3301      	adds	r3, #1
10006bce:	9311      	str	r3, [sp, #68]	; 0x44
10006bd0:	464f      	mov	r7, r9
10006bd2:	e5d5      	b.n	10006780 <_vsnprintf+0x20>
10006bd4:	1c56      	adds	r6, r2, #1
10006bd6:	4643      	mov	r3, r8
10006bd8:	4659      	mov	r1, fp
10006bda:	2020      	movs	r0, #32
10006bdc:	47b8      	blx	r7
10006bde:	0023      	movs	r3, r4
10006be0:	0032      	movs	r2, r6
10006be2:	1c5c      	adds	r4, r3, #1
10006be4:	429d      	cmp	r5, r3
10006be6:	d8f5      	bhi.n	10006bd4 <_vsnprintf+0x474>
10006be8:	003d      	movs	r5, r7
10006bea:	0017      	movs	r7, r2
10006bec:	e7e0      	b.n	10006bb0 <_vsnprintf+0x450>
10006bee:	2301      	movs	r3, #1
10006bf0:	003a      	movs	r2, r7
10006bf2:	002f      	movs	r7, r5
10006bf4:	9d0a      	ldr	r5, [sp, #40]	; 0x28
10006bf6:	e7f4      	b.n	10006be2 <_vsnprintf+0x482>
10006bf8:	464a      	mov	r2, r9
10006bfa:	46a9      	mov	r9, r5
10006bfc:	9d0a      	ldr	r5, [sp, #40]	; 0x28
10006bfe:	e006      	b.n	10006c0e <_vsnprintf+0x4ae>
10006c00:	1c57      	adds	r7, r2, #1
10006c02:	4643      	mov	r3, r8
10006c04:	4659      	mov	r1, fp
10006c06:	2020      	movs	r0, #32
10006c08:	47c8      	blx	r9
10006c0a:	0034      	movs	r4, r6
10006c0c:	003a      	movs	r2, r7
10006c0e:	1c66      	adds	r6, r4, #1
10006c10:	42a5      	cmp	r5, r4
10006c12:	d8f5      	bhi.n	10006c00 <_vsnprintf+0x4a0>
10006c14:	464d      	mov	r5, r9
10006c16:	4691      	mov	r9, r2
10006c18:	e7d7      	b.n	10006bca <_vsnprintf+0x46a>
10006c1a:	9b1c      	ldr	r3, [sp, #112]	; 0x70
10006c1c:	1d1a      	adds	r2, r3, #4
10006c1e:	921c      	str	r2, [sp, #112]	; 0x70
10006c20:	681b      	ldr	r3, [r3, #0]
10006c22:	4699      	mov	r9, r3
10006c24:	4653      	mov	r3, sl
10006c26:	2b00      	cmp	r3, #0
10006c28:	d100      	bne.n	10006c2c <_vsnprintf+0x4cc>
10006c2a:	3b01      	subs	r3, #1
10006c2c:	464e      	mov	r6, r9
10006c2e:	e001      	b.n	10006c34 <_vsnprintf+0x4d4>
10006c30:	3601      	adds	r6, #1
10006c32:	0013      	movs	r3, r2
10006c34:	7832      	ldrb	r2, [r6, #0]
10006c36:	2a00      	cmp	r2, #0
10006c38:	d002      	beq.n	10006c40 <_vsnprintf+0x4e0>
10006c3a:	1e5a      	subs	r2, r3, #1
10006c3c:	2b00      	cmp	r3, #0
10006c3e:	d1f7      	bne.n	10006c30 <_vsnprintf+0x4d0>
10006c40:	464b      	mov	r3, r9
10006c42:	1af2      	subs	r2, r6, r3
10006c44:	9210      	str	r2, [sp, #64]	; 0x40
10006c46:	2380      	movs	r3, #128	; 0x80
10006c48:	00db      	lsls	r3, r3, #3
10006c4a:	0026      	movs	r6, r4
10006c4c:	401e      	ands	r6, r3
10006c4e:	421c      	tst	r4, r3
10006c50:	d003      	beq.n	10006c5a <_vsnprintf+0x4fa>
10006c52:	4552      	cmp	r2, sl
10006c54:	d901      	bls.n	10006c5a <_vsnprintf+0x4fa>
10006c56:	4653      	mov	r3, sl
10006c58:	9310      	str	r3, [sp, #64]	; 0x40
10006c5a:	2302      	movs	r3, #2
10006c5c:	001a      	movs	r2, r3
10006c5e:	4022      	ands	r2, r4
10006c60:	920b      	str	r2, [sp, #44]	; 0x2c
10006c62:	4223      	tst	r3, r4
10006c64:	d005      	beq.n	10006c72 <_vsnprintf+0x512>
10006c66:	003a      	movs	r2, r7
10006c68:	0037      	movs	r7, r6
10006c6a:	464c      	mov	r4, r9
10006c6c:	46a9      	mov	r9, r5
10006c6e:	4655      	mov	r5, sl
10006c70:	e020      	b.n	10006cb4 <_vsnprintf+0x554>
10006c72:	003a      	movs	r2, r7
10006c74:	9b10      	ldr	r3, [sp, #64]	; 0x40
10006c76:	465f      	mov	r7, fp
10006c78:	46b3      	mov	fp, r6
10006c7a:	002e      	movs	r6, r5
10006c7c:	e006      	b.n	10006c8c <_vsnprintf+0x52c>
10006c7e:	1c55      	adds	r5, r2, #1
10006c80:	4643      	mov	r3, r8
10006c82:	0039      	movs	r1, r7
10006c84:	2020      	movs	r0, #32
10006c86:	47b0      	blx	r6
10006c88:	0023      	movs	r3, r4
10006c8a:	002a      	movs	r2, r5
10006c8c:	1c5c      	adds	r4, r3, #1
10006c8e:	990a      	ldr	r1, [sp, #40]	; 0x28
10006c90:	4299      	cmp	r1, r3
10006c92:	d8f4      	bhi.n	10006c7e <_vsnprintf+0x51e>
10006c94:	0035      	movs	r5, r6
10006c96:	465e      	mov	r6, fp
10006c98:	46bb      	mov	fp, r7
10006c9a:	9410      	str	r4, [sp, #64]	; 0x40
10006c9c:	0037      	movs	r7, r6
10006c9e:	464c      	mov	r4, r9
10006ca0:	46a9      	mov	r9, r5
10006ca2:	4655      	mov	r5, sl
10006ca4:	e006      	b.n	10006cb4 <_vsnprintf+0x554>
10006ca6:	001d      	movs	r5, r3
10006ca8:	3401      	adds	r4, #1
10006caa:	1c56      	adds	r6, r2, #1
10006cac:	4643      	mov	r3, r8
10006cae:	4659      	mov	r1, fp
10006cb0:	47c8      	blx	r9
10006cb2:	0032      	movs	r2, r6
10006cb4:	7820      	ldrb	r0, [r4, #0]
10006cb6:	2800      	cmp	r0, #0
10006cb8:	d004      	beq.n	10006cc4 <_vsnprintf+0x564>
10006cba:	2f00      	cmp	r7, #0
10006cbc:	d0f4      	beq.n	10006ca8 <_vsnprintf+0x548>
10006cbe:	1e6b      	subs	r3, r5, #1
10006cc0:	2d00      	cmp	r5, #0
10006cc2:	d1f0      	bne.n	10006ca6 <_vsnprintf+0x546>
10006cc4:	0017      	movs	r7, r2
10006cc6:	464d      	mov	r5, r9
10006cc8:	9b0b      	ldr	r3, [sp, #44]	; 0x2c
10006cca:	2b00      	cmp	r3, #0
10006ccc:	d103      	bne.n	10006cd6 <_vsnprintf+0x576>
10006cce:	9b11      	ldr	r3, [sp, #68]	; 0x44
10006cd0:	3301      	adds	r3, #1
10006cd2:	9311      	str	r3, [sp, #68]	; 0x44
10006cd4:	e554      	b.n	10006780 <_vsnprintf+0x20>
10006cd6:	9f0a      	ldr	r7, [sp, #40]	; 0x28
10006cd8:	9b10      	ldr	r3, [sp, #64]	; 0x40
10006cda:	e006      	b.n	10006cea <_vsnprintf+0x58a>
10006cdc:	1c56      	adds	r6, r2, #1
10006cde:	4643      	mov	r3, r8
10006ce0:	4659      	mov	r1, fp
10006ce2:	2020      	movs	r0, #32
10006ce4:	47a8      	blx	r5
10006ce6:	0023      	movs	r3, r4
10006ce8:	0032      	movs	r2, r6
10006cea:	1c5c      	adds	r4, r3, #1
10006cec:	429f      	cmp	r7, r3
10006cee:	d8f5      	bhi.n	10006cdc <_vsnprintf+0x57c>
10006cf0:	0017      	movs	r7, r2
10006cf2:	e7ec      	b.n	10006cce <_vsnprintf+0x56e>
10006cf4:	2321      	movs	r3, #33	; 0x21
10006cf6:	431c      	orrs	r4, r3
10006cf8:	9b1c      	ldr	r3, [sp, #112]	; 0x70
10006cfa:	1d1a      	adds	r2, r3, #4
10006cfc:	921c      	str	r2, [sp, #112]	; 0x70
10006cfe:	681b      	ldr	r3, [r3, #0]
10006d00:	9300      	str	r3, [sp, #0]
10006d02:	9405      	str	r4, [sp, #20]
10006d04:	2308      	movs	r3, #8
10006d06:	9304      	str	r3, [sp, #16]
10006d08:	4653      	mov	r3, sl
10006d0a:	9303      	str	r3, [sp, #12]
10006d0c:	2310      	movs	r3, #16
10006d0e:	9302      	str	r3, [sp, #8]
10006d10:	2300      	movs	r3, #0
10006d12:	9301      	str	r3, [sp, #4]
10006d14:	4643      	mov	r3, r8
10006d16:	003a      	movs	r2, r7
10006d18:	4659      	mov	r1, fp
10006d1a:	0028      	movs	r0, r5
10006d1c:	f7ff f89c 	bl	10005e58 <_ntoa_long>
10006d20:	0007      	movs	r7, r0
10006d22:	9b11      	ldr	r3, [sp, #68]	; 0x44
10006d24:	3301      	adds	r3, #1
10006d26:	9311      	str	r3, [sp, #68]	; 0x44
10006d28:	e52a      	b.n	10006780 <_vsnprintf+0x20>
10006d2a:	1c7c      	adds	r4, r7, #1
10006d2c:	4643      	mov	r3, r8
10006d2e:	003a      	movs	r2, r7
10006d30:	4659      	mov	r1, fp
10006d32:	2025      	movs	r0, #37	; 0x25
10006d34:	47a8      	blx	r5
10006d36:	9b11      	ldr	r3, [sp, #68]	; 0x44
10006d38:	3301      	adds	r3, #1
10006d3a:	9311      	str	r3, [sp, #68]	; 0x44
10006d3c:	0027      	movs	r7, r4
10006d3e:	e51f      	b.n	10006780 <_vsnprintf+0x20>
10006d40:	1c7c      	adds	r4, r7, #1
10006d42:	4643      	mov	r3, r8
10006d44:	003a      	movs	r2, r7
10006d46:	4659      	mov	r1, fp
10006d48:	47a8      	blx	r5
10006d4a:	9b11      	ldr	r3, [sp, #68]	; 0x44
10006d4c:	3301      	adds	r3, #1
10006d4e:	9311      	str	r3, [sp, #68]	; 0x44
10006d50:	0027      	movs	r7, r4
10006d52:	e515      	b.n	10006780 <_vsnprintf+0x20>
10006d54:	4b0a      	ldr	r3, [pc, #40]	; (10006d80 <_vsnprintf+0x620>)
10006d56:	469a      	mov	sl, r3
10006d58:	e510      	b.n	1000677c <_vsnprintf+0x1c>
10006d5a:	46aa      	mov	sl, r5
10006d5c:	4547      	cmp	r7, r8
10006d5e:	d302      	bcc.n	10006d66 <_vsnprintf+0x606>
10006d60:	4643      	mov	r3, r8
10006d62:	1e5a      	subs	r2, r3, #1
10006d64:	e000      	b.n	10006d68 <_vsnprintf+0x608>
10006d66:	003a      	movs	r2, r7
10006d68:	4643      	mov	r3, r8
10006d6a:	4659      	mov	r1, fp
10006d6c:	2000      	movs	r0, #0
10006d6e:	47d0      	blx	sl
10006d70:	0038      	movs	r0, r7
10006d72:	b013      	add	sp, #76	; 0x4c
10006d74:	bcf0      	pop	{r4, r5, r6, r7}
10006d76:	46bb      	mov	fp, r7
10006d78:	46b2      	mov	sl, r6
10006d7a:	46a9      	mov	r9, r5
10006d7c:	46a0      	mov	r8, r4
10006d7e:	bdf0      	pop	{r4, r5, r6, r7, pc}
10006d80:	10005c65 	.word	0x10005c65

10006d84 <vfctprintf>:
10006d84:	b500      	push	{lr}
10006d86:	b085      	sub	sp, #20
10006d88:	9002      	str	r0, [sp, #8]
10006d8a:	9103      	str	r1, [sp, #12]
10006d8c:	2101      	movs	r1, #1
10006d8e:	9300      	str	r3, [sp, #0]
10006d90:	0013      	movs	r3, r2
10006d92:	424a      	negs	r2, r1
10006d94:	a902      	add	r1, sp, #8
10006d96:	4802      	ldr	r0, [pc, #8]	; (10006da0 <vfctprintf+0x1c>)
10006d98:	f7ff fce2 	bl	10006760 <_vsnprintf>
10006d9c:	b005      	add	sp, #20
10006d9e:	bd00      	pop	{pc}
10006da0:	10005c67 	.word	0x10005c67

10006da4 <__aeabi_bits_init>:
10006da4:	4801      	ldr	r0, [pc, #4]	; (10006dac <__aeabi_bits_init+0x8>)
10006da6:	2104      	movs	r1, #4
10006da8:	4b01      	ldr	r3, [pc, #4]	; (10006db0 <__aeabi_bits_init+0xc>)
10006daa:	4718      	bx	r3
10006dac:	200004a0 	.word	0x200004a0
10006db0:	10006dd5 	.word	0x10006dd5

10006db4 <rom_func_lookup>:
10006db4:	b510      	push	{r4, lr}
10006db6:	0001      	movs	r1, r0
10006db8:	2318      	movs	r3, #24
10006dba:	881b      	ldrh	r3, [r3, #0]
10006dbc:	2214      	movs	r2, #20
10006dbe:	8810      	ldrh	r0, [r2, #0]
10006dc0:	4798      	blx	r3
10006dc2:	bd10      	pop	{r4, pc}

10006dc4 <rom_data_lookup>:
10006dc4:	b510      	push	{r4, lr}
10006dc6:	0001      	movs	r1, r0
10006dc8:	2318      	movs	r3, #24
10006dca:	881b      	ldrh	r3, [r3, #0]
10006dcc:	2216      	movs	r2, #22
10006dce:	8810      	ldrh	r0, [r2, #0]
10006dd0:	4798      	blx	r3
10006dd2:	bd10      	pop	{r4, pc}

10006dd4 <rom_funcs_lookup>:
10006dd4:	b5f0      	push	{r4, r5, r6, r7, lr}
10006dd6:	46c6      	mov	lr, r8
10006dd8:	b500      	push	{lr}
10006dda:	0007      	movs	r7, r0
10006ddc:	000e      	movs	r6, r1
10006dde:	2500      	movs	r5, #0
10006de0:	2301      	movs	r3, #1
10006de2:	4698      	mov	r8, r3
10006de4:	e000      	b.n	10006de8 <rom_funcs_lookup+0x14>
10006de6:	3501      	adds	r5, #1
10006de8:	42b5      	cmp	r5, r6
10006dea:	d20a      	bcs.n	10006e02 <rom_funcs_lookup+0x2e>
10006dec:	00ac      	lsls	r4, r5, #2
10006dee:	193c      	adds	r4, r7, r4
10006df0:	6820      	ldr	r0, [r4, #0]
10006df2:	f7ff ffdf 	bl	10006db4 <rom_func_lookup>
10006df6:	6020      	str	r0, [r4, #0]
10006df8:	2800      	cmp	r0, #0
10006dfa:	d1f4      	bne.n	10006de6 <rom_funcs_lookup+0x12>
10006dfc:	2300      	movs	r3, #0
10006dfe:	4698      	mov	r8, r3
10006e00:	e7f1      	b.n	10006de6 <rom_funcs_lookup+0x12>
10006e02:	4640      	mov	r0, r8
10006e04:	bc80      	pop	{r7}
10006e06:	46b8      	mov	r8, r7
10006e08:	bdf0      	pop	{r4, r5, r6, r7, pc}
	...

10006e0c <__wrap___aeabi_idiv>:
10006e0c:	4a12      	ldr	r2, [pc, #72]	; (10006e58 <divmod_s32s32_savestate+0x18>)
10006e0e:	6f93      	ldr	r3, [r2, #120]	; 0x78
10006e10:	089b      	lsrs	r3, r3, #2
10006e12:	d215      	bcs.n	10006e40 <divmod_s32s32_savestate>

10006e14 <divmod_s32s32_unsafe>:
10006e14:	6690      	str	r0, [r2, #104]	; 0x68
10006e16:	66d1      	str	r1, [r2, #108]	; 0x6c
10006e18:	2900      	cmp	r1, #0
10006e1a:	d005      	beq.n	10006e28 <divmod_s32s32_unsafe+0x14>
10006e1c:	e7ff      	b.n	10006e1e <divmod_s32s32_unsafe+0xa>
10006e1e:	e7ff      	b.n	10006e20 <divmod_s32s32_unsafe+0xc>
10006e20:	e7ff      	b.n	10006e22 <divmod_s32s32_unsafe+0xe>
10006e22:	6f51      	ldr	r1, [r2, #116]	; 0x74
10006e24:	6f10      	ldr	r0, [r2, #112]	; 0x70
10006e26:	4770      	bx	lr
10006e28:	b504      	push	{r2, lr}
10006e2a:	2180      	movs	r1, #128	; 0x80
10006e2c:	0609      	lsls	r1, r1, #24
10006e2e:	17c2      	asrs	r2, r0, #31
10006e30:	4051      	eors	r1, r2
10006e32:	2800      	cmp	r0, #0
10006e34:	d000      	beq.n	10006e38 <divmod_s32s32_unsafe+0x24>
10006e36:	43c8      	mvns	r0, r1
10006e38:	f005 f97e 	bl	1000c138 <____aeabi_idiv0_veneer>
10006e3c:	2100      	movs	r1, #0
10006e3e:	bd04      	pop	{r2, pc}

10006e40 <divmod_s32s32_savestate>:
10006e40:	b5f0      	push	{r4, r5, r6, r7, lr}
10006e42:	6e14      	ldr	r4, [r2, #96]	; 0x60
10006e44:	6e55      	ldr	r5, [r2, #100]	; 0x64
10006e46:	6f57      	ldr	r7, [r2, #116]	; 0x74
10006e48:	6f16      	ldr	r6, [r2, #112]	; 0x70
10006e4a:	f7ff ffe3 	bl	10006e14 <divmod_s32s32_unsafe>
10006e4e:	6614      	str	r4, [r2, #96]	; 0x60
10006e50:	6655      	str	r5, [r2, #100]	; 0x64
10006e52:	6757      	str	r7, [r2, #116]	; 0x74
10006e54:	6716      	str	r6, [r2, #112]	; 0x70
10006e56:	bdf0      	pop	{r4, r5, r6, r7, pc}
10006e58:	d0000000 	.word	0xd0000000

10006e5c <__wrap___aeabi_uidiv>:
10006e5c:	4a11      	ldr	r2, [pc, #68]	; (10006ea4 <divmod_u32u32_savestate+0x18>)
10006e5e:	6f93      	ldr	r3, [r2, #120]	; 0x78
10006e60:	089b      	lsrs	r3, r3, #2
10006e62:	d213      	bcs.n	10006e8c <divmod_u32u32_savestate>

10006e64 <divmod_u32u32_unsafe>:
10006e64:	6610      	str	r0, [r2, #96]	; 0x60
10006e66:	6651      	str	r1, [r2, #100]	; 0x64
10006e68:	2900      	cmp	r1, #0
10006e6a:	d005      	beq.n	10006e78 <divmod_u32u32_unsafe+0x14>
10006e6c:	e7ff      	b.n	10006e6e <divmod_u32u32_unsafe+0xa>
10006e6e:	e7ff      	b.n	10006e70 <divmod_u32u32_unsafe+0xc>
10006e70:	e7ff      	b.n	10006e72 <divmod_u32u32_unsafe+0xe>
10006e72:	6f51      	ldr	r1, [r2, #116]	; 0x74
10006e74:	6f10      	ldr	r0, [r2, #112]	; 0x70
10006e76:	4770      	bx	lr
10006e78:	b504      	push	{r2, lr}
10006e7a:	2800      	cmp	r0, #0
10006e7c:	d001      	beq.n	10006e82 <divmod_u32u32_unsafe+0x1e>
10006e7e:	2000      	movs	r0, #0
10006e80:	43c0      	mvns	r0, r0
10006e82:	f005 f959 	bl	1000c138 <____aeabi_idiv0_veneer>
10006e86:	2100      	movs	r1, #0
10006e88:	bd04      	pop	{r2, pc}
10006e8a:	46c0      	nop			; (mov r8, r8)

10006e8c <divmod_u32u32_savestate>:
10006e8c:	b5f0      	push	{r4, r5, r6, r7, lr}
10006e8e:	6e14      	ldr	r4, [r2, #96]	; 0x60
10006e90:	6e55      	ldr	r5, [r2, #100]	; 0x64
10006e92:	6f57      	ldr	r7, [r2, #116]	; 0x74
10006e94:	6f16      	ldr	r6, [r2, #112]	; 0x70
10006e96:	f7ff ffe5 	bl	10006e64 <divmod_u32u32_unsafe>
10006e9a:	6614      	str	r4, [r2, #96]	; 0x60
10006e9c:	6655      	str	r5, [r2, #100]	; 0x64
10006e9e:	6757      	str	r7, [r2, #116]	; 0x74
10006ea0:	6716      	str	r6, [r2, #112]	; 0x70
10006ea2:	bdf0      	pop	{r4, r5, r6, r7, pc}
10006ea4:	d0000000 	.word	0xd0000000

10006ea8 <__wrap___aeabi_ldivmod>:
10006ea8:	4694      	mov	ip, r2
10006eaa:	4a4e      	ldr	r2, [pc, #312]	; (10006fe4 <udiv0+0x1a>)
10006eac:	6f92      	ldr	r2, [r2, #120]	; 0x78
10006eae:	0892      	lsrs	r2, r2, #2
10006eb0:	4662      	mov	r2, ip
10006eb2:	d201      	bcs.n	10006eb8 <divmod_s64s64_savestate>
10006eb4:	e030      	b.n	10006f18 <divmod_s64s64_unsafe>
10006eb6:	46c0      	nop			; (mov r8, r8)

10006eb8 <divmod_s64s64_savestate>:
10006eb8:	b5f0      	push	{r4, r5, r6, r7, lr}
10006eba:	4e4a      	ldr	r6, [pc, #296]	; (10006fe4 <udiv0+0x1a>)
10006ebc:	6fb5      	ldr	r5, [r6, #120]	; 0x78
10006ebe:	086d      	lsrs	r5, r5, #1
10006ec0:	d3fc      	bcc.n	10006ebc <divmod_s64s64_savestate+0x4>
10006ec2:	6e34      	ldr	r4, [r6, #96]	; 0x60
10006ec4:	6e75      	ldr	r5, [r6, #100]	; 0x64
10006ec6:	6f77      	ldr	r7, [r6, #116]	; 0x74
10006ec8:	6f36      	ldr	r6, [r6, #112]	; 0x70
10006eca:	f000 f825 	bl	10006f18 <divmod_s64s64_unsafe>
10006ece:	4694      	mov	ip, r2
10006ed0:	4a44      	ldr	r2, [pc, #272]	; (10006fe4 <udiv0+0x1a>)
10006ed2:	6614      	str	r4, [r2, #96]	; 0x60
10006ed4:	6655      	str	r5, [r2, #100]	; 0x64
10006ed6:	6757      	str	r7, [r2, #116]	; 0x74
10006ed8:	6716      	str	r6, [r2, #112]	; 0x70
10006eda:	4662      	mov	r2, ip
10006edc:	bdf0      	pop	{r4, r5, r6, r7, pc}
10006ede:	46c0      	nop			; (mov r8, r8)

10006ee0 <__wrap___aeabi_uldivmod>:
10006ee0:	4694      	mov	ip, r2
10006ee2:	4a40      	ldr	r2, [pc, #256]	; (10006fe4 <udiv0+0x1a>)
10006ee4:	6f92      	ldr	r2, [r2, #120]	; 0x78
10006ee6:	0892      	lsrs	r2, r2, #2
10006ee8:	4662      	mov	r2, ip
10006eea:	d201      	bcs.n	10006ef0 <divmod_u64u64_savestate>
10006eec:	e058      	b.n	10006fa0 <divmod_u64u64_unsafe>
10006eee:	46c0      	nop			; (mov r8, r8)

10006ef0 <divmod_u64u64_savestate>:
10006ef0:	b5f0      	push	{r4, r5, r6, r7, lr}
10006ef2:	4e3c      	ldr	r6, [pc, #240]	; (10006fe4 <udiv0+0x1a>)
10006ef4:	6fb5      	ldr	r5, [r6, #120]	; 0x78
10006ef6:	086d      	lsrs	r5, r5, #1
10006ef8:	d3fc      	bcc.n	10006ef4 <divmod_u64u64_savestate+0x4>
10006efa:	6e34      	ldr	r4, [r6, #96]	; 0x60
10006efc:	6e75      	ldr	r5, [r6, #100]	; 0x64
10006efe:	6f77      	ldr	r7, [r6, #116]	; 0x74
10006f00:	6f36      	ldr	r6, [r6, #112]	; 0x70
10006f02:	f000 f84d 	bl	10006fa0 <divmod_u64u64_unsafe>
10006f06:	4694      	mov	ip, r2
10006f08:	4a36      	ldr	r2, [pc, #216]	; (10006fe4 <udiv0+0x1a>)
10006f0a:	6614      	str	r4, [r2, #96]	; 0x60
10006f0c:	6655      	str	r5, [r2, #100]	; 0x64
10006f0e:	6757      	str	r7, [r2, #116]	; 0x74
10006f10:	6716      	str	r6, [r2, #112]	; 0x70
10006f12:	4662      	mov	r2, ip
10006f14:	bdf0      	pop	{r4, r5, r6, r7, pc}
10006f16:	46c0      	nop			; (mov r8, r8)

10006f18 <divmod_s64s64_unsafe>:
10006f18:	2b00      	cmp	r3, #0
10006f1a:	db24      	blt.n	10006f66 <l41_1+0x26>
10006f1c:	d011      	beq.n	10006f42 <l41_1+0x2>
10006f1e:	2900      	cmp	r1, #0
10006f20:	da3e      	bge.n	10006fa0 <divmod_u64u64_unsafe>
10006f22:	b500      	push	{lr}
10006f24:	43c9      	mvns	r1, r1
10006f26:	4240      	negs	r0, r0
10006f28:	d100      	bne.n	10006f2c <l39_1>
10006f2a:	3101      	adds	r1, #1

10006f2c <l39_1>:
10006f2c:	f000 f838 	bl	10006fa0 <divmod_u64u64_unsafe>
10006f30:	43c9      	mvns	r1, r1
10006f32:	4240      	negs	r0, r0
10006f34:	d100      	bne.n	10006f38 <l40_1>
10006f36:	3101      	adds	r1, #1

10006f38 <l40_1>:
10006f38:	43db      	mvns	r3, r3
10006f3a:	4252      	negs	r2, r2
10006f3c:	d100      	bne.n	10006f40 <l41_1>
10006f3e:	3301      	adds	r3, #1

10006f40 <l41_1>:
10006f40:	bd00      	pop	{pc}
10006f42:	2a00      	cmp	r2, #0
10006f44:	d1eb      	bne.n	10006f1e <divmod_s64s64_unsafe+0x6>
10006f46:	2800      	cmp	r0, #0
10006f48:	d101      	bne.n	10006f4e <l41_1+0xe>
10006f4a:	2900      	cmp	r1, #0
10006f4c:	d005      	beq.n	10006f5a <l41_1+0x1a>
10006f4e:	2000      	movs	r0, #0
10006f50:	0fc9      	lsrs	r1, r1, #31
10006f52:	07c9      	lsls	r1, r1, #31
10006f54:	d101      	bne.n	10006f5a <l41_1+0x1a>
10006f56:	43c0      	mvns	r0, r0
10006f58:	0841      	lsrs	r1, r0, #1
10006f5a:	b500      	push	{lr}
10006f5c:	f005 f8e4 	bl	1000c128 <____aeabi_ldiv0_veneer>
10006f60:	2200      	movs	r2, #0
10006f62:	2300      	movs	r3, #0
10006f64:	bd00      	pop	{pc}
10006f66:	b500      	push	{lr}
10006f68:	2900      	cmp	r1, #0
10006f6a:	db0a      	blt.n	10006f82 <l43_1+0x2>
10006f6c:	43db      	mvns	r3, r3
10006f6e:	4252      	negs	r2, r2
10006f70:	d100      	bne.n	10006f74 <l42_1>
10006f72:	3301      	adds	r3, #1

10006f74 <l42_1>:
10006f74:	f000 f814 	bl	10006fa0 <divmod_u64u64_unsafe>
10006f78:	43c9      	mvns	r1, r1
10006f7a:	4240      	negs	r0, r0
10006f7c:	d100      	bne.n	10006f80 <l43_1>
10006f7e:	3101      	adds	r1, #1

10006f80 <l43_1>:
10006f80:	bd00      	pop	{pc}
10006f82:	43c9      	mvns	r1, r1
10006f84:	4240      	negs	r0, r0
10006f86:	d100      	bne.n	10006f8a <l44_1>
10006f88:	3101      	adds	r1, #1

10006f8a <l44_1>:
10006f8a:	43db      	mvns	r3, r3
10006f8c:	4252      	negs	r2, r2
10006f8e:	d100      	bne.n	10006f92 <l45_1>
10006f90:	3301      	adds	r3, #1

10006f92 <l45_1>:
10006f92:	f000 f805 	bl	10006fa0 <divmod_u64u64_unsafe>
10006f96:	43db      	mvns	r3, r3
10006f98:	4252      	negs	r2, r2
10006f9a:	d100      	bne.n	10006f9e <l46_1>
10006f9c:	3301      	adds	r3, #1

10006f9e <l46_1>:
10006f9e:	bd00      	pop	{pc}

10006fa0 <divmod_u64u64_unsafe>:
10006fa0:	2900      	cmp	r1, #0
10006fa2:	d123      	bne.n	10006fec <y64>
10006fa4:	2b00      	cmp	r3, #0
10006fa6:	d118      	bne.n	10006fda <udiv0+0x10>
10006fa8:	2a00      	cmp	r2, #0
10006faa:	d00c      	beq.n	10006fc6 <divmod_u64u64_unsafe+0x26>
10006fac:	46bc      	mov	ip, r7
10006fae:	4f0d      	ldr	r7, [pc, #52]	; (10006fe4 <udiv0+0x1a>)
10006fb0:	6638      	str	r0, [r7, #96]	; 0x60
10006fb2:	667a      	str	r2, [r7, #100]	; 0x64
10006fb4:	2100      	movs	r1, #0
10006fb6:	2300      	movs	r3, #0
10006fb8:	e7ff      	b.n	10006fba <divmod_u64u64_unsafe+0x1a>
10006fba:	e7ff      	b.n	10006fbc <divmod_u64u64_unsafe+0x1c>
10006fbc:	e7ff      	b.n	10006fbe <divmod_u64u64_unsafe+0x1e>
10006fbe:	6f7a      	ldr	r2, [r7, #116]	; 0x74
10006fc0:	6f38      	ldr	r0, [r7, #112]	; 0x70
10006fc2:	4667      	mov	r7, ip
10006fc4:	4770      	bx	lr
10006fc6:	2800      	cmp	r0, #0
10006fc8:	d001      	beq.n	10006fce <udiv0+0x4>

10006fca <udiv0>:
10006fca:	4807      	ldr	r0, [pc, #28]	; (10006fe8 <udiv0+0x1e>)
10006fcc:	0001      	movs	r1, r0
10006fce:	b500      	push	{lr}
10006fd0:	f005 f8aa 	bl	1000c128 <____aeabi_ldiv0_veneer>
10006fd4:	2200      	movs	r2, #0
10006fd6:	2300      	movs	r3, #0
10006fd8:	bd00      	pop	{pc}
10006fda:	0002      	movs	r2, r0
10006fdc:	000b      	movs	r3, r1
10006fde:	2000      	movs	r0, #0
10006fe0:	2100      	movs	r1, #0
10006fe2:	4770      	bx	lr
10006fe4:	d0000000 	.word	0xd0000000
10006fe8:	ffffffff 	.word	0xffffffff

10006fec <y64>:
10006fec:	2b00      	cmp	r3, #0
10006fee:	d000      	beq.n	10006ff2 <y64+0x6>
10006ff0:	e0bf      	b.n	10007172 <y64_x48>
10006ff2:	0c13      	lsrs	r3, r2, #16
10006ff4:	d128      	bne.n	10007048 <y64_x32>
10006ff6:	2a00      	cmp	r2, #0
10006ff8:	d0e7      	beq.n	10006fca <udiv0>
10006ffa:	b480      	push	{r7}
10006ffc:	4f11      	ldr	r7, [pc, #68]	; (10007044 <y64+0x58>)
10006ffe:	6639      	str	r1, [r7, #96]	; 0x60
10007000:	667a      	str	r2, [r7, #100]	; 0x64
10007002:	e7ff      	b.n	10007004 <y64+0x18>
10007004:	e7ff      	b.n	10007006 <y64+0x1a>
10007006:	b430      	push	{r4, r5}
10007008:	0c04      	lsrs	r4, r0, #16
1000700a:	6f7b      	ldr	r3, [r7, #116]	; 0x74
1000700c:	6f39      	ldr	r1, [r7, #112]	; 0x70
1000700e:	041b      	lsls	r3, r3, #16
10007010:	4323      	orrs	r3, r4
10007012:	663b      	str	r3, [r7, #96]	; 0x60
10007014:	667a      	str	r2, [r7, #100]	; 0x64
10007016:	e7ff      	b.n	10007018 <y64+0x2c>
10007018:	e7ff      	b.n	1000701a <y64+0x2e>
1000701a:	e7ff      	b.n	1000701c <y64+0x30>
1000701c:	46c0      	nop			; (mov r8, r8)
1000701e:	b284      	uxth	r4, r0
10007020:	6f7b      	ldr	r3, [r7, #116]	; 0x74
10007022:	6f3d      	ldr	r5, [r7, #112]	; 0x70
10007024:	041b      	lsls	r3, r3, #16
10007026:	4323      	orrs	r3, r4
10007028:	663b      	str	r3, [r7, #96]	; 0x60
1000702a:	667a      	str	r2, [r7, #100]	; 0x64
1000702c:	e7ff      	b.n	1000702e <y64+0x42>
1000702e:	e7ff      	b.n	10007030 <y64+0x44>
10007030:	46c0      	nop			; (mov r8, r8)
10007032:	2300      	movs	r3, #0
10007034:	042c      	lsls	r4, r5, #16
10007036:	0c2d      	lsrs	r5, r5, #16
10007038:	6f7a      	ldr	r2, [r7, #116]	; 0x74
1000703a:	6f38      	ldr	r0, [r7, #112]	; 0x70
1000703c:	1900      	adds	r0, r0, r4
1000703e:	4169      	adcs	r1, r5
10007040:	bcb0      	pop	{r4, r5, r7}
10007042:	4770      	bx	lr
10007044:	d0000000 	.word	0xd0000000

10007048 <y64_x32>:
10007048:	b5f0      	push	{r4, r5, r6, r7, lr}
1000704a:	4694      	mov	ip, r2
1000704c:	2500      	movs	r5, #0
1000704e:	0e14      	lsrs	r4, r2, #24
10007050:	d101      	bne.n	10007056 <y64_x32+0xe>
10007052:	0212      	lsls	r2, r2, #8
10007054:	3508      	adds	r5, #8
10007056:	0f14      	lsrs	r4, r2, #28
10007058:	d101      	bne.n	1000705e <y64_x32+0x16>
1000705a:	0112      	lsls	r2, r2, #4
1000705c:	3504      	adds	r5, #4
1000705e:	0f94      	lsrs	r4, r2, #30
10007060:	d101      	bne.n	10007066 <y64_x32+0x1e>
10007062:	0092      	lsls	r2, r2, #2
10007064:	3502      	adds	r5, #2
10007066:	0fd4      	lsrs	r4, r2, #31
10007068:	d101      	bne.n	1000706e <y64_x32+0x26>
1000706a:	0052      	lsls	r2, r2, #1
1000706c:	3501      	adds	r5, #1
1000706e:	0bd4      	lsrs	r4, r2, #15
10007070:	3401      	adds	r4, #1
10007072:	4f25      	ldr	r7, [pc, #148]	; (10007108 <y64_x32+0xc0>)
10007074:	667c      	str	r4, [r7, #100]	; 0x64
10007076:	4c25      	ldr	r4, [pc, #148]	; (1000710c <y64_x32+0xc4>)
10007078:	663c      	str	r4, [r7, #96]	; 0x60
1000707a:	0c0e      	lsrs	r6, r1, #16
1000707c:	b293      	uxth	r3, r2
1000707e:	e7ff      	b.n	10007080 <y64_x32+0x38>
10007080:	e7ff      	b.n	10007082 <y64_x32+0x3a>
10007082:	e7ff      	b.n	10007084 <y64_x32+0x3c>
10007084:	6f3c      	ldr	r4, [r7, #112]	; 0x70
10007086:	4366      	muls	r6, r4
10007088:	0c36      	lsrs	r6, r6, #16
1000708a:	0377      	lsls	r7, r6, #13
1000708c:	46be      	mov	lr, r7
1000708e:	4373      	muls	r3, r6
10007090:	0bdf      	lsrs	r7, r3, #15
10007092:	045b      	lsls	r3, r3, #17
10007094:	1ac0      	subs	r0, r0, r3
10007096:	41b9      	sbcs	r1, r7
10007098:	0c13      	lsrs	r3, r2, #16
1000709a:	4373      	muls	r3, r6
1000709c:	18db      	adds	r3, r3, r3
1000709e:	1ac9      	subs	r1, r1, r3
100070a0:	08ce      	lsrs	r6, r1, #3
100070a2:	4366      	muls	r6, r4
100070a4:	0c36      	lsrs	r6, r6, #16
100070a6:	44b6      	add	lr, r6
100070a8:	b293      	uxth	r3, r2
100070aa:	4373      	muls	r3, r6
100070ac:	0f1f      	lsrs	r7, r3, #28
100070ae:	011b      	lsls	r3, r3, #4
100070b0:	1ac0      	subs	r0, r0, r3
100070b2:	41b9      	sbcs	r1, r7
100070b4:	0c13      	lsrs	r3, r2, #16
100070b6:	4373      	muls	r3, r6
100070b8:	0b1f      	lsrs	r7, r3, #12
100070ba:	051b      	lsls	r3, r3, #20
100070bc:	1ac0      	subs	r0, r0, r3
100070be:	41b9      	sbcs	r1, r7
100070c0:	0d86      	lsrs	r6, r0, #22
100070c2:	028f      	lsls	r7, r1, #10
100070c4:	433e      	orrs	r6, r7
100070c6:	4366      	muls	r6, r4
100070c8:	0c36      	lsrs	r6, r6, #16
100070ca:	2d09      	cmp	r5, #9
100070cc:	db24      	blt.n	10007118 <last0>
100070ce:	0a52      	lsrs	r2, r2, #9
100070d0:	4372      	muls	r2, r6
100070d2:	1a80      	subs	r0, r0, r2
100070d4:	0377      	lsls	r7, r6, #13
100070d6:	0a46      	lsrs	r6, r0, #9
100070d8:	4366      	muls	r6, r4
100070da:	0c36      	lsrs	r6, r6, #16
100070dc:	2316      	movs	r3, #22
100070de:	1b5b      	subs	r3, r3, r5
100070e0:	40de      	lsrs	r6, r3
100070e2:	40df      	lsrs	r7, r3
100070e4:	19bf      	adds	r7, r7, r6
100070e6:	4664      	mov	r4, ip
100070e8:	4366      	muls	r6, r4
100070ea:	1b82      	subs	r2, r0, r6
100070ec:	4670      	mov	r0, lr
100070ee:	3504      	adds	r5, #4
100070f0:	3306      	adds	r3, #6
100070f2:	0001      	movs	r1, r0
100070f4:	40d9      	lsrs	r1, r3
100070f6:	40a8      	lsls	r0, r5
100070f8:	19c0      	adds	r0, r0, r7
100070fa:	d300      	bcc.n	100070fe <y64_x32+0xb6>
100070fc:	3101      	adds	r1, #1
100070fe:	42a2      	cmp	r2, r4
10007100:	d206      	bcs.n	10007110 <y64_x32+0xc8>
10007102:	2300      	movs	r3, #0
10007104:	bdf0      	pop	{r4, r5, r6, r7, pc}
10007106:	0000      	.short	0x0000
10007108:	d0000000 	.word	0xd0000000
1000710c:	ffffffff 	.word	0xffffffff
10007110:	1b12      	subs	r2, r2, r4
10007112:	3001      	adds	r0, #1
10007114:	d3f3      	bcc.n	100070fe <y64_x32+0xb6>
10007116:	e7f1      	b.n	100070fc <y64_x32+0xb4>

10007118 <last0>:
10007118:	2709      	movs	r7, #9
1000711a:	1b7f      	subs	r7, r7, r5
1000711c:	40fe      	lsrs	r6, r7
1000711e:	4664      	mov	r4, ip
10007120:	b2a2      	uxth	r2, r4
10007122:	4372      	muls	r2, r6
10007124:	1a80      	subs	r0, r0, r2
10007126:	d200      	bcs.n	1000712a <last0+0x12>
10007128:	3901      	subs	r1, #1
1000712a:	0c22      	lsrs	r2, r4, #16
1000712c:	4372      	muls	r2, r6
1000712e:	0c13      	lsrs	r3, r2, #16
10007130:	0412      	lsls	r2, r2, #16
10007132:	1a82      	subs	r2, r0, r2
10007134:	4199      	sbcs	r1, r3
10007136:	000b      	movs	r3, r1
10007138:	4670      	mov	r0, lr
1000713a:	3504      	adds	r5, #4
1000713c:	3713      	adds	r7, #19
1000713e:	0001      	movs	r1, r0
10007140:	40f9      	lsrs	r1, r7
10007142:	40a8      	lsls	r0, r5
10007144:	1980      	adds	r0, r0, r6
10007146:	d300      	bcc.n	1000714a <last0+0x32>
10007148:	3101      	adds	r1, #1
1000714a:	2b00      	cmp	r3, #0
1000714c:	d102      	bne.n	10007154 <last0+0x3c>
1000714e:	42a2      	cmp	r2, r4
10007150:	d20a      	bcs.n	10007168 <last0+0x50>
10007152:	bdf0      	pop	{r4, r5, r6, r7, pc}
10007154:	3001      	adds	r0, #1
10007156:	d300      	bcc.n	1000715a <last0+0x42>
10007158:	3101      	adds	r1, #1
1000715a:	1b12      	subs	r2, r2, r4
1000715c:	d2fa      	bcs.n	10007154 <last0+0x3c>
1000715e:	3b01      	subs	r3, #1
10007160:	d1f8      	bne.n	10007154 <last0+0x3c>
10007162:	42a2      	cmp	r2, r4
10007164:	d200      	bcs.n	10007168 <last0+0x50>
10007166:	bdf0      	pop	{r4, r5, r6, r7, pc}
10007168:	3001      	adds	r0, #1
1000716a:	d300      	bcc.n	1000716e <last0+0x56>
1000716c:	3101      	adds	r1, #1
1000716e:	1b12      	subs	r2, r2, r4
10007170:	e7f7      	b.n	10007162 <last0+0x4a>

10007172 <y64_x48>:
10007172:	b5f0      	push	{r4, r5, r6, r7, lr}
10007174:	0c1c      	lsrs	r4, r3, #16
10007176:	d000      	beq.n	1000717a <y64_x48+0x8>
10007178:	e080      	b.n	1000727c <y64_x64>
1000717a:	b40c      	push	{r2, r3}
1000717c:	2500      	movs	r5, #0
1000717e:	0a1c      	lsrs	r4, r3, #8
10007180:	d104      	bne.n	1000718c <y64_x48+0x1a>
10007182:	021b      	lsls	r3, r3, #8
10007184:	0e16      	lsrs	r6, r2, #24
10007186:	4333      	orrs	r3, r6
10007188:	0212      	lsls	r2, r2, #8
1000718a:	3508      	adds	r5, #8
1000718c:	0b1c      	lsrs	r4, r3, #12
1000718e:	d104      	bne.n	1000719a <y64_x48+0x28>
10007190:	011b      	lsls	r3, r3, #4
10007192:	0f16      	lsrs	r6, r2, #28
10007194:	4333      	orrs	r3, r6
10007196:	0112      	lsls	r2, r2, #4
10007198:	3504      	adds	r5, #4
1000719a:	0b9c      	lsrs	r4, r3, #14
1000719c:	d104      	bne.n	100071a8 <y64_x48+0x36>
1000719e:	009b      	lsls	r3, r3, #2
100071a0:	0f96      	lsrs	r6, r2, #30
100071a2:	4333      	orrs	r3, r6
100071a4:	0092      	lsls	r2, r2, #2
100071a6:	3502      	adds	r5, #2
100071a8:	0bdc      	lsrs	r4, r3, #15
100071aa:	d102      	bne.n	100071b2 <y64_x48+0x40>
100071ac:	1892      	adds	r2, r2, r2
100071ae:	415b      	adcs	r3, r3
100071b0:	3501      	adds	r5, #1
100071b2:	001c      	movs	r4, r3
100071b4:	1897      	adds	r7, r2, r2
100071b6:	4164      	adcs	r4, r4
100071b8:	3401      	adds	r4, #1
100071ba:	4f46      	ldr	r7, [pc, #280]	; (100072d4 <y64_x64+0x58>)
100071bc:	667c      	str	r4, [r7, #100]	; 0x64
100071be:	4c46      	ldr	r4, [pc, #280]	; (100072d8 <y64_x64+0x5c>)
100071c0:	663c      	str	r4, [r7, #96]	; 0x60
100071c2:	0c0e      	lsrs	r6, r1, #16
100071c4:	e7ff      	b.n	100071c6 <y64_x48+0x54>
100071c6:	e7ff      	b.n	100071c8 <y64_x48+0x56>
100071c8:	e7ff      	b.n	100071ca <y64_x48+0x58>
100071ca:	46c0      	nop			; (mov r8, r8)
100071cc:	6f3c      	ldr	r4, [r7, #112]	; 0x70
100071ce:	4366      	muls	r6, r4
100071d0:	0c36      	lsrs	r6, r6, #16
100071d2:	0377      	lsls	r7, r6, #13
100071d4:	46be      	mov	lr, r7
100071d6:	b297      	uxth	r7, r2
100071d8:	4377      	muls	r7, r6
100071da:	1bc0      	subs	r0, r0, r7
100071dc:	d200      	bcs.n	100071e0 <y64_x48+0x6e>
100071de:	3901      	subs	r1, #1
100071e0:	1bc0      	subs	r0, r0, r7
100071e2:	d200      	bcs.n	100071e6 <y64_x48+0x74>
100071e4:	3901      	subs	r1, #1
100071e6:	b29f      	uxth	r7, r3
100071e8:	4377      	muls	r7, r6
100071ea:	1bc9      	subs	r1, r1, r7
100071ec:	1bc9      	subs	r1, r1, r7
100071ee:	0c17      	lsrs	r7, r2, #16
100071f0:	4377      	muls	r7, r6
100071f2:	047e      	lsls	r6, r7, #17
100071f4:	0bff      	lsrs	r7, r7, #15
100071f6:	1b80      	subs	r0, r0, r6
100071f8:	41b9      	sbcs	r1, r7
100071fa:	08ce      	lsrs	r6, r1, #3
100071fc:	4366      	muls	r6, r4
100071fe:	0c36      	lsrs	r6, r6, #16
10007200:	2d0c      	cmp	r5, #12
10007202:	db33      	blt.n	1000726c <last1>
10007204:	44b6      	add	lr, r6
10007206:	0b12      	lsrs	r2, r2, #12
10007208:	051f      	lsls	r7, r3, #20
1000720a:	433a      	orrs	r2, r7
1000720c:	0b1b      	lsrs	r3, r3, #12
1000720e:	b297      	uxth	r7, r2
10007210:	4377      	muls	r7, r6
10007212:	1bc0      	subs	r0, r0, r7
10007214:	d200      	bcs.n	10007218 <y64_x48+0xa6>
10007216:	3901      	subs	r1, #1
10007218:	b29f      	uxth	r7, r3
1000721a:	4377      	muls	r7, r6
1000721c:	1bc9      	subs	r1, r1, r7
1000721e:	0c17      	lsrs	r7, r2, #16
10007220:	4377      	muls	r7, r6
10007222:	043e      	lsls	r6, r7, #16
10007224:	0c3f      	lsrs	r7, r7, #16
10007226:	1b80      	subs	r0, r0, r6
10007228:	41b9      	sbcs	r1, r7
1000722a:	0d86      	lsrs	r6, r0, #22
1000722c:	028f      	lsls	r7, r1, #10
1000722e:	433e      	orrs	r6, r7
10007230:	4366      	muls	r6, r4
10007232:	2729      	movs	r7, #41	; 0x29
10007234:	1b7f      	subs	r7, r7, r5
10007236:	40fe      	lsrs	r6, r7
10007238:	3d0c      	subs	r5, #12
1000723a:	4677      	mov	r7, lr
1000723c:	40af      	lsls	r7, r5
1000723e:	19bf      	adds	r7, r7, r6
10007240:	bc30      	pop	{r4, r5}
10007242:	b2a2      	uxth	r2, r4
10007244:	b2ab      	uxth	r3, r5
10007246:	4372      	muls	r2, r6
10007248:	4373      	muls	r3, r6
1000724a:	1a80      	subs	r0, r0, r2
1000724c:	4199      	sbcs	r1, r3
1000724e:	0c22      	lsrs	r2, r4, #16
10007250:	4372      	muls	r2, r6
10007252:	0c13      	lsrs	r3, r2, #16
10007254:	0412      	lsls	r2, r2, #16
10007256:	1a80      	subs	r0, r0, r2
10007258:	4199      	sbcs	r1, r3
1000725a:	0002      	movs	r2, r0
1000725c:	000b      	movs	r3, r1
1000725e:	3701      	adds	r7, #1
10007260:	1b00      	subs	r0, r0, r4
10007262:	41a9      	sbcs	r1, r5
10007264:	d2f9      	bcs.n	1000725a <y64_x48+0xe8>
10007266:	1e78      	subs	r0, r7, #1
10007268:	2100      	movs	r1, #0
1000726a:	bdf0      	pop	{r4, r5, r6, r7, pc}

1000726c <last1>:
1000726c:	270c      	movs	r7, #12
1000726e:	1b7f      	subs	r7, r7, r5
10007270:	40fe      	lsrs	r6, r7
10007272:	4677      	mov	r7, lr
10007274:	0b7f      	lsrs	r7, r7, #13
10007276:	40af      	lsls	r7, r5
10007278:	19ff      	adds	r7, r7, r7
1000727a:	e7e0      	b.n	1000723e <y64_x48+0xcc>

1000727c <y64_x64>:
1000727c:	2400      	movs	r4, #0
1000727e:	1c5d      	adds	r5, r3, #1
10007280:	d007      	beq.n	10007292 <y64_x64+0x16>
10007282:	4f14      	ldr	r7, [pc, #80]	; (100072d4 <y64_x64+0x58>)
10007284:	667d      	str	r5, [r7, #100]	; 0x64
10007286:	6639      	str	r1, [r7, #96]	; 0x60
10007288:	e7ff      	b.n	1000728a <y64_x64+0xe>
1000728a:	e7ff      	b.n	1000728c <y64_x64+0x10>
1000728c:	e7ff      	b.n	1000728e <y64_x64+0x12>
1000728e:	e7ff      	b.n	10007290 <y64_x64+0x14>
10007290:	6f3c      	ldr	r4, [r7, #112]	; 0x70
10007292:	b295      	uxth	r5, r2
10007294:	b29e      	uxth	r6, r3
10007296:	4365      	muls	r5, r4
10007298:	4366      	muls	r6, r4
1000729a:	1b40      	subs	r0, r0, r5
1000729c:	41b1      	sbcs	r1, r6
1000729e:	0c15      	lsrs	r5, r2, #16
100072a0:	0c1e      	lsrs	r6, r3, #16
100072a2:	4365      	muls	r5, r4
100072a4:	4366      	muls	r6, r4
100072a6:	0436      	lsls	r6, r6, #16
100072a8:	0c2f      	lsrs	r7, r5, #16
100072aa:	433e      	orrs	r6, r7
100072ac:	042d      	lsls	r5, r5, #16
100072ae:	1b40      	subs	r0, r0, r5
100072b0:	41b1      	sbcs	r1, r6
100072b2:	4299      	cmp	r1, r3
100072b4:	d204      	bcs.n	100072c0 <y64_x64+0x44>
100072b6:	0002      	movs	r2, r0
100072b8:	000b      	movs	r3, r1
100072ba:	0020      	movs	r0, r4
100072bc:	2100      	movs	r1, #0
100072be:	bdf0      	pop	{r4, r5, r6, r7, pc}
100072c0:	d101      	bne.n	100072c6 <y64_x64+0x4a>
100072c2:	4290      	cmp	r0, r2
100072c4:	d3f7      	bcc.n	100072b6 <y64_x64+0x3a>
100072c6:	1a80      	subs	r0, r0, r2
100072c8:	4199      	sbcs	r1, r3
100072ca:	3401      	adds	r4, #1
100072cc:	4299      	cmp	r1, r3
100072ce:	d3f2      	bcc.n	100072b6 <y64_x64+0x3a>
100072d0:	e7f6      	b.n	100072c0 <y64_x64+0x44>
100072d2:	0000      	.short	0x0000
100072d4:	d0000000 	.word	0xd0000000
100072d8:	ffffffff 	.word	0xffffffff

100072dc <__wrap___aeabi_drsub>:
100072dc:	4048      	eors	r0, r1
100072de:	4041      	eors	r1, r0
100072e0:	4048      	eors	r0, r1

100072e2 <__wrap___aeabi_dsub>:
100072e2:	b418      	push	{r3, r4}
100072e4:	4b1b      	ldr	r3, [pc, #108]	; (10007354 <__wrap___aeabi_dmul+0x12>)
100072e6:	685b      	ldr	r3, [r3, #4]
100072e8:	46fc      	mov	ip, pc
100072ea:	9301      	str	r3, [sp, #4]
100072ec:	bd08      	pop	{r3, pc}
100072ee:	df04      	.short	0xdf04
100072f0:	100075b7 	.word	0x100075b7

100072f4 <__wrap___aeabi_dadd>:
100072f4:	b418      	push	{r3, r4}
100072f6:	4b17      	ldr	r3, [pc, #92]	; (10007354 <__wrap___aeabi_dmul+0x12>)
100072f8:	681b      	ldr	r3, [r3, #0]
100072fa:	46fc      	mov	ip, pc
100072fc:	9301      	str	r3, [sp, #4]
100072fe:	bd08      	pop	{r3, pc}
10007300:	75c1df00 	.word	0x75c1df00
10007304:	1000      	.short	0x1000

10007306 <__wrap___aeabi_ddiv>:
10007306:	4694      	mov	ip, r2
10007308:	4a13      	ldr	r2, [pc, #76]	; (10007358 <__wrap___aeabi_dmul+0x16>)
1000730a:	6f92      	ldr	r2, [r2, #120]	; 0x78
1000730c:	0892      	lsrs	r2, r2, #2
1000730e:	d209      	bcs.n	10007324 <ddiv_save_state>
10007310:	4662      	mov	r2, ip

10007312 <ddiv_shim_call>:
10007312:	b418      	push	{r3, r4}
10007314:	4b0f      	ldr	r3, [pc, #60]	; (10007354 <__wrap___aeabi_dmul+0x12>)
10007316:	68db      	ldr	r3, [r3, #12]
10007318:	46fc      	mov	ip, pc
1000731a:	9301      	str	r3, [sp, #4]
1000731c:	bd08      	pop	{r3, pc}
1000731e:	df0c      	.short	0xdf0c
10007320:	10007879 	.word	0x10007879

10007324 <ddiv_save_state>:
10007324:	4a0c      	ldr	r2, [pc, #48]	; (10007358 <__wrap___aeabi_dmul+0x16>)
10007326:	b5f0      	push	{r4, r5, r6, r7, lr}
10007328:	6e14      	ldr	r4, [r2, #96]	; 0x60
1000732a:	6e55      	ldr	r5, [r2, #100]	; 0x64
1000732c:	6f57      	ldr	r7, [r2, #116]	; 0x74
1000732e:	6f16      	ldr	r6, [r2, #112]	; 0x70
10007330:	4662      	mov	r2, ip
10007332:	f7ff ffee 	bl	10007312 <ddiv_shim_call>
10007336:	4a08      	ldr	r2, [pc, #32]	; (10007358 <__wrap___aeabi_dmul+0x16>)
10007338:	6614      	str	r4, [r2, #96]	; 0x60
1000733a:	6655      	str	r5, [r2, #100]	; 0x64
1000733c:	6757      	str	r7, [r2, #116]	; 0x74
1000733e:	6716      	str	r6, [r2, #112]	; 0x70
10007340:	bdf0      	pop	{r4, r5, r6, r7, pc}

10007342 <__wrap___aeabi_dmul>:
10007342:	b418      	push	{r3, r4}
10007344:	4b03      	ldr	r3, [pc, #12]	; (10007354 <__wrap___aeabi_dmul+0x12>)
10007346:	689b      	ldr	r3, [r3, #8]
10007348:	46fc      	mov	ip, pc
1000734a:	9301      	str	r3, [sp, #4]
1000734c:	bd08      	pop	{r3, pc}
1000734e:	df08      	.short	0xdf08
10007350:	1000771d 	.word	0x1000771d
10007354:	200018ec 	.word	0x200018ec
10007358:	d0000000 	.word	0xd0000000

1000735c <__wrap___aeabi_cdrcmple>:
1000735c:	b5ff      	push	{r0, r1, r2, r3, r4, r5, r6, r7, lr}
1000735e:	4050      	eors	r0, r2
10007360:	4042      	eors	r2, r0
10007362:	4050      	eors	r0, r2
10007364:	4059      	eors	r1, r3
10007366:	404b      	eors	r3, r1
10007368:	4059      	eors	r1, r3
1000736a:	e000      	b.n	1000736e <__aeabi_dfcmple_guts>

1000736c <__wrap___aeabi_cdcmpeq>:
1000736c:	b5ff      	push	{r0, r1, r2, r3, r4, r5, r6, r7, lr}

1000736e <__aeabi_dfcmple_guts>:
1000736e:	4f15      	ldr	r7, [pc, #84]	; (100073c4 <__aeabi_dfcmple_guts+0x56>)
10007370:	004c      	lsls	r4, r1, #1
10007372:	0d64      	lsrs	r4, r4, #21
10007374:	d003      	beq.n	1000737e <__aeabi_dfcmple_guts+0x10>
10007376:	42bc      	cmp	r4, r7
10007378:	d104      	bne.n	10007384 <__aeabi_dfcmple_guts+0x16>
1000737a:	030c      	lsls	r4, r1, #12
1000737c:	d814      	bhi.n	100073a8 <__aeabi_dfcmple_guts+0x3a>
1000737e:	2000      	movs	r0, #0
10007380:	0d09      	lsrs	r1, r1, #20
10007382:	0509      	lsls	r1, r1, #20
10007384:	005c      	lsls	r4, r3, #1
10007386:	0d64      	lsrs	r4, r4, #21
10007388:	d003      	beq.n	10007392 <__aeabi_dfcmple_guts+0x24>
1000738a:	42bc      	cmp	r4, r7
1000738c:	d104      	bne.n	10007398 <__aeabi_dfcmple_guts+0x2a>
1000738e:	031c      	lsls	r4, r3, #12
10007390:	d80a      	bhi.n	100073a8 <__aeabi_dfcmple_guts+0x3a>
10007392:	2200      	movs	r2, #0
10007394:	0d1b      	lsrs	r3, r3, #20
10007396:	051b      	lsls	r3, r3, #20
10007398:	2601      	movs	r6, #1
1000739a:	404b      	eors	r3, r1
1000739c:	d409      	bmi.n	100073b2 <__aeabi_dfcmple_guts+0x44>
1000739e:	404b      	eors	r3, r1
100073a0:	d503      	bpl.n	100073aa <__aeabi_dfcmple_guts+0x3c>
100073a2:	428b      	cmp	r3, r1
100073a4:	d100      	bne.n	100073a8 <__aeabi_dfcmple_guts+0x3a>
100073a6:	4282      	cmp	r2, r0
100073a8:	bdff      	pop	{r0, r1, r2, r3, r4, r5, r6, r7, pc}
100073aa:	4299      	cmp	r1, r3
100073ac:	d1fc      	bne.n	100073a8 <__aeabi_dfcmple_guts+0x3a>
100073ae:	4290      	cmp	r0, r2
100073b0:	bdff      	pop	{r0, r1, r2, r3, r4, r5, r6, r7, pc}
100073b2:	430b      	orrs	r3, r1
100073b4:	18db      	adds	r3, r3, r3
100073b6:	4303      	orrs	r3, r0
100073b8:	4313      	orrs	r3, r2
100073ba:	d0f5      	beq.n	100073a8 <__aeabi_dfcmple_guts+0x3a>
100073bc:	43c9      	mvns	r1, r1
100073be:	1849      	adds	r1, r1, r1
100073c0:	bdff      	pop	{r0, r1, r2, r3, r4, r5, r6, r7, pc}
100073c2:	0000      	.short	0x0000
100073c4:	000007ff 	.word	0x000007ff

100073c8 <__wrap___aeabi_dcmplt>:
100073c8:	b500      	push	{lr}
100073ca:	f7ff ffcf 	bl	1000736c <__wrap___aeabi_cdcmpeq>
100073ce:	4180      	sbcs	r0, r0
100073d0:	bd00      	pop	{pc}
100073d2:	46c0      	nop			; (mov r8, r8)

100073d4 <__wrap___aeabi_dcmple>:
100073d4:	b500      	push	{lr}
100073d6:	f7ff ffc9 	bl	1000736c <__wrap___aeabi_cdcmpeq>
100073da:	d901      	bls.n	100073e0 <__wrap___aeabi_dcmple+0xc>
100073dc:	2000      	movs	r0, #0
100073de:	bd00      	pop	{pc}
100073e0:	2001      	movs	r0, #1
100073e2:	bd00      	pop	{pc}

100073e4 <__wrap___aeabi_dcmpge>:
100073e4:	b500      	push	{lr}
100073e6:	f7ff ffb9 	bl	1000735c <__wrap___aeabi_cdrcmple>
100073ea:	d901      	bls.n	100073f0 <__wrap___aeabi_dcmpge+0xc>
100073ec:	2000      	movs	r0, #0
100073ee:	bd00      	pop	{pc}
100073f0:	2001      	movs	r0, #1
100073f2:	bd00      	pop	{pc}

100073f4 <__wrap___aeabi_dcmpgt>:
100073f4:	b500      	push	{lr}
100073f6:	f7ff ffb1 	bl	1000735c <__wrap___aeabi_cdrcmple>
100073fa:	4180      	sbcs	r0, r0
100073fc:	bd00      	pop	{pc}

100073fe <__wrap___aeabi_dcmpun>:
100073fe:	2001      	movs	r0, #1
10007400:	0540      	lsls	r0, r0, #21
10007402:	004a      	lsls	r2, r1, #1
10007404:	1812      	adds	r2, r2, r0
10007406:	d804      	bhi.n	10007412 <__wrap___aeabi_dcmpun+0x14>
10007408:	005a      	lsls	r2, r3, #1
1000740a:	1812      	adds	r2, r2, r0
1000740c:	d801      	bhi.n	10007412 <__wrap___aeabi_dcmpun+0x14>
1000740e:	2000      	movs	r0, #0
10007410:	4770      	bx	lr
10007412:	2001      	movs	r0, #1
10007414:	4770      	bx	lr
10007416:	2000      	movs	r0, #0
10007418:	4770      	bx	lr
	...

1000741c <__wrap___aeabi_ui2d>:
1000741c:	2100      	movs	r1, #0
1000741e:	2800      	cmp	r0, #0
10007420:	d105      	bne.n	1000742e <__wrap___aeabi_i2d+0xa>
10007422:	4770      	bx	lr

10007424 <__wrap___aeabi_i2d>:
10007424:	17c1      	asrs	r1, r0, #31
10007426:	4048      	eors	r0, r1
10007428:	1a40      	subs	r0, r0, r1
1000742a:	d0fa      	beq.n	10007422 <__wrap___aeabi_ui2d+0x6>
1000742c:	07c9      	lsls	r1, r1, #31
1000742e:	b513      	push	{r0, r1, r4, lr}
10007430:	4b06      	ldr	r3, [pc, #24]	; (1000744c <__wrap___aeabi_i2d+0x28>)
10007432:	681b      	ldr	r3, [r3, #0]
10007434:	4798      	blx	r3
10007436:	bc0c      	pop	{r2, r3}
10007438:	1c44      	adds	r4, r0, #1
1000743a:	40a2      	lsls	r2, r4
1000743c:	0510      	lsls	r0, r2, #20
1000743e:	0b12      	lsrs	r2, r2, #12
10007440:	4903      	ldr	r1, [pc, #12]	; (10007450 <__wrap___aeabi_i2d+0x2c>)
10007442:	1b09      	subs	r1, r1, r4
10007444:	0509      	lsls	r1, r1, #20
10007446:	4319      	orrs	r1, r3
10007448:	4311      	orrs	r1, r2
1000744a:	bd10      	pop	{r4, pc}
1000744c:	200019ec 	.word	0x200019ec
10007450:	0000041f 	.word	0x0000041f

10007454 <__wrap___aeabi_d2iz>:
10007454:	b510      	push	{r4, lr}
10007456:	004c      	lsls	r4, r1, #1
10007458:	0d62      	lsrs	r2, r4, #21
1000745a:	2380      	movs	r3, #128	; 0x80
1000745c:	18d2      	adds	r2, r2, r3
1000745e:	00db      	lsls	r3, r3, #3
10007460:	1ad2      	subs	r2, r2, r3
10007462:	055b      	lsls	r3, r3, #21
10007464:	2a7e      	cmp	r2, #126	; 0x7e
10007466:	dd10      	ble.n	1000748a <__wrap___aeabi_d2iz+0x36>
10007468:	3a9e      	subs	r2, #158	; 0x9e
1000746a:	da13      	bge.n	10007494 <__wrap___aeabi_d2iz+0x40>
1000746c:	17cc      	asrs	r4, r1, #31
1000746e:	0309      	lsls	r1, r1, #12
10007470:	0849      	lsrs	r1, r1, #1
10007472:	4319      	orrs	r1, r3
10007474:	4252      	negs	r2, r2
10007476:	40d1      	lsrs	r1, r2
10007478:	0064      	lsls	r4, r4, #1
1000747a:	3401      	adds	r4, #1
1000747c:	3215      	adds	r2, #21
1000747e:	2a20      	cmp	r2, #32
10007480:	da05      	bge.n	1000748e <__wrap___aeabi_d2iz+0x3a>
10007482:	40d0      	lsrs	r0, r2
10007484:	4308      	orrs	r0, r1
10007486:	4360      	muls	r0, r4
10007488:	bd10      	pop	{r4, pc}
1000748a:	2000      	movs	r0, #0
1000748c:	bd10      	pop	{r4, pc}
1000748e:	4608      	mov	r0, r1
10007490:	4360      	muls	r0, r4
10007492:	bd10      	pop	{r4, pc}
10007494:	0fc8      	lsrs	r0, r1, #31
10007496:	18c0      	adds	r0, r0, r3
10007498:	3801      	subs	r0, #1
1000749a:	bd10      	pop	{r4, pc}

1000749c <__wrap___aeabi_d2uiz>:
1000749c:	b418      	push	{r3, r4}
1000749e:	4b04      	ldr	r3, [pc, #16]	; (100074b0 <__wrap___aeabi_d2uiz+0x14>)
100074a0:	6a5b      	ldr	r3, [r3, #36]	; 0x24
100074a2:	46fc      	mov	ip, pc
100074a4:	9301      	str	r3, [sp, #4]
100074a6:	bd08      	pop	{r3, pc}
100074a8:	7a29df24 	.word	0x7a29df24
100074ac:	00001000 	.word	0x00001000
100074b0:	200018ec 	.word	0x200018ec

100074b4 <__aeabi_double_init>:
100074b4:	b570      	push	{r4, r5, r6, lr}
100074b6:	2313      	movs	r3, #19
100074b8:	781c      	ldrb	r4, [r3, #0]
100074ba:	2c01      	cmp	r4, #1
100074bc:	d014      	beq.n	100074e8 <__aeabi_double_init+0x34>
100074be:	2c01      	cmp	r4, #1
100074c0:	dc14      	bgt.n	100074ec <__aeabi_double_init+0x38>
100074c2:	2c02      	cmp	r4, #2
100074c4:	dc02      	bgt.n	100074cc <__aeabi_double_init+0x18>
100074c6:	4a1f      	ldr	r2, [pc, #124]	; (10007544 <__aeabi_double_init+0x90>)
100074c8:	4b1f      	ldr	r3, [pc, #124]	; (10007548 <__aeabi_double_init+0x94>)
100074ca:	649a      	str	r2, [r3, #72]	; 0x48
100074cc:	481f      	ldr	r0, [pc, #124]	; (1000754c <__aeabi_double_init+0x98>)
100074ce:	f7ff fc71 	bl	10006db4 <rom_func_lookup>
100074d2:	4b1f      	ldr	r3, [pc, #124]	; (10007550 <__aeabi_double_init+0x9c>)
100074d4:	6018      	str	r0, [r3, #0]
100074d6:	bd70      	pop	{r4, r5, r6, pc}
100074d8:	0099      	lsls	r1, r3, #2
100074da:	481a      	ldr	r0, [pc, #104]	; (10007544 <__aeabi_double_init+0x90>)
100074dc:	4a1a      	ldr	r2, [pc, #104]	; (10007548 <__aeabi_double_init+0x94>)
100074de:	5088      	str	r0, [r1, r2]
100074e0:	3301      	adds	r3, #1
100074e2:	2b1f      	cmp	r3, #31
100074e4:	d9f8      	bls.n	100074d8 <__aeabi_double_init+0x24>
100074e6:	e7ea      	b.n	100074be <__aeabi_double_init+0xa>
100074e8:	2300      	movs	r3, #0
100074ea:	e7fa      	b.n	100074e2 <__aeabi_double_init+0x2e>
100074ec:	4819      	ldr	r0, [pc, #100]	; (10007554 <__aeabi_double_init+0xa0>)
100074ee:	f7ff fc69 	bl	10006dc4 <rom_data_lookup>
100074f2:	0005      	movs	r5, r0
100074f4:	4818      	ldr	r0, [pc, #96]	; (10007558 <__aeabi_double_init+0xa4>)
100074f6:	f7ff fc65 	bl	10006dc4 <rom_data_lookup>
100074fa:	3802      	subs	r0, #2
100074fc:	7803      	ldrb	r3, [r0, #0]
100074fe:	009b      	lsls	r3, r3, #2
10007500:	2b7f      	cmp	r3, #127	; 0x7f
10007502:	dd19      	ble.n	10007538 <__aeabi_double_init+0x84>
10007504:	2280      	movs	r2, #128	; 0x80
10007506:	0029      	movs	r1, r5
10007508:	480f      	ldr	r0, [pc, #60]	; (10007548 <__aeabi_double_init+0x94>)
1000750a:	f000 fbd3 	bl	10007cb4 <__wrap___aeabi_memcpy>
1000750e:	2c02      	cmp	r4, #2
10007510:	d1d7      	bne.n	100074c2 <__aeabi_double_init+0xe>
10007512:	4b12      	ldr	r3, [pc, #72]	; (1000755c <__aeabi_double_init+0xa8>)
10007514:	881a      	ldrh	r2, [r3, #0]
10007516:	23b5      	movs	r3, #181	; 0xb5
10007518:	021b      	lsls	r3, r3, #8
1000751a:	429a      	cmp	r2, r3
1000751c:	d109      	bne.n	10007532 <__aeabi_double_init+0x7e>
1000751e:	4b10      	ldr	r3, [pc, #64]	; (10007560 <__aeabi_double_init+0xac>)
10007520:	881a      	ldrh	r2, [r3, #0]
10007522:	4b10      	ldr	r3, [pc, #64]	; (10007564 <__aeabi_double_init+0xb0>)
10007524:	429a      	cmp	r2, r3
10007526:	d104      	bne.n	10007532 <__aeabi_double_init+0x7e>
10007528:	4b0f      	ldr	r3, [pc, #60]	; (10007568 <__aeabi_double_init+0xb4>)
1000752a:	881a      	ldrh	r2, [r3, #0]
1000752c:	4b0f      	ldr	r3, [pc, #60]	; (1000756c <__aeabi_double_init+0xb8>)
1000752e:	429a      	cmp	r2, r3
10007530:	d0c7      	beq.n	100074c2 <__aeabi_double_init+0xe>
10007532:	2000      	movs	r0, #0
10007534:	f7fe f956 	bl	100057e4 <panic>
10007538:	4b0d      	ldr	r3, [pc, #52]	; (10007570 <__aeabi_double_init+0xbc>)
1000753a:	4a0e      	ldr	r2, [pc, #56]	; (10007574 <__aeabi_double_init+0xc0>)
1000753c:	2132      	movs	r1, #50	; 0x32
1000753e:	480e      	ldr	r0, [pc, #56]	; (10007578 <__aeabi_double_init+0xc4>)
10007540:	f7fe f8b6 	bl	100056b0 <__assert_func>
10007544:	1000757d 	.word	0x1000757d
10007548:	200018ec 	.word	0x200018ec
1000754c:	0000334c 	.word	0x0000334c
10007550:	200019ec 	.word	0x200019ec
10007554:	00004453 	.word	0x00004453
10007558:	00004653 	.word	0x00004653
1000755c:	00003854 	.word	0x00003854
10007560:	000038d8 	.word	0x000038d8
10007564:	00004649 	.word	0x00004649
10007568:	0000389c 	.word	0x0000389c
1000756c:	00004659 	.word	0x00004659
10007570:	1000d4f0 	.word	0x1000d4f0
10007574:	1000d5a4 	.word	0x1000d5a4
10007578:	1000d550 	.word	0x1000d550

1000757c <double_table_shim_on_use_helper>:
1000757c:	b507      	push	{r0, r1, r2, lr}
1000757e:	4660      	mov	r0, ip
10007580:	2800      	cmp	r0, #0
10007582:	d100      	bne.n	10007586 <double_table_shim_on_use_helper+0xa>
10007584:	be00      	bkpt	0x0000
10007586:	8801      	ldrh	r1, [r0, #0]
10007588:	0a0a      	lsrs	r2, r1, #8
1000758a:	3002      	adds	r0, #2
1000758c:	2adf      	cmp	r2, #223	; 0xdf
1000758e:	d1fa      	bne.n	10007586 <double_table_shim_on_use_helper+0xa>
10007590:	b2c9      	uxtb	r1, r1
10007592:	0882      	lsrs	r2, r0, #2
10007594:	d304      	bcc.n	100075a0 <double_table_shim_on_use_helper+0x24>
10007596:	8802      	ldrh	r2, [r0, #0]
10007598:	8840      	ldrh	r0, [r0, #2]
1000759a:	0400      	lsls	r0, r0, #16
1000759c:	4310      	orrs	r0, r2
1000759e:	e000      	b.n	100075a2 <double_table_shim_on_use_helper+0x26>
100075a0:	6800      	ldr	r0, [r0, #0]
100075a2:	4a02      	ldr	r2, [pc, #8]	; (100075ac <double_table_shim_on_use_helper+0x30>)
100075a4:	5050      	str	r0, [r2, r1]
100075a6:	9003      	str	r0, [sp, #12]
100075a8:	bd07      	pop	{r0, r1, r2, pc}
100075aa:	0000      	.short	0x0000
100075ac:	200018ec 	.word	0x200018ec

100075b0 <drsub_shim>:
100075b0:	b40f      	push	{r0, r1, r2, r3}
100075b2:	bc03      	pop	{r0, r1}
100075b4:	bc0c      	pop	{r2, r3}

100075b6 <dsub_shim>:
100075b6:	b5f0      	push	{r4, r5, r6, r7, lr}
100075b8:	2401      	movs	r4, #1
100075ba:	07e4      	lsls	r4, r4, #31
100075bc:	4063      	eors	r3, r4
100075be:	e000      	b.n	100075c2 <da_entry>

100075c0 <dadd_shim>:
100075c0:	b5f0      	push	{r4, r5, r6, r7, lr}

100075c2 <da_entry>:
100075c2:	0d0c      	lsrs	r4, r1, #20
100075c4:	0fcf      	lsrs	r7, r1, #31
100075c6:	1e66      	subs	r6, r4, #1
100075c8:	0536      	lsls	r6, r6, #20
100075ca:	1b89      	subs	r1, r1, r6
100075cc:	0564      	lsls	r4, r4, #21
100075ce:	d303      	bcc.n	100075d8 <l7_1>
100075d0:	43c9      	mvns	r1, r1
100075d2:	4240      	negs	r0, r0
100075d4:	d300      	bcc.n	100075d8 <l7_1>
100075d6:	3101      	adds	r1, #1

100075d8 <l7_1>:
100075d8:	0d64      	lsrs	r4, r4, #21
100075da:	d003      	beq.n	100075e4 <l7_2>
100075dc:	1c66      	adds	r6, r4, #1
100075de:	0af6      	lsrs	r6, r6, #11
100075e0:	d007      	beq.n	100075f2 <l7_3>
100075e2:	1be4      	subs	r4, r4, r7

100075e4 <l7_2>:
100075e4:	2000      	movs	r0, #0
100075e6:	007f      	lsls	r7, r7, #1
100075e8:	1c79      	adds	r1, r7, #1
100075ea:	0789      	lsls	r1, r1, #30
100075ec:	1289      	asrs	r1, r1, #10
100075ee:	3c80      	subs	r4, #128	; 0x80
100075f0:	0324      	lsls	r4, r4, #12

100075f2 <l7_3>:
100075f2:	0d1d      	lsrs	r5, r3, #20
100075f4:	0fdf      	lsrs	r7, r3, #31
100075f6:	1e6e      	subs	r6, r5, #1
100075f8:	0536      	lsls	r6, r6, #20
100075fa:	1b9b      	subs	r3, r3, r6
100075fc:	056d      	lsls	r5, r5, #21
100075fe:	d303      	bcc.n	10007608 <l8_1>
10007600:	43db      	mvns	r3, r3
10007602:	4252      	negs	r2, r2
10007604:	d300      	bcc.n	10007608 <l8_1>
10007606:	3301      	adds	r3, #1

10007608 <l8_1>:
10007608:	0d6d      	lsrs	r5, r5, #21
1000760a:	d003      	beq.n	10007614 <l8_2>
1000760c:	1c6e      	adds	r6, r5, #1
1000760e:	0af6      	lsrs	r6, r6, #11
10007610:	d007      	beq.n	10007622 <l8_3>
10007612:	1bed      	subs	r5, r5, r7

10007614 <l8_2>:
10007614:	2200      	movs	r2, #0
10007616:	007f      	lsls	r7, r7, #1
10007618:	1c7b      	adds	r3, r7, #1
1000761a:	079b      	lsls	r3, r3, #30
1000761c:	129b      	asrs	r3, r3, #10
1000761e:	3d80      	subs	r5, #128	; 0x80
10007620:	032d      	lsls	r5, r5, #12

10007622 <l8_3>:
10007622:	1b2f      	subs	r7, r5, r4
10007624:	1b66      	subs	r6, r4, r5
10007626:	d458      	bmi.n	100076da <da_ygtx>
10007628:	46a4      	mov	ip, r4
1000762a:	2e20      	cmp	r6, #32
1000762c:	da46      	bge.n	100076bc <da_xrgty>
1000762e:	3720      	adds	r7, #32
10007630:	0014      	movs	r4, r2
10007632:	40bc      	lsls	r4, r7

10007634 <da_xgty0>:
10007634:	001d      	movs	r5, r3
10007636:	40bd      	lsls	r5, r7
10007638:	40f2      	lsrs	r2, r6
1000763a:	4133      	asrs	r3, r6
1000763c:	432a      	orrs	r2, r5

1000763e <da_add>:
1000763e:	1880      	adds	r0, r0, r2
10007640:	4159      	adcs	r1, r3

10007642 <da_pack>:
10007642:	0fcb      	lsrs	r3, r1, #31
10007644:	d005      	beq.n	10007652 <da_pack+0x10>
10007646:	43c9      	mvns	r1, r1
10007648:	43c0      	mvns	r0, r0
1000764a:	2200      	movs	r2, #0
1000764c:	4264      	negs	r4, r4
1000764e:	4150      	adcs	r0, r2
10007650:	4151      	adcs	r1, r2
10007652:	4662      	mov	r2, ip
10007654:	0d4d      	lsrs	r5, r1, #21
10007656:	d128      	bne.n	100076aa <da_0>
10007658:	0d0d      	lsrs	r5, r1, #20
1000765a:	d107      	bne.n	1000766c <da_1>
1000765c:	2800      	cmp	r0, #0
1000765e:	d01f      	beq.n	100076a0 <da_5>

10007660 <da_2>:
10007660:	1924      	adds	r4, r4, r4
10007662:	4140      	adcs	r0, r0
10007664:	4149      	adcs	r1, r1
10007666:	3a01      	subs	r2, #1
10007668:	0d0d      	lsrs	r5, r1, #20
1000766a:	d0f9      	beq.n	10007660 <da_2>

1000766c <da_1>:
1000766c:	0064      	lsls	r4, r4, #1
1000766e:	d306      	bcc.n	1000767e <da_3>

10007670 <da_4>:
10007670:	3001      	adds	r0, #1
10007672:	d300      	bcc.n	10007676 <da_4+0x6>
10007674:	3101      	adds	r1, #1
10007676:	2c00      	cmp	r4, #0
10007678:	d101      	bne.n	1000767e <da_3>
1000767a:	0840      	lsrs	r0, r0, #1
1000767c:	0040      	lsls	r0, r0, #1

1000767e <da_3>:
1000767e:	3a01      	subs	r2, #1
10007680:	d40b      	bmi.n	1000769a <da_6>
10007682:	1c94      	adds	r4, r2, #2
10007684:	0ae4      	lsrs	r4, r4, #11
10007686:	d104      	bne.n	10007692 <da_7>
10007688:	0512      	lsls	r2, r2, #20
1000768a:	4411      	add	r1, r2
1000768c:	07db      	lsls	r3, r3, #31
1000768e:	4419      	add	r1, r3
10007690:	bdf0      	pop	{r4, r5, r6, r7, pc}

10007692 <da_7>:
10007692:	07d9      	lsls	r1, r3, #31
10007694:	4b20      	ldr	r3, [pc, #128]	; (10007718 <da_xmgty+0x4>)
10007696:	4319      	orrs	r1, r3
10007698:	e000      	b.n	1000769c <da_6+0x2>

1000769a <da_6>:
1000769a:	07d9      	lsls	r1, r3, #31
1000769c:	2000      	movs	r0, #0
1000769e:	bdf0      	pop	{r4, r5, r6, r7, pc}

100076a0 <da_5>:
100076a0:	2900      	cmp	r1, #0
100076a2:	d1dd      	bne.n	10007660 <da_2>
100076a4:	2c00      	cmp	r4, #0
100076a6:	d1db      	bne.n	10007660 <da_2>
100076a8:	bdf0      	pop	{r4, r5, r6, r7, pc}

100076aa <da_0>:
100076aa:	3201      	adds	r2, #1
100076ac:	07c6      	lsls	r6, r0, #31
100076ae:	0840      	lsrs	r0, r0, #1
100076b0:	07cd      	lsls	r5, r1, #31
100076b2:	4328      	orrs	r0, r5
100076b4:	0849      	lsrs	r1, r1, #1
100076b6:	2e00      	cmp	r6, #0
100076b8:	d0e1      	beq.n	1000767e <da_3>
100076ba:	e7d9      	b.n	10007670 <da_4>

100076bc <da_xrgty>:
100076bc:	2e3c      	cmp	r6, #60	; 0x3c
100076be:	da29      	bge.n	10007714 <da_xmgty>
100076c0:	3e20      	subs	r6, #32
100076c2:	3740      	adds	r7, #64	; 0x40
100076c4:	0014      	movs	r4, r2
100076c6:	40bc      	lsls	r4, r7
100076c8:	d000      	beq.n	100076cc <da_xrgty+0x10>
100076ca:	2401      	movs	r4, #1
100076cc:	40f2      	lsrs	r2, r6
100076ce:	4314      	orrs	r4, r2
100076d0:	001a      	movs	r2, r3
100076d2:	40bb      	lsls	r3, r7
100076d4:	431c      	orrs	r4, r3
100076d6:	17d3      	asrs	r3, r2, #31
100076d8:	e7ac      	b.n	10007634 <da_xgty0>

100076da <da_ygtx>:
100076da:	46ac      	mov	ip, r5
100076dc:	2f20      	cmp	r7, #32
100076de:	da08      	bge.n	100076f2 <da_yrgtx>
100076e0:	3620      	adds	r6, #32
100076e2:	0004      	movs	r4, r0
100076e4:	40b4      	lsls	r4, r6

100076e6 <da_ygtx0>:
100076e6:	000d      	movs	r5, r1
100076e8:	40b5      	lsls	r5, r6
100076ea:	40f8      	lsrs	r0, r7
100076ec:	4139      	asrs	r1, r7
100076ee:	4328      	orrs	r0, r5
100076f0:	e7a5      	b.n	1000763e <da_add>

100076f2 <da_yrgtx>:
100076f2:	2f3c      	cmp	r7, #60	; 0x3c
100076f4:	da0c      	bge.n	10007710 <da_ymgtx>
100076f6:	3f20      	subs	r7, #32
100076f8:	3640      	adds	r6, #64	; 0x40
100076fa:	0004      	movs	r4, r0
100076fc:	40b4      	lsls	r4, r6
100076fe:	d000      	beq.n	10007702 <da_yrgtx+0x10>
10007700:	2401      	movs	r4, #1
10007702:	40f8      	lsrs	r0, r7
10007704:	4304      	orrs	r4, r0
10007706:	0008      	movs	r0, r1
10007708:	40b1      	lsls	r1, r6
1000770a:	430c      	orrs	r4, r1
1000770c:	17c1      	asrs	r1, r0, #31
1000770e:	e7ea      	b.n	100076e6 <da_ygtx0>

10007710 <da_ymgtx>:
10007710:	0010      	movs	r0, r2
10007712:	0019      	movs	r1, r3

10007714 <da_xmgty>:
10007714:	2400      	movs	r4, #0
10007716:	e794      	b.n	10007642 <da_pack>
10007718:	7ff00000 	.word	0x7ff00000

1000771c <dmul_shim>:
1000771c:	b5f0      	push	{r4, r5, r6, r7, lr}
1000771e:	0d0c      	lsrs	r4, r1, #20
10007720:	1e66      	subs	r6, r4, #1
10007722:	0536      	lsls	r6, r6, #20
10007724:	1b89      	subs	r1, r1, r6
10007726:	0ae6      	lsrs	r6, r4, #11
10007728:	0564      	lsls	r4, r4, #21
1000772a:	0d64      	lsrs	r4, r4, #21
1000772c:	d002      	beq.n	10007734 <l11_1>
1000772e:	1c65      	adds	r5, r4, #1
10007730:	0aed      	lsrs	r5, r5, #11
10007732:	d004      	beq.n	1000773e <l11_2>

10007734 <l11_1>:
10007734:	2000      	movs	r0, #0
10007736:	2101      	movs	r1, #1
10007738:	0509      	lsls	r1, r1, #20
1000773a:	3c80      	subs	r4, #128	; 0x80
1000773c:	0324      	lsls	r4, r4, #12

1000773e <l11_2>:
1000773e:	46a4      	mov	ip, r4
10007740:	0d1c      	lsrs	r4, r3, #20
10007742:	1e67      	subs	r7, r4, #1
10007744:	053f      	lsls	r7, r7, #20
10007746:	1bdb      	subs	r3, r3, r7
10007748:	0ae7      	lsrs	r7, r4, #11
1000774a:	0564      	lsls	r4, r4, #21
1000774c:	0d64      	lsrs	r4, r4, #21
1000774e:	d002      	beq.n	10007756 <l12_1>
10007750:	1c65      	adds	r5, r4, #1
10007752:	0aed      	lsrs	r5, r5, #11
10007754:	d004      	beq.n	10007760 <l12_2>

10007756 <l12_1>:
10007756:	2200      	movs	r2, #0
10007758:	2301      	movs	r3, #1
1000775a:	051b      	lsls	r3, r3, #20
1000775c:	3c80      	subs	r4, #128	; 0x80
1000775e:	0324      	lsls	r4, r4, #12

10007760 <l12_2>:
10007760:	4077      	eors	r7, r6
10007762:	4464      	add	r4, ip
10007764:	b497      	push	{r0, r1, r2, r4, r7}
10007766:	b284      	uxth	r4, r0
10007768:	b296      	uxth	r6, r2
1000776a:	4374      	muls	r4, r6
1000776c:	0c07      	lsrs	r7, r0, #16
1000776e:	437e      	muls	r6, r7
10007770:	0c15      	lsrs	r5, r2, #16
10007772:	436f      	muls	r7, r5
10007774:	b280      	uxth	r0, r0
10007776:	4368      	muls	r0, r5
10007778:	1836      	adds	r6, r6, r0
1000777a:	d302      	bcc.n	10007782 <l13_1>
1000777c:	2001      	movs	r0, #1
1000777e:	0400      	lsls	r0, r0, #16
10007780:	183f      	adds	r7, r7, r0

10007782 <l13_1>:
10007782:	0430      	lsls	r0, r6, #16
10007784:	0c35      	lsrs	r5, r6, #16
10007786:	1900      	adds	r0, r0, r4
10007788:	417d      	adcs	r5, r7
1000778a:	4684      	mov	ip, r0
1000778c:	b288      	uxth	r0, r1
1000778e:	b29a      	uxth	r2, r3
10007790:	4350      	muls	r0, r2
10007792:	0c0c      	lsrs	r4, r1, #16
10007794:	4362      	muls	r2, r4
10007796:	0c1f      	lsrs	r7, r3, #16
10007798:	437c      	muls	r4, r7
1000779a:	b28e      	uxth	r6, r1
1000779c:	437e      	muls	r6, r7
1000779e:	1992      	adds	r2, r2, r6
100077a0:	d302      	bcc.n	100077a8 <l14_1>
100077a2:	2601      	movs	r6, #1
100077a4:	0436      	lsls	r6, r6, #16
100077a6:	19a4      	adds	r4, r4, r6

100077a8 <l14_1>:
100077a8:	0416      	lsls	r6, r2, #16
100077aa:	0c17      	lsrs	r7, r2, #16
100077ac:	1836      	adds	r6, r6, r0
100077ae:	4167      	adcs	r7, r4
100077b0:	bc01      	pop	{r0}
100077b2:	b281      	uxth	r1, r0
100077b4:	b29a      	uxth	r2, r3
100077b6:	4351      	muls	r1, r2
100077b8:	0c04      	lsrs	r4, r0, #16
100077ba:	4362      	muls	r2, r4
100077bc:	0c1b      	lsrs	r3, r3, #16
100077be:	435c      	muls	r4, r3
100077c0:	b280      	uxth	r0, r0
100077c2:	4358      	muls	r0, r3
100077c4:	1812      	adds	r2, r2, r0
100077c6:	d302      	bcc.n	100077ce <l15_1>
100077c8:	2001      	movs	r0, #1
100077ca:	0400      	lsls	r0, r0, #16
100077cc:	1824      	adds	r4, r4, r0

100077ce <l15_1>:
100077ce:	0410      	lsls	r0, r2, #16
100077d0:	0c13      	lsrs	r3, r2, #16
100077d2:	1840      	adds	r0, r0, r1
100077d4:	4163      	adcs	r3, r4
100077d6:	182d      	adds	r5, r5, r0
100077d8:	415e      	adcs	r6, r3
100077da:	2000      	movs	r0, #0
100077dc:	4147      	adcs	r7, r0
100077de:	bc06      	pop	{r1, r2}
100077e0:	b288      	uxth	r0, r1
100077e2:	b293      	uxth	r3, r2
100077e4:	4358      	muls	r0, r3
100077e6:	0c0c      	lsrs	r4, r1, #16
100077e8:	4363      	muls	r3, r4
100077ea:	0c12      	lsrs	r2, r2, #16
100077ec:	4354      	muls	r4, r2
100077ee:	b289      	uxth	r1, r1
100077f0:	4351      	muls	r1, r2
100077f2:	185b      	adds	r3, r3, r1
100077f4:	d302      	bcc.n	100077fc <l16_1>
100077f6:	2101      	movs	r1, #1
100077f8:	0409      	lsls	r1, r1, #16
100077fa:	1864      	adds	r4, r4, r1

100077fc <l16_1>:
100077fc:	0419      	lsls	r1, r3, #16
100077fe:	0c1a      	lsrs	r2, r3, #16
10007800:	1809      	adds	r1, r1, r0
10007802:	4162      	adcs	r2, r4
10007804:	186d      	adds	r5, r5, r1
10007806:	4156      	adcs	r6, r2
10007808:	2000      	movs	r0, #0
1000780a:	4147      	adcs	r7, r0
1000780c:	bc18      	pop	{r3, r4}
1000780e:	02f9      	lsls	r1, r7, #11
10007810:	0d72      	lsrs	r2, r6, #21
10007812:	4311      	orrs	r1, r2
10007814:	02f0      	lsls	r0, r6, #11
10007816:	0d6a      	lsrs	r2, r5, #21
10007818:	4310      	orrs	r0, r2
1000781a:	02ed      	lsls	r5, r5, #11
1000781c:	0d0a      	lsrs	r2, r1, #20
1000781e:	d103      	bne.n	10007828 <l16_1+0x2c>
10007820:	196d      	adds	r5, r5, r5
10007822:	4140      	adcs	r0, r0
10007824:	4149      	adcs	r1, r1
10007826:	3b01      	subs	r3, #1
10007828:	4e12      	ldr	r6, [pc, #72]	; (10007874 <dm_1+0xa>)
1000782a:	1b9b      	subs	r3, r3, r6
1000782c:	0076      	lsls	r6, r6, #1
1000782e:	42b3      	cmp	r3, r6
10007830:	d20e      	bcs.n	10007850 <dm_0>
10007832:	006d      	lsls	r5, r5, #1
10007834:	d307      	bcc.n	10007846 <l16_1+0x4a>
10007836:	3001      	adds	r0, #1
10007838:	2600      	movs	r6, #0
1000783a:	4171      	adcs	r1, r6
1000783c:	4666      	mov	r6, ip
1000783e:	4335      	orrs	r5, r6
10007840:	d101      	bne.n	10007846 <l16_1+0x4a>
10007842:	0840      	lsrs	r0, r0, #1
10007844:	0040      	lsls	r0, r0, #1
10007846:	051b      	lsls	r3, r3, #20
10007848:	18c9      	adds	r1, r1, r3

1000784a <dm_2>:
1000784a:	07e4      	lsls	r4, r4, #31
1000784c:	4421      	add	r1, r4
1000784e:	bdf0      	pop	{r4, r5, r6, r7, pc}

10007850 <dm_0>:
10007850:	da0b      	bge.n	1000786a <dm_1>
10007852:	3301      	adds	r3, #1
10007854:	d106      	bne.n	10007864 <dm_0+0x14>
10007856:	3001      	adds	r0, #1
10007858:	d104      	bne.n	10007864 <dm_0+0x14>
1000785a:	3101      	adds	r1, #1
1000785c:	0d4f      	lsrs	r7, r1, #21
1000785e:	d001      	beq.n	10007864 <dm_0+0x14>
10007860:	0849      	lsrs	r1, r1, #1
10007862:	e7f2      	b.n	1000784a <dm_2>
10007864:	07e1      	lsls	r1, r4, #31
10007866:	2000      	movs	r0, #0
10007868:	bdf0      	pop	{r4, r5, r6, r7, pc}

1000786a <dm_1>:
1000786a:	3601      	adds	r6, #1
1000786c:	0531      	lsls	r1, r6, #20
1000786e:	2000      	movs	r0, #0
10007870:	e7eb      	b.n	1000784a <dm_2>
10007872:	0000      	.short	0x0000
10007874:	000003ff 	.word	0x000003ff

10007878 <ddiv_shim>:
10007878:	b5f0      	push	{r4, r5, r6, r7, lr}

1000787a <ddiv0>:
1000787a:	0d1c      	lsrs	r4, r3, #20
1000787c:	1e67      	subs	r7, r4, #1
1000787e:	053f      	lsls	r7, r7, #20
10007880:	1bdb      	subs	r3, r3, r7
10007882:	0ae7      	lsrs	r7, r4, #11
10007884:	0564      	lsls	r4, r4, #21
10007886:	0d64      	lsrs	r4, r4, #21
10007888:	d002      	beq.n	10007890 <l19_1>
1000788a:	1c66      	adds	r6, r4, #1
1000788c:	0af6      	lsrs	r6, r6, #11
1000788e:	d004      	beq.n	1000789a <l19_2>

10007890 <l19_1>:
10007890:	2200      	movs	r2, #0
10007892:	2301      	movs	r3, #1
10007894:	051b      	lsls	r3, r3, #20
10007896:	3c80      	subs	r4, #128	; 0x80
10007898:	0324      	lsls	r4, r4, #12

1000789a <l19_2>:
1000789a:	25d0      	movs	r5, #208	; 0xd0
1000789c:	062d      	lsls	r5, r5, #24
1000789e:	2600      	movs	r6, #0
100078a0:	43f6      	mvns	r6, r6
100078a2:	662e      	str	r6, [r5, #96]	; 0x60
100078a4:	091e      	lsrs	r6, r3, #4
100078a6:	666e      	str	r6, [r5, #100]	; 0x64
100078a8:	0fce      	lsrs	r6, r1, #31
100078aa:	19f6      	adds	r6, r6, r7
100078ac:	46b4      	mov	ip, r6
100078ae:	0049      	lsls	r1, r1, #1
100078b0:	0d4f      	lsrs	r7, r1, #21
100078b2:	d002      	beq.n	100078ba <l19_2+0x20>
100078b4:	1c7e      	adds	r6, r7, #1
100078b6:	0af6      	lsrs	r6, r6, #11
100078b8:	d003      	beq.n	100078c2 <l19_2+0x28>
100078ba:	2000      	movs	r0, #0
100078bc:	2100      	movs	r1, #0
100078be:	3f40      	subs	r7, #64	; 0x40
100078c0:	033f      	lsls	r7, r7, #12
100078c2:	1b3e      	subs	r6, r7, r4
100078c4:	00b6      	lsls	r6, r6, #2
100078c6:	44b4      	add	ip, r6
100078c8:	3f01      	subs	r7, #1
100078ca:	057f      	lsls	r7, r7, #21
100078cc:	1bc9      	subs	r1, r1, r7
100078ce:	0849      	lsrs	r1, r1, #1
100078d0:	6f2e      	ldr	r6, [r5, #112]	; 0x70
100078d2:	3601      	adds	r6, #1
100078d4:	0876      	lsrs	r6, r6, #1
100078d6:	029c      	lsls	r4, r3, #10
100078d8:	0d95      	lsrs	r5, r2, #22
100078da:	4325      	orrs	r5, r4
100078dc:	4375      	muls	r5, r6
100078de:	13ed      	asrs	r5, r5, #15
100078e0:	4375      	muls	r5, r6
100078e2:	13ad      	asrs	r5, r5, #14
100078e4:	3501      	adds	r5, #1
100078e6:	106d      	asrs	r5, r5, #1
100078e8:	03f6      	lsls	r6, r6, #15
100078ea:	1b76      	subs	r6, r6, r5
100078ec:	b40c      	push	{r2, r3}
100078ee:	02cc      	lsls	r4, r1, #11
100078f0:	0d45      	lsrs	r5, r0, #21
100078f2:	432c      	orrs	r4, r5
100078f4:	b2a2      	uxth	r2, r4
100078f6:	b2b3      	uxth	r3, r6
100078f8:	435a      	muls	r2, r3
100078fa:	0c27      	lsrs	r7, r4, #16
100078fc:	437b      	muls	r3, r7
100078fe:	0c35      	lsrs	r5, r6, #16
10007900:	436f      	muls	r7, r5
10007902:	b2a4      	uxth	r4, r4
10007904:	436c      	muls	r4, r5
10007906:	191b      	adds	r3, r3, r4
10007908:	d302      	bcc.n	10007910 <l20_1>
1000790a:	2401      	movs	r4, #1
1000790c:	0424      	lsls	r4, r4, #16
1000790e:	193f      	adds	r7, r7, r4

10007910 <l20_1>:
10007910:	041c      	lsls	r4, r3, #16
10007912:	0c1d      	lsrs	r5, r3, #16
10007914:	18a4      	adds	r4, r4, r2
10007916:	417d      	adcs	r5, r7
10007918:	1924      	adds	r4, r4, r4
1000791a:	416d      	adcs	r5, r5
1000791c:	9a00      	ldr	r2, [sp, #0]
1000791e:	b291      	uxth	r1, r2
10007920:	b2ac      	uxth	r4, r5
10007922:	4361      	muls	r1, r4
10007924:	0c17      	lsrs	r7, r2, #16
10007926:	437c      	muls	r4, r7
10007928:	0c2b      	lsrs	r3, r5, #16
1000792a:	435f      	muls	r7, r3
1000792c:	b292      	uxth	r2, r2
1000792e:	435a      	muls	r2, r3
10007930:	18a4      	adds	r4, r4, r2
10007932:	d302      	bcc.n	1000793a <l21_1>
10007934:	2201      	movs	r2, #1
10007936:	0412      	lsls	r2, r2, #16
10007938:	18bf      	adds	r7, r7, r2

1000793a <l21_1>:
1000793a:	0422      	lsls	r2, r4, #16
1000793c:	0c23      	lsrs	r3, r4, #16
1000793e:	1852      	adds	r2, r2, r1
10007940:	417b      	adcs	r3, r7
10007942:	9c01      	ldr	r4, [sp, #4]
10007944:	436c      	muls	r4, r5
10007946:	191b      	adds	r3, r3, r4
10007948:	0e52      	lsrs	r2, r2, #25
1000794a:	01d9      	lsls	r1, r3, #7
1000794c:	430a      	orrs	r2, r1
1000794e:	0144      	lsls	r4, r0, #5
10007950:	1aa0      	subs	r0, r4, r2
10007952:	b281      	uxth	r1, r0
10007954:	b2b2      	uxth	r2, r6
10007956:	4351      	muls	r1, r2
10007958:	1403      	asrs	r3, r0, #16
1000795a:	435a      	muls	r2, r3
1000795c:	0c36      	lsrs	r6, r6, #16
1000795e:	4373      	muls	r3, r6
10007960:	b287      	uxth	r7, r0
10007962:	4377      	muls	r7, r6
10007964:	17d6      	asrs	r6, r2, #31
10007966:	19d2      	adds	r2, r2, r7
10007968:	2700      	movs	r7, #0
1000796a:	417e      	adcs	r6, r7
1000796c:	0436      	lsls	r6, r6, #16
1000796e:	199b      	adds	r3, r3, r6
10007970:	0417      	lsls	r7, r2, #16
10007972:	0c16      	lsrs	r6, r2, #16
10007974:	187f      	adds	r7, r7, r1
10007976:	415e      	adcs	r6, r3
10007978:	1673      	asrs	r3, r6, #25
1000797a:	18ed      	adds	r5, r5, r3
1000797c:	01f3      	lsls	r3, r6, #7
1000797e:	2600      	movs	r6, #0
10007980:	3380      	adds	r3, #128	; 0x80
10007982:	4175      	adcs	r5, r6
10007984:	0fa9      	lsrs	r1, r5, #30
10007986:	d106      	bne.n	10007996 <dd_0>
10007988:	0064      	lsls	r4, r4, #1
1000798a:	0a69      	lsrs	r1, r5, #9
1000798c:	05e8      	lsls	r0, r5, #23
1000798e:	0a5b      	lsrs	r3, r3, #9
10007990:	4318      	orrs	r0, r3
10007992:	d209      	bcs.n	100079a8 <dd_1>
10007994:	e02f      	b.n	100079f6 <dd_2>

10007996 <dd_0>:
10007996:	2204      	movs	r2, #4
10007998:	4494      	add	ip, r2
1000799a:	3380      	adds	r3, #128	; 0x80
1000799c:	4175      	adcs	r5, r6
1000799e:	0aa9      	lsrs	r1, r5, #10
100079a0:	05a8      	lsls	r0, r5, #22
100079a2:	0a9b      	lsrs	r3, r3, #10
100079a4:	4318      	orrs	r0, r3
100079a6:	d326      	bcc.n	100079f6 <dd_2>

100079a8 <dd_1>:
100079a8:	4140      	adcs	r0, r0
100079aa:	4149      	adcs	r1, r1
100079ac:	0424      	lsls	r4, r4, #16
100079ae:	9a00      	ldr	r2, [sp, #0]
100079b0:	9b01      	ldr	r3, [sp, #4]
100079b2:	000d      	movs	r5, r1
100079b4:	4355      	muls	r5, r2
100079b6:	1b64      	subs	r4, r4, r5
100079b8:	4343      	muls	r3, r0
100079ba:	1ae4      	subs	r4, r4, r3
100079bc:	b295      	uxth	r5, r2
100079be:	b286      	uxth	r6, r0
100079c0:	4375      	muls	r5, r6
100079c2:	0c17      	lsrs	r7, r2, #16
100079c4:	437e      	muls	r6, r7
100079c6:	0c03      	lsrs	r3, r0, #16
100079c8:	435f      	muls	r7, r3
100079ca:	b292      	uxth	r2, r2
100079cc:	435a      	muls	r2, r3
100079ce:	18b6      	adds	r6, r6, r2
100079d0:	d302      	bcc.n	100079d8 <l23_1>
100079d2:	2201      	movs	r2, #1
100079d4:	0412      	lsls	r2, r2, #16
100079d6:	18bf      	adds	r7, r7, r2

100079d8 <l23_1>:
100079d8:	0432      	lsls	r2, r6, #16
100079da:	0c33      	lsrs	r3, r6, #16
100079dc:	1952      	adds	r2, r2, r5
100079de:	417b      	adcs	r3, r7
100079e0:	4252      	negs	r2, r2
100079e2:	419c      	sbcs	r4, r3
100079e4:	2c00      	cmp	r4, #0
100079e6:	d402      	bmi.n	100079ee <l23_1+0x16>
100079e8:	2200      	movs	r2, #0
100079ea:	3001      	adds	r0, #1
100079ec:	4151      	adcs	r1, r2
100079ee:	0840      	lsrs	r0, r0, #1
100079f0:	07ca      	lsls	r2, r1, #31
100079f2:	4310      	orrs	r0, r2
100079f4:	0849      	lsrs	r1, r1, #1

100079f6 <dd_2>:
100079f6:	b002      	add	sp, #8
100079f8:	4662      	mov	r2, ip
100079fa:	07d7      	lsls	r7, r2, #31
100079fc:	1092      	asrs	r2, r2, #2
100079fe:	4b08      	ldr	r3, [pc, #32]	; (10007a20 <dd_4+0x6>)
10007a00:	18d2      	adds	r2, r2, r3
10007a02:	4b08      	ldr	r3, [pc, #32]	; (10007a24 <dd_4+0xa>)
10007a04:	429a      	cmp	r2, r3
10007a06:	d203      	bcs.n	10007a10 <dd_3>
10007a08:	0512      	lsls	r2, r2, #20
10007a0a:	1889      	adds	r1, r1, r2

10007a0c <dd_5>:
10007a0c:	19c9      	adds	r1, r1, r7
10007a0e:	bdf0      	pop	{r4, r5, r6, r7, pc}

10007a10 <dd_3>:
10007a10:	2000      	movs	r0, #0
10007a12:	2a00      	cmp	r2, #0
10007a14:	dc01      	bgt.n	10007a1a <dd_4>
10007a16:	0039      	movs	r1, r7
10007a18:	bdf0      	pop	{r4, r5, r6, r7, pc}

10007a1a <dd_4>:
10007a1a:	3301      	adds	r3, #1
10007a1c:	0519      	lsls	r1, r3, #20
10007a1e:	e7f5      	b.n	10007a0c <dd_5>
10007a20:	000003fd 	.word	0x000003fd
10007a24:	000007fe 	.word	0x000007fe

10007a28 <double2uint_shim>:
10007a28:	2200      	movs	r2, #0

10007a2a <double2ufix_shim>:
10007a2a:	b500      	push	{lr}
10007a2c:	3220      	adds	r2, #32
10007a2e:	f000 f804 	bl	10007a3a <double2ufix64_shim>
10007a32:	0008      	movs	r0, r1
10007a34:	bd00      	pop	{pc}
	...

10007a38 <double2uint64_shim>:
10007a38:	2200      	movs	r2, #0

10007a3a <double2ufix64_shim>:
10007a3a:	150b      	asrs	r3, r1, #20
10007a3c:	d40a      	bmi.n	10007a54 <ret_dzero>

10007a3e <d2fix>:
10007a3e:	b510      	push	{r4, lr}
10007a40:	4694      	mov	ip, r2
10007a42:	f000 f831 	bl	10007aa8 <dunpacks>
10007a46:	1414      	asrs	r4, r2, #16
10007a48:	3401      	adds	r4, #1
10007a4a:	da00      	bge.n	10007a4e <d2fix+0x10>
10007a4c:	2100      	movs	r1, #0
10007a4e:	17cb      	asrs	r3, r1, #31
10007a50:	4c14      	ldr	r4, [pc, #80]	; (10007aa4 <d2fix_a+0x4a>)
10007a52:	4720      	bx	r4

10007a54 <ret_dzero>:
10007a54:	2000      	movs	r0, #0
10007a56:	2100      	movs	r1, #0
10007a58:	4770      	bx	lr

10007a5a <d2fix_a>:
10007a5a:	4462      	add	r2, ip
10007a5c:	3a34      	subs	r2, #52	; 0x34
10007a5e:	d40c      	bmi.n	10007a7a <d2fix_a+0x20>
10007a60:	2a0c      	cmp	r2, #12
10007a62:	da07      	bge.n	10007a74 <d2fix_a+0x1a>
10007a64:	0004      	movs	r4, r0
10007a66:	4091      	lsls	r1, r2
10007a68:	4090      	lsls	r0, r2
10007a6a:	4252      	negs	r2, r2
10007a6c:	3220      	adds	r2, #32
10007a6e:	40d4      	lsrs	r4, r2
10007a70:	4321      	orrs	r1, r4
10007a72:	bd10      	pop	{r4, pc}
10007a74:	43d8      	mvns	r0, r3
10007a76:	43d9      	mvns	r1, r3
10007a78:	bd10      	pop	{r4, pc}
10007a7a:	3220      	adds	r2, #32
10007a7c:	d407      	bmi.n	10007a8e <d2fix_a+0x34>
10007a7e:	460c      	mov	r4, r1
10007a80:	4094      	lsls	r4, r2
10007a82:	4252      	negs	r2, r2
10007a84:	3220      	adds	r2, #32
10007a86:	4111      	asrs	r1, r2
10007a88:	40d0      	lsrs	r0, r2
10007a8a:	4320      	orrs	r0, r4
10007a8c:	bd10      	pop	{r4, pc}
10007a8e:	0008      	movs	r0, r1
10007a90:	17c9      	asrs	r1, r1, #31
10007a92:	3220      	adds	r2, #32
10007a94:	d403      	bmi.n	10007a9e <d2fix_a+0x44>
10007a96:	4252      	negs	r2, r2
10007a98:	3220      	adds	r2, #32
10007a9a:	4110      	asrs	r0, r2
10007a9c:	bd10      	pop	{r4, pc}
10007a9e:	0018      	movs	r0, r3
10007aa0:	0019      	movs	r1, r3
10007aa2:	bd10      	pop	{r4, pc}
10007aa4:	10007a5b 	.word	0x10007a5b

10007aa8 <dunpacks>:
10007aa8:	0d0a      	lsrs	r2, r1, #20
10007aaa:	0fcc      	lsrs	r4, r1, #31
10007aac:	1e53      	subs	r3, r2, #1
10007aae:	051b      	lsls	r3, r3, #20
10007ab0:	1ac9      	subs	r1, r1, r3
10007ab2:	0552      	lsls	r2, r2, #21
10007ab4:	d303      	bcc.n	10007abe <l59_1>
10007ab6:	43c9      	mvns	r1, r1
10007ab8:	4240      	negs	r0, r0
10007aba:	d300      	bcc.n	10007abe <l59_1>
10007abc:	3101      	adds	r1, #1

10007abe <l59_1>:
10007abe:	0d52      	lsrs	r2, r2, #21
10007ac0:	d003      	beq.n	10007aca <l59_2>
10007ac2:	1c53      	adds	r3, r2, #1
10007ac4:	0adb      	lsrs	r3, r3, #11
10007ac6:	d007      	beq.n	10007ad8 <l59_3>
10007ac8:	1b12      	subs	r2, r2, r4

10007aca <l59_2>:
10007aca:	2000      	movs	r0, #0
10007acc:	0064      	lsls	r4, r4, #1
10007ace:	1c61      	adds	r1, r4, #1
10007ad0:	0789      	lsls	r1, r1, #30
10007ad2:	1289      	asrs	r1, r1, #10
10007ad4:	3a80      	subs	r2, #128	; 0x80
10007ad6:	0312      	lsls	r2, r2, #12

10007ad8 <l59_3>:
10007ad8:	4b01      	ldr	r3, [pc, #4]	; (10007ae0 <l59_3+0x8>)
10007ada:	1ad2      	subs	r2, r2, r3
10007adc:	4770      	bx	lr
10007ade:	0000      	.short	0x0000
10007ae0:	000003ff 	.word	0x000003ff

10007ae4 <__wrap___aeabi_lmul>:
10007ae4:	4351      	muls	r1, r2
10007ae6:	4343      	muls	r3, r0
10007ae8:	18c9      	adds	r1, r1, r3
10007aea:	468c      	mov	ip, r1
10007aec:	0c11      	lsrs	r1, r2, #16
10007aee:	b283      	uxth	r3, r0
10007af0:	434b      	muls	r3, r1
10007af2:	b410      	push	{r4}
10007af4:	0c04      	lsrs	r4, r0, #16
10007af6:	4361      	muls	r1, r4
10007af8:	b292      	uxth	r2, r2
10007afa:	b280      	uxth	r0, r0
10007afc:	4350      	muls	r0, r2
10007afe:	4362      	muls	r2, r4
10007b00:	041c      	lsls	r4, r3, #16
10007b02:	0c1b      	lsrs	r3, r3, #16
10007b04:	1900      	adds	r0, r0, r4
10007b06:	bc10      	pop	{r4}
10007b08:	4159      	adcs	r1, r3
10007b0a:	0413      	lsls	r3, r2, #16
10007b0c:	0c12      	lsrs	r2, r2, #16
10007b0e:	18c0      	adds	r0, r0, r3
10007b10:	4151      	adcs	r1, r2
10007b12:	4461      	add	r1, ip
10007b14:	4770      	bx	lr
	...

10007b18 <__aeabi_float_init>:
10007b18:	b570      	push	{r4, r5, r6, lr}
10007b1a:	2313      	movs	r3, #19
10007b1c:	781d      	ldrb	r5, [r3, #0]
10007b1e:	482a      	ldr	r0, [pc, #168]	; (10007bc8 <__aeabi_float_init+0xb0>)
10007b20:	f7ff f950 	bl	10006dc4 <rom_data_lookup>
10007b24:	0004      	movs	r4, r0
10007b26:	2d01      	cmp	r5, #1
10007b28:	d011      	beq.n	10007b4e <__aeabi_float_init+0x36>
10007b2a:	2d01      	cmp	r5, #1
10007b2c:	dd09      	ble.n	10007b42 <__aeabi_float_init+0x2a>
10007b2e:	1ea3      	subs	r3, r4, #2
10007b30:	781b      	ldrb	r3, [r3, #0]
10007b32:	009b      	lsls	r3, r3, #2
10007b34:	2b7f      	cmp	r3, #127	; 0x7f
10007b36:	dd40      	ble.n	10007bba <__aeabi_float_init+0xa2>
10007b38:	2280      	movs	r2, #128	; 0x80
10007b3a:	0021      	movs	r1, r4
10007b3c:	4823      	ldr	r0, [pc, #140]	; (10007bcc <__aeabi_float_init+0xb4>)
10007b3e:	f000 f8b9 	bl	10007cb4 <__wrap___aeabi_memcpy>
10007b42:	4823      	ldr	r0, [pc, #140]	; (10007bd0 <__aeabi_float_init+0xb8>)
10007b44:	f7ff f936 	bl	10006db4 <rom_func_lookup>
10007b48:	4b22      	ldr	r3, [pc, #136]	; (10007bd4 <__aeabi_float_init+0xbc>)
10007b4a:	6018      	str	r0, [r3, #0]
10007b4c:	bd70      	pop	{r4, r5, r6, pc}
10007b4e:	2254      	movs	r2, #84	; 0x54
10007b50:	0001      	movs	r1, r0
10007b52:	481e      	ldr	r0, [pc, #120]	; (10007bcc <__aeabi_float_init+0xb4>)
10007b54:	f000 f8ae 	bl	10007cb4 <__wrap___aeabi_memcpy>
10007b58:	4b1f      	ldr	r3, [pc, #124]	; (10007bd8 <__aeabi_float_init+0xc0>)
10007b5a:	881a      	ldrh	r2, [r3, #0]
10007b5c:	4b1f      	ldr	r3, [pc, #124]	; (10007bdc <__aeabi_float_init+0xc4>)
10007b5e:	429a      	cmp	r2, r3
10007b60:	d11c      	bne.n	10007b9c <__aeabi_float_init+0x84>
10007b62:	23a7      	movs	r3, #167	; 0xa7
10007b64:	019b      	lsls	r3, r3, #6
10007b66:	881a      	ldrh	r2, [r3, #0]
10007b68:	4b1d      	ldr	r3, [pc, #116]	; (10007be0 <__aeabi_float_init+0xc8>)
10007b6a:	429a      	cmp	r2, r3
10007b6c:	d116      	bne.n	10007b9c <__aeabi_float_init+0x84>
10007b6e:	4b1d      	ldr	r3, [pc, #116]	; (10007be4 <__aeabi_float_init+0xcc>)
10007b70:	881a      	ldrh	r2, [r3, #0]
10007b72:	4b1d      	ldr	r3, [pc, #116]	; (10007be8 <__aeabi_float_init+0xd0>)
10007b74:	429a      	cmp	r2, r3
10007b76:	d111      	bne.n	10007b9c <__aeabi_float_init+0x84>
10007b78:	4b1c      	ldr	r3, [pc, #112]	; (10007bec <__aeabi_float_init+0xd4>)
10007b7a:	881a      	ldrh	r2, [r3, #0]
10007b7c:	2394      	movs	r3, #148	; 0x94
10007b7e:	019b      	lsls	r3, r3, #6
10007b80:	429a      	cmp	r2, r3
10007b82:	d10b      	bne.n	10007b9c <__aeabi_float_init+0x84>
10007b84:	4b1a      	ldr	r3, [pc, #104]	; (10007bf0 <__aeabi_float_init+0xd8>)
10007b86:	881a      	ldrh	r2, [r3, #0]
10007b88:	4b1a      	ldr	r3, [pc, #104]	; (10007bf4 <__aeabi_float_init+0xdc>)
10007b8a:	429a      	cmp	r2, r3
10007b8c:	d106      	bne.n	10007b9c <__aeabi_float_init+0x84>
10007b8e:	4b1a      	ldr	r3, [pc, #104]	; (10007bf8 <__aeabi_float_init+0xe0>)
10007b90:	681a      	ldr	r2, [r3, #0]
10007b92:	4b1a      	ldr	r3, [pc, #104]	; (10007bfc <__aeabi_float_init+0xe4>)
10007b94:	429a      	cmp	r2, r3
10007b96:	d101      	bne.n	10007b9c <__aeabi_float_init+0x84>
10007b98:	2315      	movs	r3, #21
10007b9a:	e007      	b.n	10007bac <__aeabi_float_init+0x94>
10007b9c:	4818      	ldr	r0, [pc, #96]	; (10007c00 <__aeabi_float_init+0xe8>)
10007b9e:	f7fd fe21 	bl	100057e4 <panic>
10007ba2:	0099      	lsls	r1, r3, #2
10007ba4:	4817      	ldr	r0, [pc, #92]	; (10007c04 <__aeabi_float_init+0xec>)
10007ba6:	4a09      	ldr	r2, [pc, #36]	; (10007bcc <__aeabi_float_init+0xb4>)
10007ba8:	5088      	str	r0, [r1, r2]
10007baa:	3301      	adds	r3, #1
10007bac:	2b1f      	cmp	r3, #31
10007bae:	d9f8      	bls.n	10007ba2 <__aeabi_float_init+0x8a>
10007bb0:	4a14      	ldr	r2, [pc, #80]	; (10007c04 <__aeabi_float_init+0xec>)
10007bb2:	4b06      	ldr	r3, [pc, #24]	; (10007bcc <__aeabi_float_init+0xb4>)
10007bb4:	621a      	str	r2, [r3, #32]
10007bb6:	61da      	str	r2, [r3, #28]
10007bb8:	e7b7      	b.n	10007b2a <__aeabi_float_init+0x12>
10007bba:	4b13      	ldr	r3, [pc, #76]	; (10007c08 <__aeabi_float_init+0xf0>)
10007bbc:	4a13      	ldr	r2, [pc, #76]	; (10007c0c <__aeabi_float_init+0xf4>)
10007bbe:	2142      	movs	r1, #66	; 0x42
10007bc0:	4813      	ldr	r0, [pc, #76]	; (10007c10 <__aeabi_float_init+0xf8>)
10007bc2:	f7fd fd75 	bl	100056b0 <__assert_func>
10007bc6:	46c0      	nop			; (mov r8, r8)
10007bc8:	00004653 	.word	0x00004653
10007bcc:	200019f0 	.word	0x200019f0
10007bd0:	0000334c 	.word	0x0000334c
10007bd4:	200019ec 	.word	0x200019ec
10007bd8:	000029ee 	.word	0x000029ee
10007bdc:	00000fc4 	.word	0x00000fc4
10007be0:	00000dc2 	.word	0x00000dc2
10007be4:	00002b96 	.word	0x00002b96
10007be8:	0000b5c0 	.word	0x0000b5c0
10007bec:	00002b18 	.word	0x00002b18
10007bf0:	00002acc 	.word	0x00002acc
10007bf4:	0000b510 	.word	0x0000b510
10007bf8:	00002cfc 	.word	0x00002cfc
10007bfc:	6487ed51 	.word	0x6487ed51
10007c00:	1000c5b4 	.word	0x1000c5b4
10007c04:	10007c15 	.word	0x10007c15
10007c08:	1000d5b8 	.word	0x1000d5b8
10007c0c:	1000d63c 	.word	0x1000d63c
10007c10:	1000d5ec 	.word	0x1000d5ec

10007c14 <float_table_shim_on_use_helper>:
10007c14:	b507      	push	{r0, r1, r2, lr}
10007c16:	4660      	mov	r0, ip
10007c18:	2800      	cmp	r0, #0
10007c1a:	d100      	bne.n	10007c1e <float_table_shim_on_use_helper+0xa>
10007c1c:	be00      	bkpt	0x0000
10007c1e:	8801      	ldrh	r1, [r0, #0]
10007c20:	0a0a      	lsrs	r2, r1, #8
10007c22:	3002      	adds	r0, #2
10007c24:	2adf      	cmp	r2, #223	; 0xdf
10007c26:	d1fa      	bne.n	10007c1e <float_table_shim_on_use_helper+0xa>
10007c28:	b2c9      	uxtb	r1, r1
10007c2a:	0882      	lsrs	r2, r0, #2
10007c2c:	d304      	bcc.n	10007c38 <float_table_shim_on_use_helper+0x24>
10007c2e:	8802      	ldrh	r2, [r0, #0]
10007c30:	8840      	ldrh	r0, [r0, #2]
10007c32:	0400      	lsls	r0, r0, #16
10007c34:	4310      	orrs	r0, r2
10007c36:	e000      	b.n	10007c3a <float_table_shim_on_use_helper+0x26>
10007c38:	6800      	ldr	r0, [r0, #0]
10007c3a:	4a02      	ldr	r2, [pc, #8]	; (10007c44 <float_table_shim_on_use_helper+0x30>)
10007c3c:	5050      	str	r0, [r2, r1]
10007c3e:	9003      	str	r0, [sp, #12]
10007c40:	bd07      	pop	{r0, r1, r2, pc}
10007c42:	0000      	.short	0x0000
10007c44:	200019f0 	.word	0x200019f0

10007c48 <__wrap_malloc>:
10007c48:	b510      	push	{r4, lr}
10007c4a:	0004      	movs	r4, r0
10007c4c:	f003 f8c6 	bl	1000addc <malloc>
10007c50:	2800      	cmp	r0, #0
10007c52:	d004      	beq.n	10007c5e <__wrap_malloc+0x16>
10007c54:	1904      	adds	r4, r0, r4
10007c56:	4b03      	ldr	r3, [pc, #12]	; (10007c64 <__wrap_malloc+0x1c>)
10007c58:	429c      	cmp	r4, r3
10007c5a:	d800      	bhi.n	10007c5e <__wrap_malloc+0x16>
10007c5c:	bd10      	pop	{r4, pc}
10007c5e:	4802      	ldr	r0, [pc, #8]	; (10007c68 <__wrap_malloc+0x20>)
10007c60:	f7fd fdc0 	bl	100057e4 <panic>
10007c64:	20040000 	.word	0x20040000
10007c68:	1000d650 	.word	0x1000d650

10007c6c <__wrap_calloc>:
10007c6c:	b510      	push	{r4, lr}
10007c6e:	000c      	movs	r4, r1
10007c70:	f003 f800 	bl	1000ac74 <calloc>
10007c74:	2800      	cmp	r0, #0
10007c76:	d004      	beq.n	10007c82 <__wrap_calloc+0x16>
10007c78:	1904      	adds	r4, r0, r4
10007c7a:	4b03      	ldr	r3, [pc, #12]	; (10007c88 <__wrap_calloc+0x1c>)
10007c7c:	429c      	cmp	r4, r3
10007c7e:	d800      	bhi.n	10007c82 <__wrap_calloc+0x16>
10007c80:	bd10      	pop	{r4, pc}
10007c82:	4802      	ldr	r0, [pc, #8]	; (10007c8c <__wrap_calloc+0x20>)
10007c84:	f7fd fdae 	bl	100057e4 <panic>
10007c88:	20040000 	.word	0x20040000
10007c8c:	1000d650 	.word	0x1000d650

10007c90 <__wrap_free>:
10007c90:	b510      	push	{r4, lr}
10007c92:	f003 f8ad 	bl	1000adf0 <free>
10007c96:	bd10      	pop	{r4, pc}

10007c98 <__aeabi_mem_init>:
10007c98:	4801      	ldr	r0, [pc, #4]	; (10007ca0 <__aeabi_mem_init+0x8>)
10007c9a:	2104      	movs	r1, #4
10007c9c:	4b01      	ldr	r3, [pc, #4]	; (10007ca4 <__aeabi_mem_init+0xc>)
10007c9e:	4718      	bx	r3
10007ca0:	200004b0 	.word	0x200004b0
10007ca4:	10006dd5 	.word	0x10006dd5

10007ca8 <__wrap_memset>:
10007ca8:	4b01      	ldr	r3, [pc, #4]	; (10007cb0 <__wrap_memset+0x8>)
10007caa:	681b      	ldr	r3, [r3, #0]
10007cac:	4718      	bx	r3
10007cae:	0000      	.short	0x0000
10007cb0:	200004b0 	.word	0x200004b0

10007cb4 <__wrap___aeabi_memcpy>:
10007cb4:	4b01      	ldr	r3, [pc, #4]	; (10007cbc <__wrap___aeabi_memcpy+0x8>)
10007cb6:	685b      	ldr	r3, [r3, #4]
10007cb8:	4718      	bx	r3
10007cba:	0000      	.short	0x0000
10007cbc:	200004b0 	.word	0x200004b0

10007cc0 <stdio_out_chars_no_crlf>:
10007cc0:	b510      	push	{r4, lr}
10007cc2:	0003      	movs	r3, r0
10007cc4:	0008      	movs	r0, r1
10007cc6:	0011      	movs	r1, r2
10007cc8:	681b      	ldr	r3, [r3, #0]
10007cca:	4798      	blx	r3
10007ccc:	bd10      	pop	{r4, pc}
	...

10007cd0 <stdio_out_chars_crlf>:
10007cd0:	b5f8      	push	{r3, r4, r5, r6, r7, lr}
10007cd2:	0007      	movs	r7, r0
10007cd4:	000d      	movs	r5, r1
10007cd6:	0016      	movs	r6, r2
10007cd8:	7c43      	ldrb	r3, [r0, #17]
10007cda:	2b00      	cmp	r3, #0
10007cdc:	d002      	beq.n	10007ce4 <stdio_out_chars_crlf+0x14>
10007cde:	2400      	movs	r4, #0
10007ce0:	2000      	movs	r0, #0
10007ce2:	e00c      	b.n	10007cfe <stdio_out_chars_crlf+0x2e>
10007ce4:	6803      	ldr	r3, [r0, #0]
10007ce6:	0011      	movs	r1, r2
10007ce8:	0028      	movs	r0, r5
10007cea:	4798      	blx	r3
10007cec:	e02d      	b.n	10007d4a <stdio_out_chars_crlf+0x7a>
10007cee:	7c3b      	ldrb	r3, [r7, #16]
10007cf0:	e010      	b.n	10007d14 <stdio_out_chars_crlf+0x44>
10007cf2:	2102      	movs	r1, #2
10007cf4:	4815      	ldr	r0, [pc, #84]	; (10007d4c <stdio_out_chars_crlf+0x7c>)
10007cf6:	683b      	ldr	r3, [r7, #0]
10007cf8:	4798      	blx	r3
10007cfa:	1c60      	adds	r0, r4, #1
10007cfc:	3401      	adds	r4, #1
10007cfe:	42b4      	cmp	r4, r6
10007d00:	da14      	bge.n	10007d2c <stdio_out_chars_crlf+0x5c>
10007d02:	2c00      	cmp	r4, #0
10007d04:	ddf3      	ble.n	10007cee <stdio_out_chars_crlf+0x1e>
10007d06:	192b      	adds	r3, r5, r4
10007d08:	3b01      	subs	r3, #1
10007d0a:	781b      	ldrb	r3, [r3, #0]
10007d0c:	3b0d      	subs	r3, #13
10007d0e:	425a      	negs	r2, r3
10007d10:	4153      	adcs	r3, r2
10007d12:	b2db      	uxtb	r3, r3
10007d14:	5d2a      	ldrb	r2, [r5, r4]
10007d16:	2a0a      	cmp	r2, #10
10007d18:	d1f0      	bne.n	10007cfc <stdio_out_chars_crlf+0x2c>
10007d1a:	2b00      	cmp	r3, #0
10007d1c:	d1ee      	bne.n	10007cfc <stdio_out_chars_crlf+0x2c>
10007d1e:	42a0      	cmp	r0, r4
10007d20:	dae7      	bge.n	10007cf2 <stdio_out_chars_crlf+0x22>
10007d22:	1a21      	subs	r1, r4, r0
10007d24:	1828      	adds	r0, r5, r0
10007d26:	683b      	ldr	r3, [r7, #0]
10007d28:	4798      	blx	r3
10007d2a:	e7e2      	b.n	10007cf2 <stdio_out_chars_crlf+0x22>
10007d2c:	42b0      	cmp	r0, r6
10007d2e:	da03      	bge.n	10007d38 <stdio_out_chars_crlf+0x68>
10007d30:	1a31      	subs	r1, r6, r0
10007d32:	1828      	adds	r0, r5, r0
10007d34:	683b      	ldr	r3, [r7, #0]
10007d36:	4798      	blx	r3
10007d38:	2e00      	cmp	r6, #0
10007d3a:	dd06      	ble.n	10007d4a <stdio_out_chars_crlf+0x7a>
10007d3c:	19ad      	adds	r5, r5, r6
10007d3e:	3d01      	subs	r5, #1
10007d40:	782b      	ldrb	r3, [r5, #0]
10007d42:	3b0d      	subs	r3, #13
10007d44:	425a      	negs	r2, r3
10007d46:	4153      	adcs	r3, r2
10007d48:	743b      	strb	r3, [r7, #16]
10007d4a:	bdf8      	pop	{r3, r4, r5, r6, r7, pc}
10007d4c:	1000d6c4 	.word	0x1000d6c4

10007d50 <stdio_stack_buffer_flush>:
10007d50:	b570      	push	{r4, r5, r6, lr}
10007d52:	0005      	movs	r5, r0
10007d54:	6803      	ldr	r3, [r0, #0]
10007d56:	2b00      	cmp	r3, #0
10007d58:	d016      	beq.n	10007d88 <stdio_stack_buffer_flush+0x38>
10007d5a:	4b0c      	ldr	r3, [pc, #48]	; (10007d8c <stdio_stack_buffer_flush+0x3c>)
10007d5c:	681c      	ldr	r4, [r3, #0]
10007d5e:	e005      	b.n	10007d6c <stdio_stack_buffer_flush+0x1c>
10007d60:	0029      	movs	r1, r5
10007d62:	c904      	ldmia	r1!, {r2}
10007d64:	0020      	movs	r0, r4
10007d66:	f7ff ffb3 	bl	10007cd0 <stdio_out_chars_crlf>
10007d6a:	68e4      	ldr	r4, [r4, #12]
10007d6c:	2c00      	cmp	r4, #0
10007d6e:	d009      	beq.n	10007d84 <stdio_stack_buffer_flush+0x34>
10007d70:	6823      	ldr	r3, [r4, #0]
10007d72:	2b00      	cmp	r3, #0
10007d74:	d0f9      	beq.n	10007d6a <stdio_stack_buffer_flush+0x1a>
10007d76:	4b06      	ldr	r3, [pc, #24]	; (10007d90 <stdio_stack_buffer_flush+0x40>)
10007d78:	681b      	ldr	r3, [r3, #0]
10007d7a:	2b00      	cmp	r3, #0
10007d7c:	d0f0      	beq.n	10007d60 <stdio_stack_buffer_flush+0x10>
10007d7e:	42a3      	cmp	r3, r4
10007d80:	d1f3      	bne.n	10007d6a <stdio_stack_buffer_flush+0x1a>
10007d82:	e7ed      	b.n	10007d60 <stdio_stack_buffer_flush+0x10>
10007d84:	2300      	movs	r3, #0
10007d86:	602b      	str	r3, [r5, #0]
10007d88:	bd70      	pop	{r4, r5, r6, pc}
10007d8a:	46c0      	nop			; (mov r8, r8)
10007d8c:	200014bc 	.word	0x200014bc
10007d90:	200014c4 	.word	0x200014c4

10007d94 <stdio_buffered_printer>:
10007d94:	b570      	push	{r4, r5, r6, lr}
10007d96:	0005      	movs	r5, r0
10007d98:	000c      	movs	r4, r1
10007d9a:	680b      	ldr	r3, [r1, #0]
10007d9c:	2b80      	cmp	r3, #128	; 0x80
10007d9e:	d005      	beq.n	10007dac <stdio_buffered_printer+0x18>
10007da0:	6821      	ldr	r1, [r4, #0]
10007da2:	1c4b      	adds	r3, r1, #1
10007da4:	6023      	str	r3, [r4, #0]
10007da6:	1864      	adds	r4, r4, r1
10007da8:	7125      	strb	r5, [r4, #4]
10007daa:	bd70      	pop	{r4, r5, r6, pc}
10007dac:	0008      	movs	r0, r1
10007dae:	f7ff ffcf 	bl	10007d50 <stdio_stack_buffer_flush>
10007db2:	e7f5      	b.n	10007da0 <stdio_buffered_printer+0xc>

10007db4 <stdio_get_until>:
10007db4:	b5f0      	push	{r4, r5, r6, r7, lr}
10007db6:	b083      	sub	sp, #12
10007db8:	0007      	movs	r7, r0
10007dba:	000e      	movs	r6, r1
10007dbc:	9200      	str	r2, [sp, #0]
10007dbe:	9301      	str	r3, [sp, #4]
10007dc0:	e028      	b.n	10007e14 <stdio_get_until+0x60>
10007dc2:	68a3      	ldr	r3, [r4, #8]
10007dc4:	2b00      	cmp	r3, #0
10007dc6:	d004      	beq.n	10007dd2 <stdio_get_until+0x1e>
10007dc8:	0031      	movs	r1, r6
10007dca:	0038      	movs	r0, r7
10007dcc:	4798      	blx	r3
10007dce:	2800      	cmp	r0, #0
10007dd0:	dc27      	bgt.n	10007e22 <stdio_get_until+0x6e>
10007dd2:	68e4      	ldr	r4, [r4, #12]
10007dd4:	2c00      	cmp	r4, #0
10007dd6:	d006      	beq.n	10007de6 <stdio_get_until+0x32>
10007dd8:	4b13      	ldr	r3, [pc, #76]	; (10007e28 <stdio_get_until+0x74>)
10007dda:	681d      	ldr	r5, [r3, #0]
10007ddc:	2d00      	cmp	r5, #0
10007dde:	d0f0      	beq.n	10007dc2 <stdio_get_until+0xe>
10007de0:	42a5      	cmp	r5, r4
10007de2:	d1f6      	bne.n	10007dd2 <stdio_get_until+0x1e>
10007de4:	e7ed      	b.n	10007dc2 <stdio_get_until+0xe>
10007de6:	9900      	ldr	r1, [sp, #0]
10007de8:	9a01      	ldr	r2, [sp, #4]
10007dea:	4b10      	ldr	r3, [pc, #64]	; (10007e2c <stdio_get_until+0x78>)
10007dec:	6a5b      	ldr	r3, [r3, #36]	; 0x24
10007dee:	429a      	cmp	r2, r3
10007df0:	d809      	bhi.n	10007e06 <stdio_get_until+0x52>
10007df2:	480e      	ldr	r0, [pc, #56]	; (10007e2c <stdio_get_until+0x78>)
10007df4:	6a80      	ldr	r0, [r0, #40]	; 0x28
10007df6:	4288      	cmp	r0, r1
10007df8:	d20f      	bcs.n	10007e1a <stdio_get_until+0x66>
10007dfa:	429a      	cmp	r2, r3
10007dfc:	d001      	beq.n	10007e02 <stdio_get_until+0x4e>
10007dfe:	2301      	movs	r3, #1
10007e00:	e002      	b.n	10007e08 <stdio_get_until+0x54>
10007e02:	2300      	movs	r3, #0
10007e04:	e000      	b.n	10007e08 <stdio_get_until+0x54>
10007e06:	2300      	movs	r3, #0
10007e08:	2b00      	cmp	r3, #0
10007e0a:	d108      	bne.n	10007e1e <stdio_get_until+0x6a>
10007e0c:	2001      	movs	r0, #1
10007e0e:	2100      	movs	r1, #0
10007e10:	f7fd f8ec 	bl	10004fec <busy_wait_us>
10007e14:	4b06      	ldr	r3, [pc, #24]	; (10007e30 <stdio_get_until+0x7c>)
10007e16:	681c      	ldr	r4, [r3, #0]
10007e18:	e7dc      	b.n	10007dd4 <stdio_get_until+0x20>
10007e1a:	2301      	movs	r3, #1
10007e1c:	e7f4      	b.n	10007e08 <stdio_get_until+0x54>
10007e1e:	2001      	movs	r0, #1
10007e20:	4240      	negs	r0, r0
10007e22:	b003      	add	sp, #12
10007e24:	bdf0      	pop	{r4, r5, r6, r7, pc}
10007e26:	46c0      	nop			; (mov r8, r8)
10007e28:	200014c4 	.word	0x200014c4
10007e2c:	40054000 	.word	0x40054000
10007e30:	200014bc 	.word	0x200014bc

10007e34 <stdout_serialize_begin>:
10007e34:	b510      	push	{r4, lr}
10007e36:	b082      	sub	sp, #8
10007e38:	23d0      	movs	r3, #208	; 0xd0
10007e3a:	061b      	lsls	r3, r3, #24
10007e3c:	2400      	movs	r4, #0
10007e3e:	571c      	ldrsb	r4, [r3, r4]
10007e40:	a901      	add	r1, sp, #4
10007e42:	4807      	ldr	r0, [pc, #28]	; (10007e60 <stdout_serialize_begin+0x2c>)
10007e44:	f004 f980 	bl	1000c148 <__mutex_try_enter_veneer>
10007e48:	2800      	cmp	r0, #0
10007e4a:	d106      	bne.n	10007e5a <stdout_serialize_begin+0x26>
10007e4c:	9b01      	ldr	r3, [sp, #4]
10007e4e:	429c      	cmp	r4, r3
10007e50:	d003      	beq.n	10007e5a <stdout_serialize_begin+0x26>
10007e52:	4803      	ldr	r0, [pc, #12]	; (10007e60 <stdout_serialize_begin+0x2c>)
10007e54:	f004 f988 	bl	1000c168 <__mutex_enter_blocking_veneer>
10007e58:	2001      	movs	r0, #1
10007e5a:	b002      	add	sp, #8
10007e5c:	bd10      	pop	{r4, pc}
10007e5e:	46c0      	nop			; (mov r8, r8)
10007e60:	20000d40 	.word	0x20000d40

10007e64 <stdout_serialize_end>:
10007e64:	b510      	push	{r4, lr}
10007e66:	4802      	ldr	r0, [pc, #8]	; (10007e70 <stdout_serialize_end+0xc>)
10007e68:	f004 f956 	bl	1000c118 <__mutex_exit_veneer>
10007e6c:	bd10      	pop	{r4, pc}
10007e6e:	46c0      	nop			; (mov r8, r8)
10007e70:	20000d40 	.word	0x20000d40

10007e74 <stdio_put_string>:
10007e74:	b5f0      	push	{r4, r5, r6, r7, lr}
10007e76:	46ce      	mov	lr, r9
10007e78:	4647      	mov	r7, r8
10007e7a:	b580      	push	{r7, lr}
10007e7c:	b083      	sub	sp, #12
10007e7e:	0006      	movs	r6, r0
10007e80:	000d      	movs	r5, r1
10007e82:	4690      	mov	r8, r2
10007e84:	001c      	movs	r4, r3
10007e86:	f7ff ffd5 	bl	10007e34 <stdout_serialize_begin>
10007e8a:	4681      	mov	r9, r0
10007e8c:	1c6b      	adds	r3, r5, #1
10007e8e:	d005      	beq.n	10007e9c <stdio_put_string+0x28>
10007e90:	2c00      	cmp	r4, #0
10007e92:	d008      	beq.n	10007ea6 <stdio_put_string+0x32>
10007e94:	4f19      	ldr	r7, [pc, #100]	; (10007efc <stdio_put_string+0x88>)
10007e96:	4b1a      	ldr	r3, [pc, #104]	; (10007f00 <stdio_put_string+0x8c>)
10007e98:	681c      	ldr	r4, [r3, #0]
10007e9a:	e007      	b.n	10007eac <stdio_put_string+0x38>
10007e9c:	0030      	movs	r0, r6
10007e9e:	f003 fab9 	bl	1000b414 <strlen>
10007ea2:	0005      	movs	r5, r0
10007ea4:	e7f4      	b.n	10007e90 <stdio_put_string+0x1c>
10007ea6:	4f17      	ldr	r7, [pc, #92]	; (10007f04 <stdio_put_string+0x90>)
10007ea8:	e7f5      	b.n	10007e96 <stdio_put_string+0x22>
10007eaa:	68e4      	ldr	r4, [r4, #12]
10007eac:	2c00      	cmp	r4, #0
10007eae:	d017      	beq.n	10007ee0 <stdio_put_string+0x6c>
10007eb0:	6823      	ldr	r3, [r4, #0]
10007eb2:	2b00      	cmp	r3, #0
10007eb4:	d0f9      	beq.n	10007eaa <stdio_put_string+0x36>
10007eb6:	4b14      	ldr	r3, [pc, #80]	; (10007f08 <stdio_put_string+0x94>)
10007eb8:	681b      	ldr	r3, [r3, #0]
10007eba:	2b00      	cmp	r3, #0
10007ebc:	d001      	beq.n	10007ec2 <stdio_put_string+0x4e>
10007ebe:	42a3      	cmp	r3, r4
10007ec0:	d1f3      	bne.n	10007eaa <stdio_put_string+0x36>
10007ec2:	002a      	movs	r2, r5
10007ec4:	0031      	movs	r1, r6
10007ec6:	0020      	movs	r0, r4
10007ec8:	47b8      	blx	r7
10007eca:	4643      	mov	r3, r8
10007ecc:	2b00      	cmp	r3, #0
10007ece:	d0ec      	beq.n	10007eaa <stdio_put_string+0x36>
10007ed0:	466b      	mov	r3, sp
10007ed2:	1dd9      	adds	r1, r3, #7
10007ed4:	230a      	movs	r3, #10
10007ed6:	700b      	strb	r3, [r1, #0]
10007ed8:	2201      	movs	r2, #1
10007eda:	0020      	movs	r0, r4
10007edc:	47b8      	blx	r7
10007ede:	e7e4      	b.n	10007eaa <stdio_put_string+0x36>
10007ee0:	464b      	mov	r3, r9
10007ee2:	2b00      	cmp	r3, #0
10007ee4:	d107      	bne.n	10007ef6 <stdio_put_string+0x82>
10007ee6:	1e6b      	subs	r3, r5, #1
10007ee8:	419d      	sbcs	r5, r3
10007eea:	b2e8      	uxtb	r0, r5
10007eec:	b003      	add	sp, #12
10007eee:	bcc0      	pop	{r6, r7}
10007ef0:	46b9      	mov	r9, r7
10007ef2:	46b0      	mov	r8, r6
10007ef4:	bdf0      	pop	{r4, r5, r6, r7, pc}
10007ef6:	f7ff ffb5 	bl	10007e64 <stdout_serialize_end>
10007efa:	e7f4      	b.n	10007ee6 <stdio_put_string+0x72>
10007efc:	10007cc1 	.word	0x10007cc1
10007f00:	200014bc 	.word	0x200014bc
10007f04:	10007cd1 	.word	0x10007cd1
10007f08:	200014c4 	.word	0x200014c4

10007f0c <__wrap_putchar>:
10007f0c:	b510      	push	{r4, lr}
10007f0e:	b082      	sub	sp, #8
10007f10:	0004      	movs	r4, r0
10007f12:	466b      	mov	r3, sp
10007f14:	1dd8      	adds	r0, r3, #7
10007f16:	7004      	strb	r4, [r0, #0]
10007f18:	2300      	movs	r3, #0
10007f1a:	2200      	movs	r2, #0
10007f1c:	2101      	movs	r1, #1
10007f1e:	f7ff ffa9 	bl	10007e74 <stdio_put_string>
10007f22:	0020      	movs	r0, r4
10007f24:	b002      	add	sp, #8
10007f26:	bd10      	pop	{r4, pc}

10007f28 <_read>:
10007f28:	b510      	push	{r4, lr}
10007f2a:	0003      	movs	r3, r0
10007f2c:	0008      	movs	r0, r1
10007f2e:	0011      	movs	r1, r2
10007f30:	2b00      	cmp	r3, #0
10007f32:	d105      	bne.n	10007f40 <_read+0x18>
10007f34:	4b04      	ldr	r3, [pc, #16]	; (10007f48 <_read+0x20>)
10007f36:	681a      	ldr	r2, [r3, #0]
10007f38:	685b      	ldr	r3, [r3, #4]
10007f3a:	f7ff ff3b 	bl	10007db4 <stdio_get_until>
10007f3e:	bd10      	pop	{r4, pc}
10007f40:	2001      	movs	r0, #1
10007f42:	4240      	negs	r0, r0
10007f44:	e7fb      	b.n	10007f3e <_read+0x16>
10007f46:	46c0      	nop			; (mov r8, r8)
10007f48:	1000cd70 	.word	0x1000cd70

10007f4c <_write>:
10007f4c:	b510      	push	{r4, lr}
10007f4e:	0003      	movs	r3, r0
10007f50:	0008      	movs	r0, r1
10007f52:	0014      	movs	r4, r2
10007f54:	3b01      	subs	r3, #1
10007f56:	2b01      	cmp	r3, #1
10007f58:	d806      	bhi.n	10007f68 <_write+0x1c>
10007f5a:	2300      	movs	r3, #0
10007f5c:	2200      	movs	r2, #0
10007f5e:	0021      	movs	r1, r4
10007f60:	f7ff ff88 	bl	10007e74 <stdio_put_string>
10007f64:	0020      	movs	r0, r4
10007f66:	bd10      	pop	{r4, pc}
10007f68:	2001      	movs	r0, #1
10007f6a:	4240      	negs	r0, r0
10007f6c:	e7fb      	b.n	10007f66 <_write+0x1a>
	...

10007f70 <stdio_set_driver_enabled>:
10007f70:	4a09      	ldr	r2, [pc, #36]	; (10007f98 <stdio_set_driver_enabled+0x28>)
10007f72:	e001      	b.n	10007f78 <stdio_set_driver_enabled+0x8>
10007f74:	330c      	adds	r3, #12
10007f76:	001a      	movs	r2, r3
10007f78:	6813      	ldr	r3, [r2, #0]
10007f7a:	2b00      	cmp	r3, #0
10007f7c:	d008      	beq.n	10007f90 <stdio_set_driver_enabled+0x20>
10007f7e:	4283      	cmp	r3, r0
10007f80:	d1f8      	bne.n	10007f74 <stdio_set_driver_enabled+0x4>
10007f82:	2900      	cmp	r1, #0
10007f84:	d107      	bne.n	10007f96 <stdio_set_driver_enabled+0x26>
10007f86:	68c3      	ldr	r3, [r0, #12]
10007f88:	6013      	str	r3, [r2, #0]
10007f8a:	2300      	movs	r3, #0
10007f8c:	60c3      	str	r3, [r0, #12]
10007f8e:	e002      	b.n	10007f96 <stdio_set_driver_enabled+0x26>
10007f90:	2900      	cmp	r1, #0
10007f92:	d000      	beq.n	10007f96 <stdio_set_driver_enabled+0x26>
10007f94:	6010      	str	r0, [r2, #0]
10007f96:	4770      	bx	lr
10007f98:	200014bc 	.word	0x200014bc

10007f9c <stdio_flush>:
10007f9c:	b510      	push	{r4, lr}
10007f9e:	4b06      	ldr	r3, [pc, #24]	; (10007fb8 <stdio_flush+0x1c>)
10007fa0:	681c      	ldr	r4, [r3, #0]
10007fa2:	e001      	b.n	10007fa8 <stdio_flush+0xc>
10007fa4:	4798      	blx	r3
10007fa6:	68e4      	ldr	r4, [r4, #12]
10007fa8:	2c00      	cmp	r4, #0
10007faa:	d003      	beq.n	10007fb4 <stdio_flush+0x18>
10007fac:	6863      	ldr	r3, [r4, #4]
10007fae:	2b00      	cmp	r3, #0
10007fb0:	d1f8      	bne.n	10007fa4 <stdio_flush+0x8>
10007fb2:	e7f8      	b.n	10007fa6 <stdio_flush+0xa>
10007fb4:	bd10      	pop	{r4, pc}
10007fb6:	46c0      	nop			; (mov r8, r8)
10007fb8:	200014bc 	.word	0x200014bc

10007fbc <__wrap_puts>:
10007fbc:	b570      	push	{r4, r5, r6, lr}
10007fbe:	0005      	movs	r5, r0
10007fc0:	f003 fa28 	bl	1000b414 <strlen>
10007fc4:	0004      	movs	r4, r0
10007fc6:	2300      	movs	r3, #0
10007fc8:	2201      	movs	r2, #1
10007fca:	0001      	movs	r1, r0
10007fcc:	0028      	movs	r0, r5
10007fce:	f7ff ff51 	bl	10007e74 <stdio_put_string>
10007fd2:	f7ff ffe3 	bl	10007f9c <stdio_flush>
10007fd6:	0020      	movs	r0, r4
10007fd8:	bd70      	pop	{r4, r5, r6, pc}
	...

10007fdc <__wrap_vprintf>:
10007fdc:	b570      	push	{r4, r5, r6, lr}
10007fde:	b0a2      	sub	sp, #136	; 0x88
10007fe0:	0004      	movs	r4, r0
10007fe2:	000e      	movs	r6, r1
10007fe4:	f7ff ff26 	bl	10007e34 <stdout_serialize_begin>
10007fe8:	0005      	movs	r5, r0
10007fea:	2284      	movs	r2, #132	; 0x84
10007fec:	2100      	movs	r1, #0
10007fee:	a801      	add	r0, sp, #4
10007ff0:	f7ff fe5a 	bl	10007ca8 <__wrap_memset>
10007ff4:	0033      	movs	r3, r6
10007ff6:	0022      	movs	r2, r4
10007ff8:	a901      	add	r1, sp, #4
10007ffa:	4808      	ldr	r0, [pc, #32]	; (1000801c <__wrap_vprintf+0x40>)
10007ffc:	f7fe fec2 	bl	10006d84 <vfctprintf>
10008000:	0004      	movs	r4, r0
10008002:	a801      	add	r0, sp, #4
10008004:	f7ff fea4 	bl	10007d50 <stdio_stack_buffer_flush>
10008008:	f7ff ffc8 	bl	10007f9c <stdio_flush>
1000800c:	2d00      	cmp	r5, #0
1000800e:	d102      	bne.n	10008016 <__wrap_vprintf+0x3a>
10008010:	0020      	movs	r0, r4
10008012:	b022      	add	sp, #136	; 0x88
10008014:	bd70      	pop	{r4, r5, r6, pc}
10008016:	f7ff ff25 	bl	10007e64 <stdout_serialize_end>
1000801a:	e7f9      	b.n	10008010 <__wrap_vprintf+0x34>
1000801c:	10007d95 	.word	0x10007d95

10008020 <__wrap_printf>:
10008020:	b40f      	push	{r0, r1, r2, r3}
10008022:	b500      	push	{lr}
10008024:	b083      	sub	sp, #12
10008026:	a904      	add	r1, sp, #16
10008028:	c901      	ldmia	r1!, {r0}
1000802a:	9101      	str	r1, [sp, #4]
1000802c:	f7ff ffd6 	bl	10007fdc <__wrap_vprintf>
10008030:	b003      	add	sp, #12
10008032:	bc08      	pop	{r3}
10008034:	b004      	add	sp, #16
10008036:	4718      	bx	r3

10008038 <stdio_init_all>:
10008038:	b510      	push	{r4, lr}
1000803a:	f000 f953 	bl	100082e4 <stdio_usb_init>
1000803e:	bd10      	pop	{r4, pc}

10008040 <resetd_init>:
10008040:	4770      	bx	lr
	...

10008044 <resetd_reset>:
10008044:	4b01      	ldr	r3, [pc, #4]	; (1000804c <resetd_reset+0x8>)
10008046:	2200      	movs	r2, #0
10008048:	701a      	strb	r2, [r3, #0]
1000804a:	4770      	bx	lr
1000804c:	20001b27 	.word	0x20001b27

10008050 <resetd_open>:
10008050:	794b      	ldrb	r3, [r1, #5]
10008052:	2bff      	cmp	r3, #255	; 0xff
10008054:	d10c      	bne.n	10008070 <resetd_open+0x20>
10008056:	798b      	ldrb	r3, [r1, #6]
10008058:	2b00      	cmp	r3, #0
1000805a:	d10b      	bne.n	10008074 <resetd_open+0x24>
1000805c:	79cb      	ldrb	r3, [r1, #7]
1000805e:	2b01      	cmp	r3, #1
10008060:	d10a      	bne.n	10008078 <resetd_open+0x28>
10008062:	2a08      	cmp	r2, #8
10008064:	d90a      	bls.n	1000807c <resetd_open+0x2c>
10008066:	788a      	ldrb	r2, [r1, #2]
10008068:	4b05      	ldr	r3, [pc, #20]	; (10008080 <resetd_open+0x30>)
1000806a:	701a      	strb	r2, [r3, #0]
1000806c:	2009      	movs	r0, #9
1000806e:	e000      	b.n	10008072 <resetd_open+0x22>
10008070:	2000      	movs	r0, #0
10008072:	4770      	bx	lr
10008074:	2000      	movs	r0, #0
10008076:	e7fc      	b.n	10008072 <resetd_open+0x22>
10008078:	2000      	movs	r0, #0
1000807a:	e7fa      	b.n	10008072 <resetd_open+0x22>
1000807c:	2000      	movs	r0, #0
1000807e:	e7f8      	b.n	10008072 <resetd_open+0x22>
10008080:	20001b27 	.word	0x20001b27

10008084 <resetd_xfer_cb>:
10008084:	2001      	movs	r0, #1
10008086:	4770      	bx	lr

10008088 <reset_usb_boot>:
10008088:	b570      	push	{r4, r5, r6, lr}
1000808a:	0004      	movs	r4, r0
1000808c:	000d      	movs	r5, r1
1000808e:	4803      	ldr	r0, [pc, #12]	; (1000809c <reset_usb_boot+0x14>)
10008090:	f7fe fe90 	bl	10006db4 <rom_func_lookup>
10008094:	0003      	movs	r3, r0
10008096:	0029      	movs	r1, r5
10008098:	0020      	movs	r0, r4
1000809a:	4798      	blx	r3
1000809c:	00004255 	.word	0x00004255

100080a0 <resetd_control_xfer_cb>:
100080a0:	b510      	push	{r4, lr}
100080a2:	2900      	cmp	r1, #0
100080a4:	d126      	bne.n	100080f4 <resetd_control_xfer_cb+0x54>
100080a6:	7911      	ldrb	r1, [r2, #4]
100080a8:	7953      	ldrb	r3, [r2, #5]
100080aa:	021b      	lsls	r3, r3, #8
100080ac:	430b      	orrs	r3, r1
100080ae:	4912      	ldr	r1, [pc, #72]	; (100080f8 <resetd_control_xfer_cb+0x58>)
100080b0:	7809      	ldrb	r1, [r1, #0]
100080b2:	428b      	cmp	r3, r1
100080b4:	d001      	beq.n	100080ba <resetd_control_xfer_cb+0x1a>
100080b6:	2000      	movs	r0, #0
100080b8:	bd10      	pop	{r4, pc}
100080ba:	7853      	ldrb	r3, [r2, #1]
100080bc:	2b01      	cmp	r3, #1
100080be:	d003      	beq.n	100080c8 <resetd_control_xfer_cb+0x28>
100080c0:	2b02      	cmp	r3, #2
100080c2:	d010      	beq.n	100080e6 <resetd_control_xfer_cb+0x46>
100080c4:	2000      	movs	r0, #0
100080c6:	e7f7      	b.n	100080b8 <resetd_control_xfer_cb+0x18>
100080c8:	7891      	ldrb	r1, [r2, #2]
100080ca:	78d3      	ldrb	r3, [r2, #3]
100080cc:	021b      	lsls	r3, r3, #8
100080ce:	4319      	orrs	r1, r3
100080d0:	05db      	lsls	r3, r3, #23
100080d2:	d503      	bpl.n	100080dc <resetd_control_xfer_cb+0x3c>
100080d4:	0a4b      	lsrs	r3, r1, #9
100080d6:	2001      	movs	r0, #1
100080d8:	4098      	lsls	r0, r3
100080da:	e000      	b.n	100080de <resetd_control_xfer_cb+0x3e>
100080dc:	2000      	movs	r0, #0
100080de:	237f      	movs	r3, #127	; 0x7f
100080e0:	4019      	ands	r1, r3
100080e2:	f7ff ffd1 	bl	10008088 <reset_usb_boot>
100080e6:	2264      	movs	r2, #100	; 0x64
100080e8:	2100      	movs	r1, #0
100080ea:	2000      	movs	r0, #0
100080ec:	f7fd fd82 	bl	10005bf4 <watchdog_reboot>
100080f0:	2001      	movs	r0, #1
100080f2:	e7e1      	b.n	100080b8 <resetd_control_xfer_cb+0x18>
100080f4:	2001      	movs	r0, #1
100080f6:	e7df      	b.n	100080b8 <resetd_control_xfer_cb+0x18>
100080f8:	20001b27 	.word	0x20001b27

100080fc <usbd_app_driver_get_cb>:
100080fc:	2301      	movs	r3, #1
100080fe:	7003      	strb	r3, [r0, #0]
10008100:	4800      	ldr	r0, [pc, #0]	; (10008104 <usbd_app_driver_get_cb+0x8>)
10008102:	4770      	bx	lr
10008104:	1000d6c8 	.word	0x1000d6c8

10008108 <tud_cdc_line_coding_cb>:
10008108:	b510      	push	{r4, lr}
1000810a:	780b      	ldrb	r3, [r1, #0]
1000810c:	7848      	ldrb	r0, [r1, #1]
1000810e:	0200      	lsls	r0, r0, #8
10008110:	4318      	orrs	r0, r3
10008112:	788a      	ldrb	r2, [r1, #2]
10008114:	0412      	lsls	r2, r2, #16
10008116:	4310      	orrs	r0, r2
10008118:	78cb      	ldrb	r3, [r1, #3]
1000811a:	061b      	lsls	r3, r3, #24
1000811c:	4303      	orrs	r3, r0
1000811e:	2296      	movs	r2, #150	; 0x96
10008120:	00d2      	lsls	r2, r2, #3
10008122:	4293      	cmp	r3, r2
10008124:	d000      	beq.n	10008128 <tud_cdc_line_coding_cb+0x20>
10008126:	bd10      	pop	{r4, pc}
10008128:	2100      	movs	r1, #0
1000812a:	0008      	movs	r0, r1
1000812c:	f7ff ffac 	bl	10008088 <reset_usb_boot>

10008130 <stdio_usb_in_chars>:
10008130:	b530      	push	{r4, r5, lr}
10008132:	b083      	sub	sp, #12
10008134:	0005      	movs	r5, r0
10008136:	000c      	movs	r4, r1
10008138:	a901      	add	r1, sp, #4
1000813a:	4818      	ldr	r0, [pc, #96]	; (1000819c <stdio_usb_in_chars+0x6c>)
1000813c:	f004 f804 	bl	1000c148 <__mutex_try_enter_veneer>
10008140:	2800      	cmp	r0, #0
10008142:	d108      	bne.n	10008156 <stdio_usb_in_chars+0x26>
10008144:	23d0      	movs	r3, #208	; 0xd0
10008146:	061b      	lsls	r3, r3, #24
10008148:	681b      	ldr	r3, [r3, #0]
1000814a:	9a01      	ldr	r2, [sp, #4]
1000814c:	429a      	cmp	r2, r3
1000814e:	d021      	beq.n	10008194 <stdio_usb_in_chars+0x64>
10008150:	4812      	ldr	r0, [pc, #72]	; (1000819c <stdio_usb_in_chars+0x6c>)
10008152:	f004 f809 	bl	1000c168 <__mutex_enter_blocking_veneer>
10008156:	2000      	movs	r0, #0
10008158:	f001 fe54 	bl	10009e04 <tud_cdc_n_connected>
1000815c:	2800      	cmp	r0, #0
1000815e:	d107      	bne.n	10008170 <stdio_usb_in_chars+0x40>
10008160:	2403      	movs	r4, #3
10008162:	4264      	negs	r4, r4
10008164:	480d      	ldr	r0, [pc, #52]	; (1000819c <stdio_usb_in_chars+0x6c>)
10008166:	f003 ffd7 	bl	1000c118 <__mutex_exit_veneer>
1000816a:	0020      	movs	r0, r4
1000816c:	b003      	add	sp, #12
1000816e:	bd30      	pop	{r4, r5, pc}
10008170:	2000      	movs	r0, #0
10008172:	f001 fe69 	bl	10009e48 <tud_cdc_n_available>
10008176:	2800      	cmp	r0, #0
10008178:	d102      	bne.n	10008180 <stdio_usb_in_chars+0x50>
1000817a:	2403      	movs	r4, #3
1000817c:	4264      	negs	r4, r4
1000817e:	e7f1      	b.n	10008164 <stdio_usb_in_chars+0x34>
10008180:	0022      	movs	r2, r4
10008182:	0029      	movs	r1, r5
10008184:	2000      	movs	r0, #0
10008186:	f001 fe6b 	bl	10009e60 <tud_cdc_n_read>
1000818a:	1e04      	subs	r4, r0, #0
1000818c:	d1ea      	bne.n	10008164 <stdio_usb_in_chars+0x34>
1000818e:	2403      	movs	r4, #3
10008190:	4264      	negs	r4, r4
10008192:	e7e7      	b.n	10008164 <stdio_usb_in_chars+0x34>
10008194:	2403      	movs	r4, #3
10008196:	4264      	negs	r4, r4
10008198:	e7e7      	b.n	1000816a <stdio_usb_in_chars+0x3a>
1000819a:	46c0      	nop			; (mov r8, r8)
1000819c:	20001af4 	.word	0x20001af4

100081a0 <low_priority_worker_irq>:
100081a0:	b510      	push	{r4, lr}
100081a2:	2100      	movs	r1, #0
100081a4:	4805      	ldr	r0, [pc, #20]	; (100081bc <low_priority_worker_irq+0x1c>)
100081a6:	f003 ffcf 	bl	1000c148 <__mutex_try_enter_veneer>
100081aa:	2800      	cmp	r0, #0
100081ac:	d100      	bne.n	100081b0 <low_priority_worker_irq+0x10>
100081ae:	bd10      	pop	{r4, pc}
100081b0:	f001 fbc0 	bl	10009934 <tud_task>
100081b4:	4801      	ldr	r0, [pc, #4]	; (100081bc <low_priority_worker_irq+0x1c>)
100081b6:	f003 ffaf 	bl	1000c118 <__mutex_exit_veneer>
100081ba:	e7f8      	b.n	100081ae <low_priority_worker_irq+0xe>
100081bc:	20001af4 	.word	0x20001af4

100081c0 <stdio_usb_out_chars>:
100081c0:	b5f0      	push	{r4, r5, r6, r7, lr}
100081c2:	46c6      	mov	lr, r8
100081c4:	b500      	push	{lr}
100081c6:	b082      	sub	sp, #8
100081c8:	4680      	mov	r8, r0
100081ca:	000d      	movs	r5, r1
100081cc:	a901      	add	r1, sp, #4
100081ce:	482e      	ldr	r0, [pc, #184]	; (10008288 <stdio_usb_out_chars+0xc8>)
100081d0:	f003 ffba 	bl	1000c148 <__mutex_try_enter_veneer>
100081d4:	2800      	cmp	r0, #0
100081d6:	d108      	bne.n	100081ea <stdio_usb_out_chars+0x2a>
100081d8:	23d0      	movs	r3, #208	; 0xd0
100081da:	061b      	lsls	r3, r3, #24
100081dc:	681b      	ldr	r3, [r3, #0]
100081de:	9a01      	ldr	r2, [sp, #4]
100081e0:	429a      	cmp	r2, r3
100081e2:	d00f      	beq.n	10008204 <stdio_usb_out_chars+0x44>
100081e4:	4828      	ldr	r0, [pc, #160]	; (10008288 <stdio_usb_out_chars+0xc8>)
100081e6:	f003 ffbf 	bl	1000c168 <__mutex_enter_blocking_veneer>
100081ea:	2000      	movs	r0, #0
100081ec:	f001 fe0a 	bl	10009e04 <tud_cdc_n_connected>
100081f0:	2800      	cmp	r0, #0
100081f2:	d147      	bne.n	10008284 <stdio_usb_out_chars+0xc4>
100081f4:	4b25      	ldr	r3, [pc, #148]	; (1000828c <stdio_usb_out_chars+0xcc>)
100081f6:	2000      	movs	r0, #0
100081f8:	2100      	movs	r1, #0
100081fa:	6018      	str	r0, [r3, #0]
100081fc:	6059      	str	r1, [r3, #4]
100081fe:	4822      	ldr	r0, [pc, #136]	; (10008288 <stdio_usb_out_chars+0xc8>)
10008200:	f003 ff8a 	bl	1000c118 <__mutex_exit_veneer>
10008204:	b002      	add	sp, #8
10008206:	bc80      	pop	{r7}
10008208:	46b8      	mov	r8, r7
1000820a:	bdf0      	pop	{r4, r5, r6, r7, pc}
1000820c:	f001 fb92 	bl	10009934 <tud_task>
10008210:	2000      	movs	r0, #0
10008212:	f001 fe39 	bl	10009e88 <tud_cdc_n_write_flush>
10008216:	2000      	movs	r0, #0
10008218:	f001 fdf4 	bl	10009e04 <tud_cdc_n_connected>
1000821c:	2800      	cmp	r0, #0
1000821e:	d0ee      	beq.n	100081fe <stdio_usb_out_chars+0x3e>
10008220:	2000      	movs	r0, #0
10008222:	f001 feb3 	bl	10009f8c <tud_cdc_n_write_available>
10008226:	2800      	cmp	r0, #0
10008228:	d01d      	beq.n	10008266 <stdio_usb_out_chars+0xa6>
1000822a:	42ac      	cmp	r4, r5
1000822c:	dae7      	bge.n	100081fe <stdio_usb_out_chars+0x3e>
1000822e:	1b2e      	subs	r6, r5, r4
10008230:	2000      	movs	r0, #0
10008232:	f001 feab 	bl	10009f8c <tud_cdc_n_write_available>
10008236:	0002      	movs	r2, r0
10008238:	4286      	cmp	r6, r0
1000823a:	dc00      	bgt.n	1000823e <stdio_usb_out_chars+0x7e>
1000823c:	0032      	movs	r2, r6
1000823e:	2a00      	cmp	r2, #0
10008240:	d0e4      	beq.n	1000820c <stdio_usb_out_chars+0x4c>
10008242:	4643      	mov	r3, r8
10008244:	1919      	adds	r1, r3, r4
10008246:	2000      	movs	r0, #0
10008248:	f001 fe84 	bl	10009f54 <tud_cdc_n_write>
1000824c:	0006      	movs	r6, r0
1000824e:	f001 fb71 	bl	10009934 <tud_task>
10008252:	2000      	movs	r0, #0
10008254:	f001 fe18 	bl	10009e88 <tud_cdc_n_write_flush>
10008258:	19a4      	adds	r4, r4, r6
1000825a:	f7fc fea7 	bl	10004fac <time_us_64>
1000825e:	4b0b      	ldr	r3, [pc, #44]	; (1000828c <stdio_usb_out_chars+0xcc>)
10008260:	6018      	str	r0, [r3, #0]
10008262:	6059      	str	r1, [r3, #4]
10008264:	e7e1      	b.n	1000822a <stdio_usb_out_chars+0x6a>
10008266:	f7fc fea1 	bl	10004fac <time_us_64>
1000826a:	4b08      	ldr	r3, [pc, #32]	; (1000828c <stdio_usb_out_chars+0xcc>)
1000826c:	681e      	ldr	r6, [r3, #0]
1000826e:	685f      	ldr	r7, [r3, #4]
10008270:	4a07      	ldr	r2, [pc, #28]	; (10008290 <stdio_usb_out_chars+0xd0>)
10008272:	2300      	movs	r3, #0
10008274:	1992      	adds	r2, r2, r6
10008276:	417b      	adcs	r3, r7
10008278:	4299      	cmp	r1, r3
1000827a:	d8c0      	bhi.n	100081fe <stdio_usb_out_chars+0x3e>
1000827c:	d1d5      	bne.n	1000822a <stdio_usb_out_chars+0x6a>
1000827e:	4290      	cmp	r0, r2
10008280:	d9d3      	bls.n	1000822a <stdio_usb_out_chars+0x6a>
10008282:	e7bc      	b.n	100081fe <stdio_usb_out_chars+0x3e>
10008284:	2400      	movs	r4, #0
10008286:	e7d0      	b.n	1000822a <stdio_usb_out_chars+0x6a>
10008288:	20001af4 	.word	0x20001af4
1000828c:	20000e60 	.word	0x20000e60
10008290:	0007a120 	.word	0x0007a120

10008294 <timer_task>:
10008294:	b510      	push	{r4, lr}
10008296:	4b0a      	ldr	r3, [pc, #40]	; (100082c0 <timer_task+0x2c>)
10008298:	781a      	ldrb	r2, [r3, #0]
1000829a:	23d0      	movs	r3, #208	; 0xd0
1000829c:	061b      	lsls	r3, r3, #24
1000829e:	681b      	ldr	r3, [r3, #0]
100082a0:	429a      	cmp	r2, r3
100082a2:	d107      	bne.n	100082b4 <timer_task+0x20>
100082a4:	4b07      	ldr	r3, [pc, #28]	; (100082c4 <timer_task+0x30>)
100082a6:	7818      	ldrb	r0, [r3, #0]
100082a8:	f7fb fdc4 	bl	10003e34 <irq_set_pending>
100082ac:	20fa      	movs	r0, #250	; 0xfa
100082ae:	0080      	lsls	r0, r0, #2
100082b0:	2100      	movs	r1, #0
100082b2:	bd10      	pop	{r4, pc}
100082b4:	4b04      	ldr	r3, [pc, #16]	; (100082c8 <timer_task+0x34>)
100082b6:	4a05      	ldr	r2, [pc, #20]	; (100082cc <timer_task+0x38>)
100082b8:	2132      	movs	r1, #50	; 0x32
100082ba:	4805      	ldr	r0, [pc, #20]	; (100082d0 <timer_task+0x3c>)
100082bc:	f7fd f9f8 	bl	100056b0 <__assert_func>
100082c0:	20001b29 	.word	0x20001b29
100082c4:	20001b28 	.word	0x20001b28
100082c8:	1000d6e0 	.word	0x1000d6e0
100082cc:	1000d790 	.word	0x1000d790
100082d0:	1000d708 	.word	0x1000d708

100082d4 <usb_irq>:
100082d4:	b510      	push	{r4, lr}
100082d6:	4b02      	ldr	r3, [pc, #8]	; (100082e0 <usb_irq+0xc>)
100082d8:	7818      	ldrb	r0, [r3, #0]
100082da:	f7fb fdab 	bl	10003e34 <irq_set_pending>
100082de:	bd10      	pop	{r4, pc}
100082e0:	20001b28 	.word	0x20001b28

100082e4 <stdio_usb_init>:
100082e4:	b570      	push	{r4, r5, r6, lr}
100082e6:	b084      	sub	sp, #16
100082e8:	23d0      	movs	r3, #208	; 0xd0
100082ea:	061b      	lsls	r3, r3, #24
100082ec:	781a      	ldrb	r2, [r3, #0]
100082ee:	4b2d      	ldr	r3, [pc, #180]	; (100083a4 <stdio_usb_init+0xc0>)
100082f0:	701a      	strb	r2, [r3, #0]
100082f2:	4b2d      	ldr	r3, [pc, #180]	; (100083a8 <stdio_usb_init+0xc4>)
100082f4:	781b      	ldrb	r3, [r3, #0]
100082f6:	f002 f88f 	bl	1000a418 <tusb_init>
100082fa:	482c      	ldr	r0, [pc, #176]	; (100083ac <stdio_usb_init+0xc8>)
100082fc:	f7fd f986 	bl	1000560c <mutex_init>
10008300:	2001      	movs	r0, #1
10008302:	f7fc f855 	bl	100043b0 <user_irq_claim_unused>
10008306:	b2c0      	uxtb	r0, r0
10008308:	4c29      	ldr	r4, [pc, #164]	; (100083b0 <stdio_usb_init+0xcc>)
1000830a:	7020      	strb	r0, [r4, #0]
1000830c:	4929      	ldr	r1, [pc, #164]	; (100083b4 <stdio_usb_init+0xd0>)
1000830e:	f7fb fdb3 	bl	10003e78 <irq_set_exclusive_handler>
10008312:	7820      	ldrb	r0, [r4, #0]
10008314:	2101      	movs	r1, #1
10008316:	f7fb fd85 	bl	10003e24 <irq_set_enabled>
1000831a:	2005      	movs	r0, #5
1000831c:	f7fb fd9a 	bl	10003e54 <irq_has_shared_handler>
10008320:	1e04      	subs	r4, r0, #0
10008322:	d00b      	beq.n	1000833c <stdio_usb_init+0x58>
10008324:	2200      	movs	r2, #0
10008326:	4924      	ldr	r1, [pc, #144]	; (100083b8 <stdio_usb_init+0xd4>)
10008328:	2005      	movs	r0, #5
1000832a:	f7fb fdcf 	bl	10003ecc <irq_add_shared_handler>
1000832e:	2101      	movs	r1, #1
10008330:	4822      	ldr	r0, [pc, #136]	; (100083bc <stdio_usb_init+0xd8>)
10008332:	f7ff fe1d 	bl	10007f70 <stdio_set_driver_enabled>
10008336:	0020      	movs	r0, r4
10008338:	b004      	add	sp, #16
1000833a:	bd70      	pop	{r4, r5, r6, pc}
1000833c:	f7fc fbaa 	bl	10004a94 <alarm_pool_get_default>
10008340:	0006      	movs	r6, r0
10008342:	f7fc fe33 	bl	10004fac <time_us_64>
10008346:	0004      	movs	r4, r0
10008348:	1e0d      	subs	r5, r1, #0
1000834a:	db1e      	blt.n	1000838a <stdio_usb_init+0xa6>
1000834c:	0001      	movs	r1, r0
1000834e:	22fa      	movs	r2, #250	; 0xfa
10008350:	0092      	lsls	r2, r2, #2
10008352:	2300      	movs	r3, #0
10008354:	1912      	adds	r2, r2, r4
10008356:	416b      	adcs	r3, r5
10008358:	429d      	cmp	r5, r3
1000835a:	d802      	bhi.n	10008362 <stdio_usb_init+0x7e>
1000835c:	d104      	bne.n	10008368 <stdio_usb_init+0x84>
1000835e:	4291      	cmp	r1, r2
10008360:	d902      	bls.n	10008368 <stdio_usb_init+0x84>
10008362:	2201      	movs	r2, #1
10008364:	4252      	negs	r2, r2
10008366:	17d3      	asrs	r3, r2, #31
10008368:	2b00      	cmp	r3, #0
1000836a:	db14      	blt.n	10008396 <stdio_usb_init+0xb2>
1000836c:	2101      	movs	r1, #1
1000836e:	9102      	str	r1, [sp, #8]
10008370:	2100      	movs	r1, #0
10008372:	9101      	str	r1, [sp, #4]
10008374:	4912      	ldr	r1, [pc, #72]	; (100083c0 <stdio_usb_init+0xdc>)
10008376:	9100      	str	r1, [sp, #0]
10008378:	0030      	movs	r0, r6
1000837a:	f7fc fba1 	bl	10004ac0 <alarm_pool_add_alarm_at>
1000837e:	1e43      	subs	r3, r0, #1
10008380:	4198      	sbcs	r0, r3
10008382:	b2c4      	uxtb	r4, r0
10008384:	2800      	cmp	r0, #0
10008386:	d0d6      	beq.n	10008336 <stdio_usb_init+0x52>
10008388:	e7d1      	b.n	1000832e <stdio_usb_init+0x4a>
1000838a:	4b0e      	ldr	r3, [pc, #56]	; (100083c4 <stdio_usb_init+0xe0>)
1000838c:	4a0e      	ldr	r2, [pc, #56]	; (100083c8 <stdio_usb_init+0xe4>)
1000838e:	213f      	movs	r1, #63	; 0x3f
10008390:	480e      	ldr	r0, [pc, #56]	; (100083cc <stdio_usb_init+0xe8>)
10008392:	f7fd f98d 	bl	100056b0 <__assert_func>
10008396:	4b0b      	ldr	r3, [pc, #44]	; (100083c4 <stdio_usb_init+0xe0>)
10008398:	4a0b      	ldr	r2, [pc, #44]	; (100083c8 <stdio_usb_init+0xe4>)
1000839a:	213f      	movs	r1, #63	; 0x3f
1000839c:	480b      	ldr	r0, [pc, #44]	; (100083cc <stdio_usb_init+0xe8>)
1000839e:	f7fd f987 	bl	100056b0 <__assert_func>
100083a2:	46c0      	nop			; (mov r8, r8)
100083a4:	20001b29 	.word	0x20001b29
100083a8:	1000dfa8 	.word	0x1000dfa8
100083ac:	20001af4 	.word	0x20001af4
100083b0:	20001b28 	.word	0x20001b28
100083b4:	100081a1 	.word	0x100081a1
100083b8:	100082d5 	.word	0x100082d5
100083bc:	200004c0 	.word	0x200004c0
100083c0:	10008295 	.word	0x10008295
100083c4:	1000cb08 	.word	0x1000cb08
100083c8:	1000d778 	.word	0x1000d778
100083cc:	1000cb24 	.word	0x1000cb24

100083d0 <tud_descriptor_device_cb>:
100083d0:	4800      	ldr	r0, [pc, #0]	; (100083d4 <tud_descriptor_device_cb+0x4>)
100083d2:	4770      	bx	lr
100083d4:	1000d81c 	.word	0x1000d81c

100083d8 <tud_descriptor_configuration_cb>:
100083d8:	4800      	ldr	r0, [pc, #0]	; (100083dc <tud_descriptor_configuration_cb+0x4>)
100083da:	4770      	bx	lr
100083dc:	1000d7c8 	.word	0x1000d7c8

100083e0 <tud_descriptor_string_cb>:
100083e0:	b510      	push	{r4, lr}
100083e2:	0004      	movs	r4, r0
100083e4:	4b15      	ldr	r3, [pc, #84]	; (1000843c <tud_descriptor_string_cb+0x5c>)
100083e6:	781b      	ldrb	r3, [r3, #0]
100083e8:	2b00      	cmp	r3, #0
100083ea:	d00e      	beq.n	1000840a <tud_descriptor_string_cb+0x2a>
100083ec:	2c00      	cmp	r4, #0
100083ee:	d111      	bne.n	10008414 <tud_descriptor_string_cb+0x34>
100083f0:	4b13      	ldr	r3, [pc, #76]	; (10008440 <tud_descriptor_string_cb+0x60>)
100083f2:	4a14      	ldr	r2, [pc, #80]	; (10008444 <tud_descriptor_string_cb+0x64>)
100083f4:	805a      	strh	r2, [r3, #2]
100083f6:	2301      	movs	r3, #1
100083f8:	3301      	adds	r3, #1
100083fa:	005b      	lsls	r3, r3, #1
100083fc:	b21b      	sxth	r3, r3
100083fe:	22c0      	movs	r2, #192	; 0xc0
10008400:	0092      	lsls	r2, r2, #2
10008402:	4313      	orrs	r3, r2
10008404:	480e      	ldr	r0, [pc, #56]	; (10008440 <tud_descriptor_string_cb+0x60>)
10008406:	8003      	strh	r3, [r0, #0]
10008408:	bd10      	pop	{r4, pc}
1000840a:	2111      	movs	r1, #17
1000840c:	480b      	ldr	r0, [pc, #44]	; (1000843c <tud_descriptor_string_cb+0x5c>)
1000840e:	f002 fbd7 	bl	1000abc0 <pico_get_unique_board_id_string>
10008412:	e7eb      	b.n	100083ec <tud_descriptor_string_cb+0xc>
10008414:	2c05      	cmp	r4, #5
10008416:	d80e      	bhi.n	10008436 <tud_descriptor_string_cb+0x56>
10008418:	00a4      	lsls	r4, r4, #2
1000841a:	4b0b      	ldr	r3, [pc, #44]	; (10008448 <tud_descriptor_string_cb+0x68>)
1000841c:	58e4      	ldr	r4, [r4, r3]
1000841e:	2300      	movs	r3, #0
10008420:	2b12      	cmp	r3, #18
10008422:	d8e9      	bhi.n	100083f8 <tud_descriptor_string_cb+0x18>
10008424:	5ce2      	ldrb	r2, [r4, r3]
10008426:	2a00      	cmp	r2, #0
10008428:	d0e6      	beq.n	100083f8 <tud_descriptor_string_cb+0x18>
1000842a:	3301      	adds	r3, #1
1000842c:	0059      	lsls	r1, r3, #1
1000842e:	4804      	ldr	r0, [pc, #16]	; (10008440 <tud_descriptor_string_cb+0x60>)
10008430:	5242      	strh	r2, [r0, r1]
10008432:	b2db      	uxtb	r3, r3
10008434:	e7f4      	b.n	10008420 <tud_descriptor_string_cb+0x40>
10008436:	2000      	movs	r0, #0
10008438:	e7e6      	b.n	10008408 <tud_descriptor_string_cb+0x28>
1000843a:	46c0      	nop			; (mov r8, r8)
1000843c:	20001b0c 	.word	0x20001b0c
10008440:	20001494 	.word	0x20001494
10008444:	00000409 	.word	0x00000409
10008448:	1000d830 	.word	0x1000d830

1000844c <hw_endpoint_get_by_addr>:
1000844c:	0002      	movs	r2, r0
1000844e:	207f      	movs	r0, #127	; 0x7f
10008450:	4010      	ands	r0, r2
10008452:	09d2      	lsrs	r2, r2, #7
10008454:	0040      	lsls	r0, r0, #1
10008456:	1880      	adds	r0, r0, r2
10008458:	0140      	lsls	r0, r0, #5
1000845a:	4b01      	ldr	r3, [pc, #4]	; (10008460 <hw_endpoint_get_by_addr+0x14>)
1000845c:	18c0      	adds	r0, r0, r3
1000845e:	4770      	bx	lr
10008460:	200014cc 	.word	0x200014cc

10008464 <reset_ep0_pid>:
10008464:	b510      	push	{r4, lr}
10008466:	b082      	sub	sp, #8
10008468:	ab01      	add	r3, sp, #4
1000846a:	4a07      	ldr	r2, [pc, #28]	; (10008488 <reset_ep0_pid+0x24>)
1000846c:	801a      	strh	r2, [r3, #0]
1000846e:	2400      	movs	r4, #0
10008470:	e006      	b.n	10008480 <reset_ep0_pid+0x1c>
10008472:	ab01      	add	r3, sp, #4
10008474:	5d18      	ldrb	r0, [r3, r4]
10008476:	f7ff ffe9 	bl	1000844c <hw_endpoint_get_by_addr>
1000847a:	2301      	movs	r3, #1
1000847c:	70c3      	strb	r3, [r0, #3]
1000847e:	3401      	adds	r4, #1
10008480:	2c01      	cmp	r4, #1
10008482:	d9f6      	bls.n	10008472 <reset_ep0_pid+0xe>
10008484:	b002      	add	sp, #8
10008486:	bd10      	pop	{r4, pc}
10008488:	ffff8000 	.word	0xffff8000

1000848c <_hw_endpoint_alloc>:
1000848c:	b510      	push	{r4, lr}
1000848e:	8b83      	ldrh	r3, [r0, #28]
10008490:	333f      	adds	r3, #63	; 0x3f
10008492:	223f      	movs	r2, #63	; 0x3f
10008494:	4393      	bics	r3, r2
10008496:	2902      	cmp	r1, #2
10008498:	d015      	beq.n	100084c6 <_hw_endpoint_alloc+0x3a>
1000849a:	4c12      	ldr	r4, [pc, #72]	; (100084e4 <_hw_endpoint_alloc+0x58>)
1000849c:	6822      	ldr	r2, [r4, #0]
1000849e:	60c2      	str	r2, [r0, #12]
100084a0:	18d3      	adds	r3, r2, r3
100084a2:	6023      	str	r3, [r4, #0]
100084a4:	069c      	lsls	r4, r3, #26
100084a6:	d110      	bne.n	100084ca <_hw_endpoint_alloc+0x3e>
100084a8:	4c0f      	ldr	r4, [pc, #60]	; (100084e8 <_hw_endpoint_alloc+0x5c>)
100084aa:	4062      	eors	r2, r4
100084ac:	4063      	eors	r3, r4
100084ae:	2480      	movs	r4, #128	; 0x80
100084b0:	0164      	lsls	r4, r4, #5
100084b2:	42a3      	cmp	r3, r4
100084b4:	d80f      	bhi.n	100084d6 <_hw_endpoint_alloc+0x4a>
100084b6:	0689      	lsls	r1, r1, #26
100084b8:	4311      	orrs	r1, r2
100084ba:	2380      	movs	r3, #128	; 0x80
100084bc:	061b      	lsls	r3, r3, #24
100084be:	4319      	orrs	r1, r3
100084c0:	6843      	ldr	r3, [r0, #4]
100084c2:	6019      	str	r1, [r3, #0]
100084c4:	bd10      	pop	{r4, pc}
100084c6:	005b      	lsls	r3, r3, #1
100084c8:	e7e7      	b.n	1000849a <_hw_endpoint_alloc+0xe>
100084ca:	4b08      	ldr	r3, [pc, #32]	; (100084ec <_hw_endpoint_alloc+0x60>)
100084cc:	4a08      	ldr	r2, [pc, #32]	; (100084f0 <_hw_endpoint_alloc+0x64>)
100084ce:	2154      	movs	r1, #84	; 0x54
100084d0:	4808      	ldr	r0, [pc, #32]	; (100084f4 <_hw_endpoint_alloc+0x68>)
100084d2:	f7fd f8ed 	bl	100056b0 <__assert_func>
100084d6:	4b08      	ldr	r3, [pc, #32]	; (100084f8 <_hw_endpoint_alloc+0x6c>)
100084d8:	4a05      	ldr	r2, [pc, #20]	; (100084f0 <_hw_endpoint_alloc+0x64>)
100084da:	2156      	movs	r1, #86	; 0x56
100084dc:	4805      	ldr	r0, [pc, #20]	; (100084f4 <_hw_endpoint_alloc+0x68>)
100084de:	f7fd f8e7 	bl	100056b0 <__assert_func>
100084e2:	46c0      	nop			; (mov r8, r8)
100084e4:	200018d0 	.word	0x200018d0
100084e8:	50100000 	.word	0x50100000
100084ec:	1000d848 	.word	0x1000d848
100084f0:	1000d96c 	.word	0x1000d96c
100084f4:	1000d878 	.word	0x1000d878
100084f8:	1000d8d8 	.word	0x1000d8d8

100084fc <hw_endpoint_init>:
100084fc:	b5f8      	push	{r3, r4, r5, r6, r7, lr}
100084fe:	0005      	movs	r5, r0
10008500:	000e      	movs	r6, r1
10008502:	0014      	movs	r4, r2
10008504:	f7ff ffa2 	bl	1000844c <hw_endpoint_get_by_addr>
10008508:	237f      	movs	r3, #127	; 0x7f
1000850a:	402b      	ands	r3, r5
1000850c:	09ef      	lsrs	r7, r5, #7
1000850e:	7085      	strb	r5, [r0, #2]
10008510:	427a      	negs	r2, r7
10008512:	417a      	adcs	r2, r7
10008514:	7042      	strb	r2, [r0, #1]
10008516:	2200      	movs	r2, #0
10008518:	70c2      	strb	r2, [r0, #3]
1000851a:	8386      	strh	r6, [r0, #28]
1000851c:	7784      	strb	r4, [r0, #30]
1000851e:	2f01      	cmp	r7, #1
10008520:	d00d      	beq.n	1000853e <hw_endpoint_init+0x42>
10008522:	00da      	lsls	r2, r3, #3
10008524:	4912      	ldr	r1, [pc, #72]	; (10008570 <hw_endpoint_init+0x74>)
10008526:	468c      	mov	ip, r1
10008528:	4462      	add	r2, ip
1000852a:	6082      	str	r2, [r0, #8]
1000852c:	6882      	ldr	r2, [r0, #8]
1000852e:	2100      	movs	r1, #0
10008530:	6011      	str	r1, [r2, #0]
10008532:	2b00      	cmp	r3, #0
10008534:	d109      	bne.n	1000854a <hw_endpoint_init+0x4e>
10008536:	6043      	str	r3, [r0, #4]
10008538:	4b0e      	ldr	r3, [pc, #56]	; (10008574 <hw_endpoint_init+0x78>)
1000853a:	60c3      	str	r3, [r0, #12]
1000853c:	bdf8      	pop	{r3, r4, r5, r6, r7, pc}
1000853e:	00da      	lsls	r2, r3, #3
10008540:	490d      	ldr	r1, [pc, #52]	; (10008578 <hw_endpoint_init+0x7c>)
10008542:	468c      	mov	ip, r1
10008544:	4462      	add	r2, ip
10008546:	6082      	str	r2, [r0, #8]
10008548:	e7f0      	b.n	1000852c <hw_endpoint_init+0x30>
1000854a:	2f01      	cmp	r7, #1
1000854c:	d009      	beq.n	10008562 <hw_endpoint_init+0x66>
1000854e:	3b01      	subs	r3, #1
10008550:	00db      	lsls	r3, r3, #3
10008552:	4a0a      	ldr	r2, [pc, #40]	; (1000857c <hw_endpoint_init+0x80>)
10008554:	4694      	mov	ip, r2
10008556:	4463      	add	r3, ip
10008558:	6043      	str	r3, [r0, #4]
1000855a:	0021      	movs	r1, r4
1000855c:	f7ff ff96 	bl	1000848c <_hw_endpoint_alloc>
10008560:	e7ec      	b.n	1000853c <hw_endpoint_init+0x40>
10008562:	3b01      	subs	r3, #1
10008564:	00db      	lsls	r3, r3, #3
10008566:	4a06      	ldr	r2, [pc, #24]	; (10008580 <hw_endpoint_init+0x84>)
10008568:	4694      	mov	ip, r2
1000856a:	4463      	add	r3, ip
1000856c:	6043      	str	r3, [r0, #4]
1000856e:	e7f4      	b.n	1000855a <hw_endpoint_init+0x5e>
10008570:	50100084 	.word	0x50100084
10008574:	50100100 	.word	0x50100100
10008578:	50100080 	.word	0x50100080
1000857c:	5010000c 	.word	0x5010000c
10008580:	50100008 	.word	0x50100008

10008584 <reset_non_control_endpoints>:
10008584:	b510      	push	{r4, lr}
10008586:	2300      	movs	r3, #0
10008588:	e008      	b.n	1000859c <reset_non_control_endpoints+0x18>
1000858a:	3301      	adds	r3, #1
1000858c:	00da      	lsls	r2, r3, #3
1000858e:	2100      	movs	r1, #0
10008590:	4808      	ldr	r0, [pc, #32]	; (100085b4 <reset_non_control_endpoints+0x30>)
10008592:	5011      	str	r1, [r2, r0]
10008594:	4684      	mov	ip, r0
10008596:	4462      	add	r2, ip
10008598:	6051      	str	r1, [r2, #4]
1000859a:	b2db      	uxtb	r3, r3
1000859c:	2b0e      	cmp	r3, #14
1000859e:	d9f4      	bls.n	1000858a <reset_non_control_endpoints+0x6>
100085a0:	22f0      	movs	r2, #240	; 0xf0
100085a2:	0092      	lsls	r2, r2, #2
100085a4:	2100      	movs	r1, #0
100085a6:	4804      	ldr	r0, [pc, #16]	; (100085b8 <reset_non_control_endpoints+0x34>)
100085a8:	f7ff fb7e 	bl	10007ca8 <__wrap_memset>
100085ac:	4b03      	ldr	r3, [pc, #12]	; (100085bc <reset_non_control_endpoints+0x38>)
100085ae:	4a04      	ldr	r2, [pc, #16]	; (100085c0 <reset_non_control_endpoints+0x3c>)
100085b0:	601a      	str	r2, [r3, #0]
100085b2:	bd10      	pop	{r4, pc}
100085b4:	50100000 	.word	0x50100000
100085b8:	2000150c 	.word	0x2000150c
100085bc:	200018d0 	.word	0x200018d0
100085c0:	50100180 	.word	0x50100180

100085c4 <hw_handle_buff_status>:
100085c4:	b5f0      	push	{r4, r5, r6, r7, lr}
100085c6:	46ce      	mov	lr, r9
100085c8:	4647      	mov	r7, r8
100085ca:	b580      	push	{r7, lr}
100085cc:	b083      	sub	sp, #12
100085ce:	4b1d      	ldr	r3, [pc, #116]	; (10008644 <hw_handle_buff_status+0x80>)
100085d0:	6d9f      	ldr	r7, [r3, #88]	; 0x58
100085d2:	2400      	movs	r4, #0
100085d4:	2601      	movs	r6, #1
100085d6:	e003      	b.n	100085e0 <hw_handle_buff_status+0x1c>
100085d8:	43b7      	bics	r7, r6
100085da:	0076      	lsls	r6, r6, #1
100085dc:	3401      	adds	r4, #1
100085de:	b2e4      	uxtb	r4, r4
100085e0:	2f00      	cmp	r7, #0
100085e2:	d029      	beq.n	10008638 <hw_handle_buff_status+0x74>
100085e4:	2c1f      	cmp	r4, #31
100085e6:	d827      	bhi.n	10008638 <hw_handle_buff_status+0x74>
100085e8:	423e      	tst	r6, r7
100085ea:	d0f6      	beq.n	100085da <hw_handle_buff_status+0x16>
100085ec:	4b16      	ldr	r3, [pc, #88]	; (10008648 <hw_handle_buff_status+0x84>)
100085ee:	659e      	str	r6, [r3, #88]	; 0x58
100085f0:	0863      	lsrs	r3, r4, #1
100085f2:	4699      	mov	r9, r3
100085f4:	2301      	movs	r3, #1
100085f6:	4063      	eors	r3, r4
100085f8:	2201      	movs	r2, #1
100085fa:	401a      	ands	r2, r3
100085fc:	4690      	mov	r8, r2
100085fe:	464b      	mov	r3, r9
10008600:	005d      	lsls	r5, r3, #1
10008602:	4445      	add	r5, r8
10008604:	016d      	lsls	r5, r5, #5
10008606:	4b11      	ldr	r3, [pc, #68]	; (1000864c <hw_handle_buff_status+0x88>)
10008608:	18ed      	adds	r5, r5, r3
1000860a:	0028      	movs	r0, r5
1000860c:	f000 faac 	bl	10008b68 <hw_endpoint_xfer_continue>
10008610:	2800      	cmp	r0, #0
10008612:	d0e1      	beq.n	100085d8 <hw_handle_buff_status+0x14>
10008614:	464b      	mov	r3, r9
10008616:	005b      	lsls	r3, r3, #1
10008618:	4443      	add	r3, r8
1000861a:	015b      	lsls	r3, r3, #5
1000861c:	4a0b      	ldr	r2, [pc, #44]	; (1000864c <hw_handle_buff_status+0x88>)
1000861e:	18d3      	adds	r3, r2, r3
10008620:	8a9a      	ldrh	r2, [r3, #20]
10008622:	7899      	ldrb	r1, [r3, #2]
10008624:	2301      	movs	r3, #1
10008626:	9300      	str	r3, [sp, #0]
10008628:	2300      	movs	r3, #0
1000862a:	2000      	movs	r0, #0
1000862c:	f000 fe0a 	bl	10009244 <dcd_event_xfer_complete>
10008630:	0028      	movs	r0, r5
10008632:	f000 fa09 	bl	10008a48 <hw_endpoint_reset_transfer>
10008636:	e7cf      	b.n	100085d8 <hw_handle_buff_status+0x14>
10008638:	b003      	add	sp, #12
1000863a:	bcc0      	pop	{r6, r7}
1000863c:	46b9      	mov	r9, r7
1000863e:	46b0      	mov	r8, r6
10008640:	bdf0      	pop	{r4, r5, r6, r7, pc}
10008642:	46c0      	nop			; (mov r8, r8)
10008644:	50110000 	.word	0x50110000
10008648:	50113000 	.word	0x50113000
1000864c:	200014cc 	.word	0x200014cc

10008650 <dcd_rp2040_irq>:
10008650:	b570      	push	{r4, r5, r6, lr}
10008652:	4a2b      	ldr	r2, [pc, #172]	; (10008700 <dcd_rp2040_irq+0xb0>)
10008654:	2398      	movs	r3, #152	; 0x98
10008656:	58d4      	ldr	r4, [r2, r3]
10008658:	2380      	movs	r3, #128	; 0x80
1000865a:	025b      	lsls	r3, r3, #9
1000865c:	0025      	movs	r5, r4
1000865e:	401d      	ands	r5, r3
10008660:	421c      	tst	r4, r3
10008662:	d10a      	bne.n	1000867a <dcd_rp2040_irq+0x2a>
10008664:	06e3      	lsls	r3, r4, #27
10008666:	d416      	bmi.n	10008696 <dcd_rp2040_irq+0x46>
10008668:	04e3      	lsls	r3, r4, #19
1000866a:	d419      	bmi.n	100086a0 <dcd_rp2040_irq+0x50>
1000866c:	0463      	lsls	r3, r4, #17
1000866e:	d429      	bmi.n	100086c4 <dcd_rp2040_irq+0x74>
10008670:	0423      	lsls	r3, r4, #16
10008672:	d433      	bmi.n	100086dc <dcd_rp2040_irq+0x8c>
10008674:	42a5      	cmp	r5, r4
10008676:	d13e      	bne.n	100086f6 <dcd_rp2040_irq+0xa6>
10008678:	bd70      	pop	{r4, r5, r6, pc}
1000867a:	f7ff fef3 	bl	10008464 <reset_ep0_pid>
1000867e:	2201      	movs	r2, #1
10008680:	4920      	ldr	r1, [pc, #128]	; (10008704 <dcd_rp2040_irq+0xb4>)
10008682:	2000      	movs	r0, #0
10008684:	f000 fdc4 	bl	10009210 <dcd_event_setup_received>
10008688:	4b1f      	ldr	r3, [pc, #124]	; (10008708 <dcd_rp2040_irq+0xb8>)
1000868a:	2280      	movs	r2, #128	; 0x80
1000868c:	0292      	lsls	r2, r2, #10
1000868e:	651a      	str	r2, [r3, #80]	; 0x50
10008690:	2580      	movs	r5, #128	; 0x80
10008692:	026d      	lsls	r5, r5, #9
10008694:	e7e6      	b.n	10008664 <dcd_rp2040_irq+0x14>
10008696:	2310      	movs	r3, #16
10008698:	431d      	orrs	r5, r3
1000869a:	f7ff ff93 	bl	100085c4 <hw_handle_buff_status>
1000869e:	e7e3      	b.n	10008668 <dcd_rp2040_irq+0x18>
100086a0:	2380      	movs	r3, #128	; 0x80
100086a2:	015b      	lsls	r3, r3, #5
100086a4:	431d      	orrs	r5, r3
100086a6:	4b16      	ldr	r3, [pc, #88]	; (10008700 <dcd_rp2040_irq+0xb0>)
100086a8:	2200      	movs	r2, #0
100086aa:	601a      	str	r2, [r3, #0]
100086ac:	f7ff ff6a 	bl	10008584 <reset_non_control_endpoints>
100086b0:	2201      	movs	r2, #1
100086b2:	2100      	movs	r1, #0
100086b4:	2000      	movs	r0, #0
100086b6:	f000 fd96 	bl	100091e6 <dcd_event_bus_reset>
100086ba:	4b13      	ldr	r3, [pc, #76]	; (10008708 <dcd_rp2040_irq+0xb8>)
100086bc:	2280      	movs	r2, #128	; 0x80
100086be:	0312      	lsls	r2, r2, #12
100086c0:	651a      	str	r2, [r3, #80]	; 0x50
100086c2:	e7d3      	b.n	1000866c <dcd_rp2040_irq+0x1c>
100086c4:	2380      	movs	r3, #128	; 0x80
100086c6:	01db      	lsls	r3, r3, #7
100086c8:	431d      	orrs	r5, r3
100086ca:	2201      	movs	r2, #1
100086cc:	2104      	movs	r1, #4
100086ce:	2000      	movs	r0, #0
100086d0:	f000 fd76 	bl	100091c0 <dcd_event_bus_signal>
100086d4:	4b0c      	ldr	r3, [pc, #48]	; (10008708 <dcd_rp2040_irq+0xb8>)
100086d6:	2210      	movs	r2, #16
100086d8:	651a      	str	r2, [r3, #80]	; 0x50
100086da:	e7c9      	b.n	10008670 <dcd_rp2040_irq+0x20>
100086dc:	2380      	movs	r3, #128	; 0x80
100086de:	021b      	lsls	r3, r3, #8
100086e0:	431d      	orrs	r5, r3
100086e2:	2201      	movs	r2, #1
100086e4:	2105      	movs	r1, #5
100086e6:	2000      	movs	r0, #0
100086e8:	f000 fd6a 	bl	100091c0 <dcd_event_bus_signal>
100086ec:	4b06      	ldr	r3, [pc, #24]	; (10008708 <dcd_rp2040_irq+0xb8>)
100086ee:	2280      	movs	r2, #128	; 0x80
100086f0:	0112      	lsls	r2, r2, #4
100086f2:	651a      	str	r2, [r3, #80]	; 0x50
100086f4:	e7be      	b.n	10008674 <dcd_rp2040_irq+0x24>
100086f6:	0029      	movs	r1, r5
100086f8:	4061      	eors	r1, r4
100086fa:	4804      	ldr	r0, [pc, #16]	; (1000870c <dcd_rp2040_irq+0xbc>)
100086fc:	f7fd f872 	bl	100057e4 <panic>
10008700:	50110000 	.word	0x50110000
10008704:	50100000 	.word	0x50100000
10008708:	50113000 	.word	0x50113000
1000870c:	1000d90c 	.word	0x1000d90c

10008710 <hw_endpoint_xfer>:
10008710:	b570      	push	{r4, r5, r6, lr}
10008712:	000c      	movs	r4, r1
10008714:	0015      	movs	r5, r2
10008716:	f7ff fe99 	bl	1000844c <hw_endpoint_get_by_addr>
1000871a:	002a      	movs	r2, r5
1000871c:	0021      	movs	r1, r4
1000871e:	f000 f9ff 	bl	10008b20 <hw_endpoint_xfer_start>
10008722:	bd70      	pop	{r4, r5, r6, pc}

10008724 <dcd_int_enable>:
10008724:	b510      	push	{r4, lr}
10008726:	2800      	cmp	r0, #0
10008728:	d104      	bne.n	10008734 <dcd_int_enable+0x10>
1000872a:	2101      	movs	r1, #1
1000872c:	2005      	movs	r0, #5
1000872e:	f7fb fb79 	bl	10003e24 <irq_set_enabled>
10008732:	bd10      	pop	{r4, pc}
10008734:	21b9      	movs	r1, #185	; 0xb9
10008736:	4b03      	ldr	r3, [pc, #12]	; (10008744 <dcd_int_enable+0x20>)
10008738:	4a03      	ldr	r2, [pc, #12]	; (10008748 <dcd_int_enable+0x24>)
1000873a:	0049      	lsls	r1, r1, #1
1000873c:	4803      	ldr	r0, [pc, #12]	; (1000874c <dcd_int_enable+0x28>)
1000873e:	f7fc ffb7 	bl	100056b0 <__assert_func>
10008742:	46c0      	nop			; (mov r8, r8)
10008744:	1000d920 	.word	0x1000d920
10008748:	1000d95c 	.word	0x1000d95c
1000874c:	1000d878 	.word	0x1000d878

10008750 <dcd_set_address>:
10008750:	b510      	push	{r4, lr}
10008752:	2800      	cmp	r0, #0
10008754:	d105      	bne.n	10008762 <dcd_set_address+0x12>
10008756:	2200      	movs	r2, #0
10008758:	2100      	movs	r1, #0
1000875a:	2080      	movs	r0, #128	; 0x80
1000875c:	f7ff ffd8 	bl	10008710 <hw_endpoint_xfer>
10008760:	bd10      	pop	{r4, pc}
10008762:	21bf      	movs	r1, #191	; 0xbf
10008764:	4b02      	ldr	r3, [pc, #8]	; (10008770 <dcd_set_address+0x20>)
10008766:	4a03      	ldr	r2, [pc, #12]	; (10008774 <dcd_set_address+0x24>)
10008768:	0049      	lsls	r1, r1, #1
1000876a:	4803      	ldr	r0, [pc, #12]	; (10008778 <dcd_set_address+0x28>)
1000876c:	f7fc ffa0 	bl	100056b0 <__assert_func>
10008770:	1000d920 	.word	0x1000d920
10008774:	1000d94c 	.word	0x1000d94c
10008778:	1000d878 	.word	0x1000d878

1000877c <dcd_connect>:
1000877c:	4b02      	ldr	r3, [pc, #8]	; (10008788 <dcd_connect+0xc>)
1000877e:	2280      	movs	r2, #128	; 0x80
10008780:	0252      	lsls	r2, r2, #9
10008782:	64da      	str	r2, [r3, #76]	; 0x4c
10008784:	4770      	bx	lr
10008786:	46c0      	nop			; (mov r8, r8)
10008788:	50112000 	.word	0x50112000

1000878c <dcd_init>:
1000878c:	b570      	push	{r4, r5, r6, lr}
1000878e:	1e04      	subs	r4, r0, #0
10008790:	d125      	bne.n	100087de <dcd_init+0x52>
10008792:	f000 f933 	bl	100089fc <rp2040_usb_init>
10008796:	4d15      	ldr	r5, [pc, #84]	; (100087ec <dcd_init+0x60>)
10008798:	230c      	movs	r3, #12
1000879a:	67ab      	str	r3, [r5, #120]	; 0x78
1000879c:	4914      	ldr	r1, [pc, #80]	; (100087f0 <dcd_init+0x64>)
1000879e:	2005      	movs	r0, #5
100087a0:	f7fb fb6a 	bl	10003e78 <irq_set_exclusive_handler>
100087a4:	2240      	movs	r2, #64	; 0x40
100087a6:	2100      	movs	r1, #0
100087a8:	4812      	ldr	r0, [pc, #72]	; (100087f4 <dcd_init+0x68>)
100087aa:	f7ff fa7d 	bl	10007ca8 <__wrap_memset>
100087ae:	2200      	movs	r2, #0
100087b0:	2140      	movs	r1, #64	; 0x40
100087b2:	2000      	movs	r0, #0
100087b4:	f7ff fea2 	bl	100084fc <hw_endpoint_init>
100087b8:	2200      	movs	r2, #0
100087ba:	2140      	movs	r1, #64	; 0x40
100087bc:	2080      	movs	r0, #128	; 0x80
100087be:	f7ff fe9d 	bl	100084fc <hw_endpoint_init>
100087c2:	f7ff fedf 	bl	10008584 <reset_non_control_endpoints>
100087c6:	2301      	movs	r3, #1
100087c8:	642b      	str	r3, [r5, #64]	; 0x40
100087ca:	2380      	movs	r3, #128	; 0x80
100087cc:	059b      	lsls	r3, r3, #22
100087ce:	64eb      	str	r3, [r5, #76]	; 0x4c
100087d0:	2390      	movs	r3, #144	; 0x90
100087d2:	4a09      	ldr	r2, [pc, #36]	; (100087f8 <dcd_init+0x6c>)
100087d4:	50ea      	str	r2, [r5, r3]
100087d6:	0020      	movs	r0, r4
100087d8:	f7ff ffd0 	bl	1000877c <dcd_connect>
100087dc:	bd70      	pop	{r4, r5, r6, pc}
100087de:	214e      	movs	r1, #78	; 0x4e
100087e0:	4b06      	ldr	r3, [pc, #24]	; (100087fc <dcd_init+0x70>)
100087e2:	4a07      	ldr	r2, [pc, #28]	; (10008800 <dcd_init+0x74>)
100087e4:	31ff      	adds	r1, #255	; 0xff
100087e6:	4807      	ldr	r0, [pc, #28]	; (10008804 <dcd_init+0x78>)
100087e8:	f7fc ff62 	bl	100056b0 <__assert_func>
100087ec:	50110000 	.word	0x50110000
100087f0:	10008651 	.word	0x10008651
100087f4:	200014cc 	.word	0x200014cc
100087f8:	0001d010 	.word	0x0001d010
100087fc:	1000d920 	.word	0x1000d920
10008800:	1000d980 	.word	0x1000d980
10008804:	1000d878 	.word	0x1000d878

10008808 <dcd_edpt0_status_complete>:
10008808:	780b      	ldrb	r3, [r1, #0]
1000880a:	065b      	lsls	r3, r3, #25
1000880c:	d102      	bne.n	10008814 <dcd_edpt0_status_complete+0xc>
1000880e:	784b      	ldrb	r3, [r1, #1]
10008810:	2b05      	cmp	r3, #5
10008812:	d000      	beq.n	10008816 <dcd_edpt0_status_complete+0xe>
10008814:	4770      	bx	lr
10008816:	788a      	ldrb	r2, [r1, #2]
10008818:	4b01      	ldr	r3, [pc, #4]	; (10008820 <dcd_edpt0_status_complete+0x18>)
1000881a:	601a      	str	r2, [r3, #0]
1000881c:	e7fa      	b.n	10008814 <dcd_edpt0_status_complete+0xc>
1000881e:	46c0      	nop			; (mov r8, r8)
10008820:	50110000 	.word	0x50110000

10008824 <dcd_edpt_open>:
10008824:	b510      	push	{r4, lr}
10008826:	000c      	movs	r4, r1
10008828:	2800      	cmp	r0, #0
1000882a:	d10d      	bne.n	10008848 <dcd_edpt_open+0x24>
1000882c:	790a      	ldrb	r2, [r1, #4]
1000882e:	794b      	ldrb	r3, [r1, #5]
10008830:	2107      	movs	r1, #7
10008832:	4019      	ands	r1, r3
10008834:	0209      	lsls	r1, r1, #8
10008836:	4311      	orrs	r1, r2
10008838:	78e2      	ldrb	r2, [r4, #3]
1000883a:	0792      	lsls	r2, r2, #30
1000883c:	0f92      	lsrs	r2, r2, #30
1000883e:	78a0      	ldrb	r0, [r4, #2]
10008840:	f7ff fe5c 	bl	100084fc <hw_endpoint_init>
10008844:	2001      	movs	r0, #1
10008846:	bd10      	pop	{r4, pc}
10008848:	21d6      	movs	r1, #214	; 0xd6
1000884a:	4b03      	ldr	r3, [pc, #12]	; (10008858 <dcd_edpt_open+0x34>)
1000884c:	4a03      	ldr	r2, [pc, #12]	; (1000885c <dcd_edpt_open+0x38>)
1000884e:	0049      	lsls	r1, r1, #1
10008850:	4803      	ldr	r0, [pc, #12]	; (10008860 <dcd_edpt_open+0x3c>)
10008852:	f7fc ff2d 	bl	100056b0 <__assert_func>
10008856:	46c0      	nop			; (mov r8, r8)
10008858:	1000d920 	.word	0x1000d920
1000885c:	1000d93c 	.word	0x1000d93c
10008860:	1000d878 	.word	0x1000d878

10008864 <dcd_edpt_close_all>:
10008864:	b510      	push	{r4, lr}
10008866:	f7ff fe8d 	bl	10008584 <reset_non_control_endpoints>
1000886a:	bd10      	pop	{r4, pc}

1000886c <dcd_edpt_xfer>:
1000886c:	b510      	push	{r4, lr}
1000886e:	0004      	movs	r4, r0
10008870:	0008      	movs	r0, r1
10008872:	0011      	movs	r1, r2
10008874:	001a      	movs	r2, r3
10008876:	2c00      	cmp	r4, #0
10008878:	d103      	bne.n	10008882 <dcd_edpt_xfer+0x16>
1000887a:	f7ff ff49 	bl	10008710 <hw_endpoint_xfer>
1000887e:	2001      	movs	r0, #1
10008880:	bd10      	pop	{r4, pc}
10008882:	21bc      	movs	r1, #188	; 0xbc
10008884:	4b02      	ldr	r3, [pc, #8]	; (10008890 <dcd_edpt_xfer+0x24>)
10008886:	4a03      	ldr	r2, [pc, #12]	; (10008894 <dcd_edpt_xfer+0x28>)
10008888:	31ff      	adds	r1, #255	; 0xff
1000888a:	4803      	ldr	r0, [pc, #12]	; (10008898 <dcd_edpt_xfer+0x2c>)
1000888c:	f7fc ff10 	bl	100056b0 <__assert_func>
10008890:	1000d920 	.word	0x1000d920
10008894:	1000d92c 	.word	0x1000d92c
10008898:	1000d878 	.word	0x1000d878

1000889c <dcd_edpt_stall>:
1000889c:	b510      	push	{r4, lr}
1000889e:	0008      	movs	r0, r1
100088a0:	064b      	lsls	r3, r1, #25
100088a2:	d105      	bne.n	100088b0 <dcd_edpt_stall+0x14>
100088a4:	09cb      	lsrs	r3, r1, #7
100088a6:	2b01      	cmp	r3, #1
100088a8:	d00a      	beq.n	100088c0 <dcd_edpt_stall+0x24>
100088aa:	2202      	movs	r2, #2
100088ac:	4b05      	ldr	r3, [pc, #20]	; (100088c4 <dcd_edpt_stall+0x28>)
100088ae:	669a      	str	r2, [r3, #104]	; 0x68
100088b0:	f7ff fdcc 	bl	1000844c <hw_endpoint_get_by_addr>
100088b4:	2280      	movs	r2, #128	; 0x80
100088b6:	0112      	lsls	r2, r2, #4
100088b8:	2100      	movs	r1, #0
100088ba:	f000 f8cb 	bl	10008a54 <_hw_endpoint_buffer_control_update32>
100088be:	bd10      	pop	{r4, pc}
100088c0:	2201      	movs	r2, #1
100088c2:	e7f3      	b.n	100088ac <dcd_edpt_stall+0x10>
100088c4:	50112000 	.word	0x50112000

100088c8 <dcd_edpt_clear_stall>:
100088c8:	b510      	push	{r4, lr}
100088ca:	0008      	movs	r0, r1
100088cc:	064b      	lsls	r3, r1, #25
100088ce:	d100      	bne.n	100088d2 <dcd_edpt_clear_stall+0xa>
100088d0:	bd10      	pop	{r4, pc}
100088d2:	f7ff fdbb 	bl	1000844c <hw_endpoint_get_by_addr>
100088d6:	2300      	movs	r3, #0
100088d8:	70c3      	strb	r3, [r0, #3]
100088da:	2200      	movs	r2, #0
100088dc:	4901      	ldr	r1, [pc, #4]	; (100088e4 <dcd_edpt_clear_stall+0x1c>)
100088de:	f000 f8b9 	bl	10008a54 <_hw_endpoint_buffer_control_update32>
100088e2:	e7f5      	b.n	100088d0 <dcd_edpt_clear_stall+0x8>
100088e4:	fffff7ff 	.word	0xfffff7ff

100088e8 <prepare_ep_buffer>:
100088e8:	b5f8      	push	{r3, r4, r5, r6, r7, lr}
100088ea:	0004      	movs	r4, r0
100088ec:	000f      	movs	r7, r1
100088ee:	8a43      	ldrh	r3, [r0, #18]
100088f0:	8b82      	ldrh	r2, [r0, #28]
100088f2:	1c1e      	adds	r6, r3, #0
100088f4:	4293      	cmp	r3, r2
100088f6:	d900      	bls.n	100088fa <prepare_ep_buffer+0x12>
100088f8:	1c16      	adds	r6, r2, #0
100088fa:	b2b6      	uxth	r6, r6
100088fc:	1b9b      	subs	r3, r3, r6
100088fe:	8263      	strh	r3, [r4, #18]
10008900:	2580      	movs	r5, #128	; 0x80
10008902:	00ed      	lsls	r5, r5, #3
10008904:	4335      	orrs	r5, r6
10008906:	78e3      	ldrb	r3, [r4, #3]
10008908:	2b00      	cmp	r3, #0
1000890a:	d013      	beq.n	10008934 <prepare_ep_buffer+0x4c>
1000890c:	2280      	movs	r2, #128	; 0x80
1000890e:	0192      	lsls	r2, r2, #6
10008910:	4315      	orrs	r5, r2
10008912:	2201      	movs	r2, #1
10008914:	4053      	eors	r3, r2
10008916:	70e3      	strb	r3, [r4, #3]
10008918:	7863      	ldrb	r3, [r4, #1]
1000891a:	2b00      	cmp	r3, #0
1000891c:	d00c      	beq.n	10008938 <prepare_ep_buffer+0x50>
1000891e:	8a63      	ldrh	r3, [r4, #18]
10008920:	2b00      	cmp	r3, #0
10008922:	d102      	bne.n	1000892a <prepare_ep_buffer+0x42>
10008924:	2380      	movs	r3, #128	; 0x80
10008926:	01db      	lsls	r3, r3, #7
10008928:	431d      	orrs	r5, r3
1000892a:	2f00      	cmp	r7, #0
1000892c:	d000      	beq.n	10008930 <prepare_ep_buffer+0x48>
1000892e:	042d      	lsls	r5, r5, #16
10008930:	0028      	movs	r0, r5
10008932:	bdf8      	pop	{r3, r4, r5, r6, r7, pc}
10008934:	2200      	movs	r2, #0
10008936:	e7eb      	b.n	10008910 <prepare_ep_buffer+0x28>
10008938:	01b8      	lsls	r0, r7, #6
1000893a:	68e3      	ldr	r3, [r4, #12]
1000893c:	469c      	mov	ip, r3
1000893e:	4460      	add	r0, ip
10008940:	0032      	movs	r2, r6
10008942:	69a1      	ldr	r1, [r4, #24]
10008944:	f7ff f9b6 	bl	10007cb4 <__wrap___aeabi_memcpy>
10008948:	69a3      	ldr	r3, [r4, #24]
1000894a:	469c      	mov	ip, r3
1000894c:	4466      	add	r6, ip
1000894e:	61a6      	str	r6, [r4, #24]
10008950:	2380      	movs	r3, #128	; 0x80
10008952:	021b      	lsls	r3, r3, #8
10008954:	431d      	orrs	r5, r3
10008956:	e7e2      	b.n	1000891e <prepare_ep_buffer+0x36>

10008958 <sync_ep_buffer>:
10008958:	b570      	push	{r4, r5, r6, lr}
1000895a:	0004      	movs	r4, r0
1000895c:	6883      	ldr	r3, [r0, #8]
1000895e:	681b      	ldr	r3, [r3, #0]
10008960:	2900      	cmp	r1, #0
10008962:	d000      	beq.n	10008966 <sync_ep_buffer+0xe>
10008964:	0c1b      	lsrs	r3, r3, #16
10008966:	059d      	lsls	r5, r3, #22
10008968:	0dad      	lsrs	r5, r5, #22
1000896a:	7862      	ldrb	r2, [r4, #1]
1000896c:	2a00      	cmp	r2, #0
1000896e:	d111      	bne.n	10008994 <sync_ep_buffer+0x3c>
10008970:	041b      	lsls	r3, r3, #16
10008972:	d409      	bmi.n	10008988 <sync_ep_buffer+0x30>
10008974:	8aa3      	ldrh	r3, [r4, #20]
10008976:	195b      	adds	r3, r3, r5
10008978:	82a3      	strh	r3, [r4, #20]
1000897a:	8ba3      	ldrh	r3, [r4, #28]
1000897c:	42ab      	cmp	r3, r5
1000897e:	d901      	bls.n	10008984 <sync_ep_buffer+0x2c>
10008980:	2300      	movs	r3, #0
10008982:	8263      	strh	r3, [r4, #18]
10008984:	0028      	movs	r0, r5
10008986:	bd70      	pop	{r4, r5, r6, pc}
10008988:	4b0e      	ldr	r3, [pc, #56]	; (100089c4 <sync_ep_buffer+0x6c>)
1000898a:	4a0f      	ldr	r2, [pc, #60]	; (100089c8 <sync_ep_buffer+0x70>)
1000898c:	21d7      	movs	r1, #215	; 0xd7
1000898e:	480f      	ldr	r0, [pc, #60]	; (100089cc <sync_ep_buffer+0x74>)
10008990:	f7fc fe8e 	bl	100056b0 <__assert_func>
10008994:	041b      	lsls	r3, r3, #16
10008996:	d50e      	bpl.n	100089b6 <sync_ep_buffer+0x5e>
10008998:	0189      	lsls	r1, r1, #6
1000899a:	68e3      	ldr	r3, [r4, #12]
1000899c:	469c      	mov	ip, r3
1000899e:	4461      	add	r1, ip
100089a0:	002a      	movs	r2, r5
100089a2:	69a0      	ldr	r0, [r4, #24]
100089a4:	f7ff f986 	bl	10007cb4 <__wrap___aeabi_memcpy>
100089a8:	8aa3      	ldrh	r3, [r4, #20]
100089aa:	195b      	adds	r3, r3, r5
100089ac:	82a3      	strh	r3, [r4, #20]
100089ae:	69a3      	ldr	r3, [r4, #24]
100089b0:	195b      	adds	r3, r3, r5
100089b2:	61a3      	str	r3, [r4, #24]
100089b4:	e7e1      	b.n	1000897a <sync_ep_buffer+0x22>
100089b6:	4b06      	ldr	r3, [pc, #24]	; (100089d0 <sync_ep_buffer+0x78>)
100089b8:	4a03      	ldr	r2, [pc, #12]	; (100089c8 <sync_ep_buffer+0x70>)
100089ba:	21de      	movs	r1, #222	; 0xde
100089bc:	4803      	ldr	r0, [pc, #12]	; (100089cc <sync_ep_buffer+0x74>)
100089be:	f7fc fe77 	bl	100056b0 <__assert_func>
100089c2:	46c0      	nop			; (mov r8, r8)
100089c4:	1000d98c 	.word	0x1000d98c
100089c8:	1000dab8 	.word	0x1000dab8
100089cc:	1000d9ac 	.word	0x1000d9ac
100089d0:	1000da0c 	.word	0x1000da0c

100089d4 <_hw_endpoint_xfer_sync>:
100089d4:	b510      	push	{r4, lr}
100089d6:	0004      	movs	r4, r0
100089d8:	6883      	ldr	r3, [r0, #8]
100089da:	681b      	ldr	r3, [r3, #0]
100089dc:	2100      	movs	r1, #0
100089de:	f7ff ffbb 	bl	10008958 <sync_ep_buffer>
100089e2:	6863      	ldr	r3, [r4, #4]
100089e4:	681b      	ldr	r3, [r3, #0]
100089e6:	005b      	lsls	r3, r3, #1
100089e8:	d502      	bpl.n	100089f0 <_hw_endpoint_xfer_sync+0x1c>
100089ea:	8ba3      	ldrh	r3, [r4, #28]
100089ec:	4283      	cmp	r3, r0
100089ee:	d000      	beq.n	100089f2 <_hw_endpoint_xfer_sync+0x1e>
100089f0:	bd10      	pop	{r4, pc}
100089f2:	2101      	movs	r1, #1
100089f4:	0020      	movs	r0, r4
100089f6:	f7ff ffaf 	bl	10008958 <sync_ep_buffer>
100089fa:	e7f9      	b.n	100089f0 <_hw_endpoint_xfer_sync+0x1c>

100089fc <rp2040_usb_init>:
100089fc:	b510      	push	{r4, lr}
100089fe:	2380      	movs	r3, #128	; 0x80
10008a00:	045b      	lsls	r3, r3, #17
10008a02:	4a0c      	ldr	r2, [pc, #48]	; (10008a34 <rp2040_usb_init+0x38>)
10008a04:	6013      	str	r3, [r2, #0]
10008a06:	4a0c      	ldr	r2, [pc, #48]	; (10008a38 <rp2040_usb_init+0x3c>)
10008a08:	6013      	str	r3, [r2, #0]
10008a0a:	4b0c      	ldr	r3, [pc, #48]	; (10008a3c <rp2040_usb_init+0x40>)
10008a0c:	689a      	ldr	r2, [r3, #8]
10008a0e:	2380      	movs	r3, #128	; 0x80
10008a10:	045b      	lsls	r3, r3, #17
10008a12:	4393      	bics	r3, r2
10008a14:	d1f9      	bne.n	10008a0a <rp2040_usb_init+0xe>
10008a16:	4c0a      	ldr	r4, [pc, #40]	; (10008a40 <rp2040_usb_init+0x44>)
10008a18:	229c      	movs	r2, #156	; 0x9c
10008a1a:	2100      	movs	r1, #0
10008a1c:	0020      	movs	r0, r4
10008a1e:	f7ff f943 	bl	10007ca8 <__wrap_memset>
10008a22:	2280      	movs	r2, #128	; 0x80
10008a24:	0152      	lsls	r2, r2, #5
10008a26:	2100      	movs	r1, #0
10008a28:	4806      	ldr	r0, [pc, #24]	; (10008a44 <rp2040_usb_init+0x48>)
10008a2a:	f7ff f93d 	bl	10007ca8 <__wrap_memset>
10008a2e:	2309      	movs	r3, #9
10008a30:	6763      	str	r3, [r4, #116]	; 0x74
10008a32:	bd10      	pop	{r4, pc}
10008a34:	4000e000 	.word	0x4000e000
10008a38:	4000f000 	.word	0x4000f000
10008a3c:	4000c000 	.word	0x4000c000
10008a40:	50110000 	.word	0x50110000
10008a44:	50100000 	.word	0x50100000

10008a48 <hw_endpoint_reset_transfer>:
10008a48:	2300      	movs	r3, #0
10008a4a:	7403      	strb	r3, [r0, #16]
10008a4c:	8243      	strh	r3, [r0, #18]
10008a4e:	8283      	strh	r3, [r0, #20]
10008a50:	6183      	str	r3, [r0, #24]
10008a52:	4770      	bx	lr

10008a54 <_hw_endpoint_buffer_control_update32>:
10008a54:	b510      	push	{r4, lr}
10008a56:	2900      	cmp	r1, #0
10008a58:	d002      	beq.n	10008a60 <_hw_endpoint_buffer_control_update32+0xc>
10008a5a:	6883      	ldr	r3, [r0, #8]
10008a5c:	681b      	ldr	r3, [r3, #0]
10008a5e:	4019      	ands	r1, r3
10008a60:	2a00      	cmp	r2, #0
10008a62:	d00f      	beq.n	10008a84 <_hw_endpoint_buffer_control_update32+0x30>
10008a64:	4311      	orrs	r1, r2
10008a66:	0553      	lsls	r3, r2, #21
10008a68:	d50c      	bpl.n	10008a84 <_hw_endpoint_buffer_control_update32+0x30>
10008a6a:	6882      	ldr	r2, [r0, #8]
10008a6c:	6813      	ldr	r3, [r2, #0]
10008a6e:	055b      	lsls	r3, r3, #21
10008a70:	d40b      	bmi.n	10008a8a <_hw_endpoint_buffer_control_update32+0x36>
10008a72:	4b0b      	ldr	r3, [pc, #44]	; (10008aa0 <_hw_endpoint_buffer_control_update32+0x4c>)
10008a74:	400b      	ands	r3, r1
10008a76:	6013      	str	r3, [r2, #0]
10008a78:	e7ff      	b.n	10008a7a <_hw_endpoint_buffer_control_update32+0x26>
10008a7a:	e7ff      	b.n	10008a7c <_hw_endpoint_buffer_control_update32+0x28>
10008a7c:	e7ff      	b.n	10008a7e <_hw_endpoint_buffer_control_update32+0x2a>
10008a7e:	e7ff      	b.n	10008a80 <_hw_endpoint_buffer_control_update32+0x2c>
10008a80:	e7ff      	b.n	10008a82 <_hw_endpoint_buffer_control_update32+0x2e>
10008a82:	e7ff      	b.n	10008a84 <_hw_endpoint_buffer_control_update32+0x30>
10008a84:	6883      	ldr	r3, [r0, #8]
10008a86:	6019      	str	r1, [r3, #0]
10008a88:	bd10      	pop	{r4, pc}
10008a8a:	7883      	ldrb	r3, [r0, #2]
10008a8c:	217f      	movs	r1, #127	; 0x7f
10008a8e:	4019      	ands	r1, r3
10008a90:	09db      	lsrs	r3, r3, #7
10008a92:	009b      	lsls	r3, r3, #2
10008a94:	4a03      	ldr	r2, [pc, #12]	; (10008aa4 <_hw_endpoint_buffer_control_update32+0x50>)
10008a96:	589a      	ldr	r2, [r3, r2]
10008a98:	4803      	ldr	r0, [pc, #12]	; (10008aa8 <_hw_endpoint_buffer_control_update32+0x54>)
10008a9a:	f7fc fea3 	bl	100057e4 <panic>
10008a9e:	46c0      	nop			; (mov r8, r8)
10008aa0:	fffffbff 	.word	0xfffffbff
10008aa4:	200004d4 	.word	0x200004d4
10008aa8:	1000da2c 	.word	0x1000da2c

10008aac <_hw_endpoint_start_next_buffer>:
10008aac:	b570      	push	{r4, r5, r6, lr}
10008aae:	0004      	movs	r4, r0
10008ab0:	6843      	ldr	r3, [r0, #4]
10008ab2:	681e      	ldr	r6, [r3, #0]
10008ab4:	2100      	movs	r1, #0
10008ab6:	f7ff ff17 	bl	100088e8 <prepare_ep_buffer>
10008aba:	2580      	movs	r5, #128	; 0x80
10008abc:	016d      	lsls	r5, r5, #5
10008abe:	4305      	orrs	r5, r0
10008ac0:	4b14      	ldr	r3, [pc, #80]	; (10008b14 <_hw_endpoint_start_next_buffer+0x68>)
10008ac2:	6c1b      	ldr	r3, [r3, #64]	; 0x40
10008ac4:	079b      	lsls	r3, r3, #30
10008ac6:	d404      	bmi.n	10008ad2 <_hw_endpoint_start_next_buffer+0x26>
10008ac8:	78a3      	ldrb	r3, [r4, #2]
10008aca:	09db      	lsrs	r3, r3, #7
10008acc:	d114      	bne.n	10008af8 <_hw_endpoint_start_next_buffer+0x4c>
10008ace:	3301      	adds	r3, #1
10008ad0:	e000      	b.n	10008ad4 <_hw_endpoint_start_next_buffer+0x28>
10008ad2:	2300      	movs	r3, #0
10008ad4:	8a62      	ldrh	r2, [r4, #18]
10008ad6:	2a00      	cmp	r2, #0
10008ad8:	d001      	beq.n	10008ade <_hw_endpoint_start_next_buffer+0x32>
10008ada:	2b00      	cmp	r3, #0
10008adc:	d00e      	beq.n	10008afc <_hw_endpoint_start_next_buffer+0x50>
10008ade:	4b0e      	ldr	r3, [pc, #56]	; (10008b18 <_hw_endpoint_start_next_buffer+0x6c>)
10008ae0:	401e      	ands	r6, r3
10008ae2:	2380      	movs	r3, #128	; 0x80
10008ae4:	059b      	lsls	r3, r3, #22
10008ae6:	4333      	orrs	r3, r6
10008ae8:	6862      	ldr	r2, [r4, #4]
10008aea:	6013      	str	r3, [r2, #0]
10008aec:	002a      	movs	r2, r5
10008aee:	2100      	movs	r1, #0
10008af0:	0020      	movs	r0, r4
10008af2:	f7ff ffaf 	bl	10008a54 <_hw_endpoint_buffer_control_update32>
10008af6:	bd70      	pop	{r4, r5, r6, pc}
10008af8:	2300      	movs	r3, #0
10008afa:	e7eb      	b.n	10008ad4 <_hw_endpoint_start_next_buffer+0x28>
10008afc:	2101      	movs	r1, #1
10008afe:	0020      	movs	r0, r4
10008b00:	f7ff fef2 	bl	100088e8 <prepare_ep_buffer>
10008b04:	4305      	orrs	r5, r0
10008b06:	4b05      	ldr	r3, [pc, #20]	; (10008b1c <_hw_endpoint_start_next_buffer+0x70>)
10008b08:	401e      	ands	r6, r3
10008b0a:	23a0      	movs	r3, #160	; 0xa0
10008b0c:	05db      	lsls	r3, r3, #23
10008b0e:	4333      	orrs	r3, r6
10008b10:	e7ea      	b.n	10008ae8 <_hw_endpoint_start_next_buffer+0x3c>
10008b12:	46c0      	nop			; (mov r8, r8)
10008b14:	50110000 	.word	0x50110000
10008b18:	afffffff 	.word	0xafffffff
10008b1c:	dfffffff 	.word	0xdfffffff

10008b20 <hw_endpoint_xfer_start>:
10008b20:	b570      	push	{r4, r5, r6, lr}
10008b22:	0004      	movs	r4, r0
10008b24:	000d      	movs	r5, r1
10008b26:	0016      	movs	r6, r2
10008b28:	7c03      	ldrb	r3, [r0, #16]
10008b2a:	2b00      	cmp	r3, #0
10008b2c:	d109      	bne.n	10008b42 <hw_endpoint_xfer_start+0x22>
10008b2e:	8266      	strh	r6, [r4, #18]
10008b30:	2300      	movs	r3, #0
10008b32:	82a3      	strh	r3, [r4, #20]
10008b34:	3301      	adds	r3, #1
10008b36:	7423      	strb	r3, [r4, #16]
10008b38:	61a5      	str	r5, [r4, #24]
10008b3a:	0020      	movs	r0, r4
10008b3c:	f7ff ffb6 	bl	10008aac <_hw_endpoint_start_next_buffer>
10008b40:	bd70      	pop	{r4, r5, r6, pc}
10008b42:	7883      	ldrb	r3, [r0, #2]
10008b44:	217f      	movs	r1, #127	; 0x7f
10008b46:	4019      	ands	r1, r3
10008b48:	09db      	lsrs	r3, r3, #7
10008b4a:	009b      	lsls	r3, r3, #2
10008b4c:	4a04      	ldr	r2, [pc, #16]	; (10008b60 <hw_endpoint_xfer_start+0x40>)
10008b4e:	589a      	ldr	r2, [r3, r2]
10008b50:	4804      	ldr	r0, [pc, #16]	; (10008b64 <hw_endpoint_xfer_start+0x44>)
10008b52:	f7ff fa65 	bl	10008020 <__wrap_printf>
10008b56:	0020      	movs	r0, r4
10008b58:	f7ff ff76 	bl	10008a48 <hw_endpoint_reset_transfer>
10008b5c:	e7e7      	b.n	10008b2e <hw_endpoint_xfer_start+0xe>
10008b5e:	46c0      	nop			; (mov r8, r8)
10008b60:	200004d4 	.word	0x200004d4
10008b64:	1000da4c 	.word	0x1000da4c

10008b68 <hw_endpoint_xfer_continue>:
10008b68:	b570      	push	{r4, r5, r6, lr}
10008b6a:	0004      	movs	r4, r0
10008b6c:	7c05      	ldrb	r5, [r0, #16]
10008b6e:	2d00      	cmp	r5, #0
10008b70:	d006      	beq.n	10008b80 <hw_endpoint_xfer_continue+0x18>
10008b72:	f7ff ff2f 	bl	100089d4 <_hw_endpoint_xfer_sync>
10008b76:	8a63      	ldrh	r3, [r4, #18]
10008b78:	2b00      	cmp	r3, #0
10008b7a:	d108      	bne.n	10008b8e <hw_endpoint_xfer_continue+0x26>
10008b7c:	0028      	movs	r0, r5
10008b7e:	bd70      	pop	{r4, r5, r6, pc}
10008b80:	7881      	ldrb	r1, [r0, #2]
10008b82:	237f      	movs	r3, #127	; 0x7f
10008b84:	4019      	ands	r1, r3
10008b86:	4a04      	ldr	r2, [pc, #16]	; (10008b98 <hw_endpoint_xfer_continue+0x30>)
10008b88:	4804      	ldr	r0, [pc, #16]	; (10008b9c <hw_endpoint_xfer_continue+0x34>)
10008b8a:	f7fc fe2b 	bl	100057e4 <panic>
10008b8e:	0020      	movs	r0, r4
10008b90:	f7ff ff8c 	bl	10008aac <_hw_endpoint_start_next_buffer>
10008b94:	2500      	movs	r5, #0
10008b96:	e7f1      	b.n	10008b7c <hw_endpoint_xfer_continue+0x14>
10008b98:	200004d4 	.word	0x200004d4
10008b9c:	1000da84 	.word	0x1000da84

10008ba0 <configuration_reset>:
10008ba0:	b570      	push	{r4, r5, r6, lr}
10008ba2:	0005      	movs	r5, r0
10008ba4:	2400      	movs	r4, #0
10008ba6:	e00e      	b.n	10008bc6 <configuration_reset+0x26>
10008ba8:	0063      	lsls	r3, r4, #1
10008baa:	191b      	adds	r3, r3, r4
10008bac:	00da      	lsls	r2, r3, #3
10008bae:	4b18      	ldr	r3, [pc, #96]	; (10008c10 <configuration_reset+0x70>)
10008bb0:	681b      	ldr	r3, [r3, #0]
10008bb2:	189b      	adds	r3, r3, r2
10008bb4:	e002      	b.n	10008bbc <configuration_reset+0x1c>
10008bb6:	0023      	movs	r3, r4
10008bb8:	e010      	b.n	10008bdc <configuration_reset+0x3c>
10008bba:	2300      	movs	r3, #0
10008bbc:	685b      	ldr	r3, [r3, #4]
10008bbe:	0028      	movs	r0, r5
10008bc0:	4798      	blx	r3
10008bc2:	3401      	adds	r4, #1
10008bc4:	b2e4      	uxtb	r4, r4
10008bc6:	4b13      	ldr	r3, [pc, #76]	; (10008c14 <configuration_reset+0x74>)
10008bc8:	781b      	ldrb	r3, [r3, #0]
10008bca:	42a3      	cmp	r3, r4
10008bcc:	d30e      	bcc.n	10008bec <configuration_reset+0x4c>
10008bce:	4a12      	ldr	r2, [pc, #72]	; (10008c18 <configuration_reset+0x78>)
10008bd0:	2a00      	cmp	r2, #0
10008bd2:	d0f0      	beq.n	10008bb6 <configuration_reset+0x16>
10008bd4:	42a3      	cmp	r3, r4
10008bd6:	d8e7      	bhi.n	10008ba8 <configuration_reset+0x8>
10008bd8:	1ae3      	subs	r3, r4, r3
10008bda:	b2db      	uxtb	r3, r3
10008bdc:	2b00      	cmp	r3, #0
10008bde:	d1ec      	bne.n	10008bba <configuration_reset+0x1a>
10008be0:	005a      	lsls	r2, r3, #1
10008be2:	18d2      	adds	r2, r2, r3
10008be4:	00d2      	lsls	r2, r2, #3
10008be6:	4b0d      	ldr	r3, [pc, #52]	; (10008c1c <configuration_reset+0x7c>)
10008be8:	189b      	adds	r3, r3, r2
10008bea:	e7e7      	b.n	10008bbc <configuration_reset+0x1c>
10008bec:	4c0c      	ldr	r4, [pc, #48]	; (10008c20 <configuration_reset+0x80>)
10008bee:	2253      	movs	r2, #83	; 0x53
10008bf0:	2100      	movs	r1, #0
10008bf2:	0020      	movs	r0, r4
10008bf4:	f7ff f858 	bl	10007ca8 <__wrap_memset>
10008bf8:	1ce0      	adds	r0, r4, #3
10008bfa:	2210      	movs	r2, #16
10008bfc:	21ff      	movs	r1, #255	; 0xff
10008bfe:	f7ff f853 	bl	10007ca8 <__wrap_memset>
10008c02:	0020      	movs	r0, r4
10008c04:	3013      	adds	r0, #19
10008c06:	2220      	movs	r2, #32
10008c08:	21ff      	movs	r1, #255	; 0xff
10008c0a:	f7ff f84d 	bl	10007ca8 <__wrap_memset>
10008c0e:	bd70      	pop	{r4, r5, r6, pc}
10008c10:	20000ec4 	.word	0x20000ec4
10008c14:	20001b22 	.word	0x20001b22
10008c18:	100080fd 	.word	0x100080fd
10008c1c:	1000dc00 	.word	0x1000dc00
10008c20:	200011fc 	.word	0x200011fc

10008c24 <usbd_reset>:
10008c24:	b510      	push	{r4, lr}
10008c26:	f7ff ffbb 	bl	10008ba0 <configuration_reset>
10008c2a:	f001 f82b 	bl	10009c84 <usbd_control_reset>
10008c2e:	bd10      	pop	{r4, pc}

10008c30 <invoke_class_control>:
10008c30:	b570      	push	{r4, r5, r6, lr}
10008c32:	0005      	movs	r5, r0
10008c34:	000c      	movs	r4, r1
10008c36:	0016      	movs	r6, r2
10008c38:	68c8      	ldr	r0, [r1, #12]
10008c3a:	f001 f82d 	bl	10009c98 <usbd_control_set_complete_callback>
10008c3e:	68e3      	ldr	r3, [r4, #12]
10008c40:	0032      	movs	r2, r6
10008c42:	2100      	movs	r1, #0
10008c44:	0028      	movs	r0, r5
10008c46:	4798      	blx	r3
10008c48:	bd70      	pop	{r4, r5, r6, pc}
	...

10008c4c <process_set_config>:
10008c4c:	b5f0      	push	{r4, r5, r6, r7, lr}
10008c4e:	46de      	mov	lr, fp
10008c50:	4657      	mov	r7, sl
10008c52:	464e      	mov	r6, r9
10008c54:	4645      	mov	r5, r8
10008c56:	b5e0      	push	{r5, r6, r7, lr}
10008c58:	b083      	sub	sp, #12
10008c5a:	4681      	mov	r9, r0
10008c5c:	3901      	subs	r1, #1
10008c5e:	b2c8      	uxtb	r0, r1
10008c60:	f7ff fbba 	bl	100083d8 <tud_descriptor_configuration_cb>
10008c64:	2800      	cmp	r0, #0
10008c66:	d003      	beq.n	10008c70 <process_set_config+0x24>
10008c68:	7843      	ldrb	r3, [r0, #1]
10008c6a:	4698      	mov	r8, r3
10008c6c:	2b02      	cmp	r3, #2
10008c6e:	d00c      	beq.n	10008c8a <process_set_config+0x3e>
10008c70:	4a56      	ldr	r2, [pc, #344]	; (10008dcc <process_set_config+0x180>)
10008c72:	4957      	ldr	r1, [pc, #348]	; (10008dd0 <process_set_config+0x184>)
10008c74:	4857      	ldr	r0, [pc, #348]	; (10008dd4 <process_set_config+0x188>)
10008c76:	f7ff f9d3 	bl	10008020 <__wrap_printf>
10008c7a:	2000      	movs	r0, #0
10008c7c:	b003      	add	sp, #12
10008c7e:	bcf0      	pop	{r4, r5, r6, r7}
10008c80:	46bb      	mov	fp, r7
10008c82:	46b2      	mov	sl, r6
10008c84:	46a9      	mov	r9, r5
10008c86:	46a0      	mov	r8, r4
10008c88:	bdf0      	pop	{r4, r5, r6, r7, pc}
10008c8a:	79c5      	ldrb	r5, [r0, #7]
10008c8c:	116a      	asrs	r2, r5, #5
10008c8e:	2301      	movs	r3, #1
10008c90:	4951      	ldr	r1, [pc, #324]	; (10008dd8 <process_set_config+0x18c>)
10008c92:	401a      	ands	r2, r3
10008c94:	0114      	lsls	r4, r2, #4
10008c96:	780a      	ldrb	r2, [r1, #0]
10008c98:	2610      	movs	r6, #16
10008c9a:	43b2      	bics	r2, r6
10008c9c:	4322      	orrs	r2, r4
10008c9e:	700a      	strb	r2, [r1, #0]
10008ca0:	11ad      	asrs	r5, r5, #6
10008ca2:	402b      	ands	r3, r5
10008ca4:	015b      	lsls	r3, r3, #5
10008ca6:	b2d2      	uxtb	r2, r2
10008ca8:	2420      	movs	r4, #32
10008caa:	43a2      	bics	r2, r4
10008cac:	4313      	orrs	r3, r2
10008cae:	700b      	strb	r3, [r1, #0]
10008cb0:	0007      	movs	r7, r0
10008cb2:	3709      	adds	r7, #9
10008cb4:	7881      	ldrb	r1, [r0, #2]
10008cb6:	78c3      	ldrb	r3, [r0, #3]
10008cb8:	021b      	lsls	r3, r3, #8
10008cba:	430b      	orrs	r3, r1
10008cbc:	4682      	mov	sl, r0
10008cbe:	449a      	add	sl, r3
10008cc0:	e063      	b.n	10008d8a <process_set_config+0x13e>
10008cc2:	78fb      	ldrb	r3, [r7, #3]
10008cc4:	469b      	mov	fp, r3
10008cc6:	783b      	ldrb	r3, [r7, #0]
10008cc8:	18ff      	adds	r7, r7, r3
10008cca:	e065      	b.n	10008d98 <process_set_config+0x14c>
10008ccc:	4a43      	ldr	r2, [pc, #268]	; (10008ddc <process_set_config+0x190>)
10008cce:	4940      	ldr	r1, [pc, #256]	; (10008dd0 <process_set_config+0x184>)
10008cd0:	4840      	ldr	r0, [pc, #256]	; (10008dd4 <process_set_config+0x188>)
10008cd2:	f7ff f9a5 	bl	10008020 <__wrap_printf>
10008cd6:	2000      	movs	r0, #0
10008cd8:	e7d0      	b.n	10008c7c <process_set_config+0x30>
10008cda:	0066      	lsls	r6, r4, #1
10008cdc:	1936      	adds	r6, r6, r4
10008cde:	00f3      	lsls	r3, r6, #3
10008ce0:	4a3f      	ldr	r2, [pc, #252]	; (10008de0 <process_set_config+0x194>)
10008ce2:	6816      	ldr	r6, [r2, #0]
10008ce4:	18f6      	adds	r6, r6, r3
10008ce6:	e002      	b.n	10008cee <process_set_config+0xa2>
10008ce8:	0023      	movs	r3, r4
10008cea:	e017      	b.n	10008d1c <process_set_config+0xd0>
10008cec:	2600      	movs	r6, #0
10008cee:	002a      	movs	r2, r5
10008cf0:	0039      	movs	r1, r7
10008cf2:	4648      	mov	r0, r9
10008cf4:	68b3      	ldr	r3, [r6, #8]
10008cf6:	4798      	blx	r3
10008cf8:	9001      	str	r0, [sp, #4]
10008cfa:	2808      	cmp	r0, #8
10008cfc:	d901      	bls.n	10008d02 <process_set_config+0xb6>
10008cfe:	4285      	cmp	r5, r0
10008d00:	d214      	bcs.n	10008d2c <process_set_config+0xe0>
10008d02:	3401      	adds	r4, #1
10008d04:	b2e4      	uxtb	r4, r4
10008d06:	4b37      	ldr	r3, [pc, #220]	; (10008de4 <process_set_config+0x198>)
10008d08:	781b      	ldrb	r3, [r3, #0]
10008d0a:	42a3      	cmp	r3, r4
10008d0c:	d339      	bcc.n	10008d82 <process_set_config+0x136>
10008d0e:	4a36      	ldr	r2, [pc, #216]	; (10008de8 <process_set_config+0x19c>)
10008d10:	2a00      	cmp	r2, #0
10008d12:	d0e9      	beq.n	10008ce8 <process_set_config+0x9c>
10008d14:	42a3      	cmp	r3, r4
10008d16:	d8e0      	bhi.n	10008cda <process_set_config+0x8e>
10008d18:	1ae3      	subs	r3, r4, r3
10008d1a:	b2db      	uxtb	r3, r3
10008d1c:	2b00      	cmp	r3, #0
10008d1e:	d1e5      	bne.n	10008cec <process_set_config+0xa0>
10008d20:	005e      	lsls	r6, r3, #1
10008d22:	18f3      	adds	r3, r6, r3
10008d24:	00db      	lsls	r3, r3, #3
10008d26:	4e31      	ldr	r6, [pc, #196]	; (10008dec <process_set_config+0x1a0>)
10008d28:	18f6      	adds	r6, r6, r3
10008d2a:	e7e0      	b.n	10008cee <process_set_config+0xa2>
10008d2c:	465b      	mov	r3, fp
10008d2e:	2b01      	cmp	r3, #1
10008d30:	d010      	beq.n	10008d54 <process_set_config+0x108>
10008d32:	2200      	movs	r2, #0
10008d34:	4593      	cmp	fp, r2
10008d36:	d91a      	bls.n	10008d6e <process_set_config+0x122>
10008d38:	78bb      	ldrb	r3, [r7, #2]
10008d3a:	189b      	adds	r3, r3, r2
10008d3c:	b2db      	uxtb	r3, r3
10008d3e:	4926      	ldr	r1, [pc, #152]	; (10008dd8 <process_set_config+0x18c>)
10008d40:	18c9      	adds	r1, r1, r3
10008d42:	78c9      	ldrb	r1, [r1, #3]
10008d44:	29ff      	cmp	r1, #255	; 0xff
10008d46:	d10b      	bne.n	10008d60 <process_set_config+0x114>
10008d48:	4923      	ldr	r1, [pc, #140]	; (10008dd8 <process_set_config+0x18c>)
10008d4a:	18cb      	adds	r3, r1, r3
10008d4c:	70dc      	strb	r4, [r3, #3]
10008d4e:	3201      	adds	r2, #1
10008d50:	b2d2      	uxtb	r2, r2
10008d52:	e7ef      	b.n	10008d34 <process_set_config+0xe8>
10008d54:	68b2      	ldr	r2, [r6, #8]
10008d56:	4b26      	ldr	r3, [pc, #152]	; (10008df0 <process_set_config+0x1a4>)
10008d58:	429a      	cmp	r2, r3
10008d5a:	d1ea      	bne.n	10008d32 <process_set_config+0xe6>
10008d5c:	46c3      	mov	fp, r8
10008d5e:	e7e8      	b.n	10008d32 <process_set_config+0xe6>
10008d60:	4a24      	ldr	r2, [pc, #144]	; (10008df4 <process_set_config+0x1a8>)
10008d62:	491b      	ldr	r1, [pc, #108]	; (10008dd0 <process_set_config+0x184>)
10008d64:	481b      	ldr	r0, [pc, #108]	; (10008dd4 <process_set_config+0x188>)
10008d66:	f7ff f95b 	bl	10008020 <__wrap_printf>
10008d6a:	2000      	movs	r0, #0
10008d6c:	e786      	b.n	10008c7c <process_set_config+0x30>
10008d6e:	481a      	ldr	r0, [pc, #104]	; (10008dd8 <process_set_config+0x18c>)
10008d70:	0023      	movs	r3, r4
10008d72:	9d01      	ldr	r5, [sp, #4]
10008d74:	002a      	movs	r2, r5
10008d76:	0039      	movs	r1, r7
10008d78:	3013      	adds	r0, #19
10008d7a:	f001 fbbb 	bl	1000a4f4 <tu_edpt_bind_driver>
10008d7e:	46ac      	mov	ip, r5
10008d80:	4467      	add	r7, ip
10008d82:	4b18      	ldr	r3, [pc, #96]	; (10008de4 <process_set_config+0x198>)
10008d84:	781b      	ldrb	r3, [r3, #0]
10008d86:	42a3      	cmp	r3, r4
10008d88:	d30e      	bcc.n	10008da8 <process_set_config+0x15c>
10008d8a:	4557      	cmp	r7, sl
10008d8c:	d214      	bcs.n	10008db8 <process_set_config+0x16c>
10008d8e:	787b      	ldrb	r3, [r7, #1]
10008d90:	2b0b      	cmp	r3, #11
10008d92:	d096      	beq.n	10008cc2 <process_set_config+0x76>
10008d94:	2301      	movs	r3, #1
10008d96:	469b      	mov	fp, r3
10008d98:	787b      	ldrb	r3, [r7, #1]
10008d9a:	2b04      	cmp	r3, #4
10008d9c:	d196      	bne.n	10008ccc <process_set_config+0x80>
10008d9e:	4653      	mov	r3, sl
10008da0:	1bdd      	subs	r5, r3, r7
10008da2:	b2ad      	uxth	r5, r5
10008da4:	2400      	movs	r4, #0
10008da6:	e7ae      	b.n	10008d06 <process_set_config+0xba>
10008da8:	22f3      	movs	r2, #243	; 0xf3
10008daa:	0092      	lsls	r2, r2, #2
10008dac:	4908      	ldr	r1, [pc, #32]	; (10008dd0 <process_set_config+0x184>)
10008dae:	4809      	ldr	r0, [pc, #36]	; (10008dd4 <process_set_config+0x188>)
10008db0:	f7ff f936 	bl	10008020 <__wrap_printf>
10008db4:	2000      	movs	r0, #0
10008db6:	e761      	b.n	10008c7c <process_set_config+0x30>
10008db8:	4b0f      	ldr	r3, [pc, #60]	; (10008df8 <process_set_config+0x1ac>)
10008dba:	2b00      	cmp	r3, #0
10008dbc:	d003      	beq.n	10008dc6 <process_set_config+0x17a>
10008dbe:	e000      	b.n	10008dc2 <process_set_config+0x176>
10008dc0:	bf00      	nop
10008dc2:	2001      	movs	r0, #1
10008dc4:	e75a      	b.n	10008c7c <process_set_config+0x30>
10008dc6:	2001      	movs	r0, #1
10008dc8:	e758      	b.n	10008c7c <process_set_config+0x30>
10008dca:	46c0      	nop			; (mov r8, r8)
10008dcc:	0000037b 	.word	0x0000037b
10008dd0:	1000dbc8 	.word	0x1000dbc8
10008dd4:	1000dac8 	.word	0x1000dac8
10008dd8:	200011fc 	.word	0x200011fc
10008ddc:	00000396 	.word	0x00000396
10008de0:	20000ec4 	.word	0x20000ec4
10008de4:	20001b22 	.word	0x20001b22
10008de8:	100080fd 	.word	0x100080fd
10008dec:	1000dc00 	.word	0x1000dc00
10008df0:	1000a0a9 	.word	0x1000a0a9
10008df4:	000003bd 	.word	0x000003bd
10008df8:	00000000 	.word	0x00000000

10008dfc <process_get_descriptor>:
10008dfc:	b570      	push	{r4, r5, r6, lr}
10008dfe:	0005      	movs	r5, r0
10008e00:	000c      	movs	r4, r1
10008e02:	78cb      	ldrb	r3, [r1, #3]
10008e04:	7888      	ldrb	r0, [r1, #2]
10008e06:	2b0f      	cmp	r3, #15
10008e08:	d854      	bhi.n	10008eb4 <process_get_descriptor+0xb8>
10008e0a:	009a      	lsls	r2, r3, #2
10008e0c:	492f      	ldr	r1, [pc, #188]	; (10008ecc <process_get_descriptor+0xd0>)
10008e0e:	588a      	ldr	r2, [r1, r2]
10008e10:	4697      	mov	pc, r2
10008e12:	f7ff fadd 	bl	100083d0 <tud_descriptor_device_cb>
10008e16:	0002      	movs	r2, r0
10008e18:	2312      	movs	r3, #18
10008e1a:	0021      	movs	r1, r4
10008e1c:	0028      	movs	r0, r5
10008e1e:	f000 fedd 	bl	10009bdc <tud_control_xfer>
10008e22:	e048      	b.n	10008eb6 <process_get_descriptor+0xba>
10008e24:	4b2a      	ldr	r3, [pc, #168]	; (10008ed0 <process_get_descriptor+0xd4>)
10008e26:	2b00      	cmp	r3, #0
10008e28:	d046      	beq.n	10008eb8 <process_get_descriptor+0xbc>
10008e2a:	e000      	b.n	10008e2e <process_get_descriptor+0x32>
10008e2c:	bf00      	nop
10008e2e:	0002      	movs	r2, r0
10008e30:	7881      	ldrb	r1, [r0, #2]
10008e32:	78c3      	ldrb	r3, [r0, #3]
10008e34:	021b      	lsls	r3, r3, #8
10008e36:	430b      	orrs	r3, r1
10008e38:	0021      	movs	r1, r4
10008e3a:	0028      	movs	r0, r5
10008e3c:	f000 fece 	bl	10009bdc <tud_control_xfer>
10008e40:	e039      	b.n	10008eb6 <process_get_descriptor+0xba>
10008e42:	2b02      	cmp	r3, #2
10008e44:	d010      	beq.n	10008e68 <process_get_descriptor+0x6c>
10008e46:	4b23      	ldr	r3, [pc, #140]	; (10008ed4 <process_get_descriptor+0xd8>)
10008e48:	2b00      	cmp	r3, #0
10008e4a:	d037      	beq.n	10008ebc <process_get_descriptor+0xc0>
10008e4c:	e000      	b.n	10008e50 <process_get_descriptor+0x54>
10008e4e:	bf00      	nop
10008e50:	0002      	movs	r2, r0
10008e52:	2a00      	cmp	r2, #0
10008e54:	d00c      	beq.n	10008e70 <process_get_descriptor+0x74>
10008e56:	7891      	ldrb	r1, [r2, #2]
10008e58:	78d3      	ldrb	r3, [r2, #3]
10008e5a:	021b      	lsls	r3, r3, #8
10008e5c:	430b      	orrs	r3, r1
10008e5e:	0021      	movs	r1, r4
10008e60:	0028      	movs	r0, r5
10008e62:	f000 febb 	bl	10009bdc <tud_control_xfer>
10008e66:	e026      	b.n	10008eb6 <process_get_descriptor+0xba>
10008e68:	f7ff fab6 	bl	100083d8 <tud_descriptor_configuration_cb>
10008e6c:	0002      	movs	r2, r0
10008e6e:	e7f0      	b.n	10008e52 <process_get_descriptor+0x56>
10008e70:	4a19      	ldr	r2, [pc, #100]	; (10008ed8 <process_get_descriptor+0xdc>)
10008e72:	491a      	ldr	r1, [pc, #104]	; (10008edc <process_get_descriptor+0xe0>)
10008e74:	481a      	ldr	r0, [pc, #104]	; (10008ee0 <process_get_descriptor+0xe4>)
10008e76:	f7ff f8d3 	bl	10008020 <__wrap_printf>
10008e7a:	2000      	movs	r0, #0
10008e7c:	e01b      	b.n	10008eb6 <process_get_descriptor+0xba>
10008e7e:	7923      	ldrb	r3, [r4, #4]
10008e80:	7961      	ldrb	r1, [r4, #5]
10008e82:	0209      	lsls	r1, r1, #8
10008e84:	4319      	orrs	r1, r3
10008e86:	f7ff faab 	bl	100083e0 <tud_descriptor_string_cb>
10008e8a:	1e02      	subs	r2, r0, #0
10008e8c:	d018      	beq.n	10008ec0 <process_get_descriptor+0xc4>
10008e8e:	7803      	ldrb	r3, [r0, #0]
10008e90:	0021      	movs	r1, r4
10008e92:	0028      	movs	r0, r5
10008e94:	f000 fea2 	bl	10009bdc <tud_control_xfer>
10008e98:	e00d      	b.n	10008eb6 <process_get_descriptor+0xba>
10008e9a:	4b12      	ldr	r3, [pc, #72]	; (10008ee4 <process_get_descriptor+0xe8>)
10008e9c:	2b00      	cmp	r3, #0
10008e9e:	d011      	beq.n	10008ec4 <process_get_descriptor+0xc8>
10008ea0:	e000      	b.n	10008ea4 <process_get_descriptor+0xa8>
10008ea2:	bf00      	nop
10008ea4:	1e02      	subs	r2, r0, #0
10008ea6:	d00f      	beq.n	10008ec8 <process_get_descriptor+0xcc>
10008ea8:	7803      	ldrb	r3, [r0, #0]
10008eaa:	0021      	movs	r1, r4
10008eac:	0028      	movs	r0, r5
10008eae:	f000 fe95 	bl	10009bdc <tud_control_xfer>
10008eb2:	e000      	b.n	10008eb6 <process_get_descriptor+0xba>
10008eb4:	2000      	movs	r0, #0
10008eb6:	bd70      	pop	{r4, r5, r6, pc}
10008eb8:	2000      	movs	r0, #0
10008eba:	e7fc      	b.n	10008eb6 <process_get_descriptor+0xba>
10008ebc:	2000      	movs	r0, #0
10008ebe:	e7fa      	b.n	10008eb6 <process_get_descriptor+0xba>
10008ec0:	2000      	movs	r0, #0
10008ec2:	e7f8      	b.n	10008eb6 <process_get_descriptor+0xba>
10008ec4:	2000      	movs	r0, #0
10008ec6:	e7f6      	b.n	10008eb6 <process_get_descriptor+0xba>
10008ec8:	2000      	movs	r0, #0
10008eca:	e7f4      	b.n	10008eb6 <process_get_descriptor+0xba>
10008ecc:	1000dae0 	.word	0x1000dae0
	...
10008ed8:	00000414 	.word	0x00000414
10008edc:	1000dbb0 	.word	0x1000dbb0
10008ee0:	1000dac8 	.word	0x1000dac8
10008ee4:	00000000 	.word	0x00000000

10008ee8 <tud_mounted>:
10008ee8:	4b02      	ldr	r3, [pc, #8]	; (10008ef4 <tud_mounted+0xc>)
10008eea:	7858      	ldrb	r0, [r3, #1]
10008eec:	1e43      	subs	r3, r0, #1
10008eee:	4198      	sbcs	r0, r3
10008ef0:	b2c0      	uxtb	r0, r0
10008ef2:	4770      	bx	lr
10008ef4:	200011fc 	.word	0x200011fc

10008ef8 <tud_suspended>:
10008ef8:	4b02      	ldr	r3, [pc, #8]	; (10008f04 <tud_suspended+0xc>)
10008efa:	7818      	ldrb	r0, [r3, #0]
10008efc:	0740      	lsls	r0, r0, #29
10008efe:	0fc0      	lsrs	r0, r0, #31
10008f00:	4770      	bx	lr
10008f02:	46c0      	nop			; (mov r8, r8)
10008f04:	200011fc 	.word	0x200011fc

10008f08 <tud_inited>:
10008f08:	4b01      	ldr	r3, [pc, #4]	; (10008f10 <tud_inited+0x8>)
10008f0a:	7818      	ldrb	r0, [r3, #0]
10008f0c:	4770      	bx	lr
10008f0e:	46c0      	nop			; (mov r8, r8)
10008f10:	20001b23 	.word	0x20001b23

10008f14 <tud_init>:
10008f14:	b570      	push	{r4, r5, r6, lr}
10008f16:	0005      	movs	r5, r0
10008f18:	4b27      	ldr	r3, [pc, #156]	; (10008fb8 <tud_init+0xa4>)
10008f1a:	7818      	ldrb	r0, [r3, #0]
10008f1c:	2800      	cmp	r0, #0
10008f1e:	d000      	beq.n	10008f22 <tud_init+0xe>
10008f20:	bd70      	pop	{r4, r5, r6, pc}
10008f22:	2253      	movs	r2, #83	; 0x53
10008f24:	2100      	movs	r1, #0
10008f26:	4825      	ldr	r0, [pc, #148]	; (10008fbc <tud_init+0xa8>)
10008f28:	f7fe febe 	bl	10007ca8 <__wrap_memset>
10008f2c:	4c24      	ldr	r4, [pc, #144]	; (10008fc0 <tud_init+0xac>)
10008f2e:	0020      	movs	r0, r4
10008f30:	f7fc fb6c 	bl	1000560c <mutex_init>
10008f34:	4b23      	ldr	r3, [pc, #140]	; (10008fc4 <tud_init+0xb0>)
10008f36:	601c      	str	r4, [r3, #0]
10008f38:	4c23      	ldr	r4, [pc, #140]	; (10008fc8 <tud_init+0xb4>)
10008f3a:	0020      	movs	r0, r4
10008f3c:	301c      	adds	r0, #28
10008f3e:	f7fc fb8b 	bl	10005658 <critical_section_init>
10008f42:	0020      	movs	r0, r4
10008f44:	f001 fdf0 	bl	1000ab28 <tu_fifo_clear>
10008f48:	4b20      	ldr	r3, [pc, #128]	; (10008fcc <tud_init+0xb8>)
10008f4a:	601c      	str	r4, [r3, #0]
10008f4c:	4b20      	ldr	r3, [pc, #128]	; (10008fd0 <tud_init+0xbc>)
10008f4e:	2b00      	cmp	r3, #0
10008f50:	d004      	beq.n	10008f5c <tud_init+0x48>
10008f52:	4820      	ldr	r0, [pc, #128]	; (10008fd4 <tud_init+0xc0>)
10008f54:	f7ff f8d2 	bl	100080fc <usbd_app_driver_get_cb>
10008f58:	4b1f      	ldr	r3, [pc, #124]	; (10008fd8 <tud_init+0xc4>)
10008f5a:	6018      	str	r0, [r3, #0]
10008f5c:	2400      	movs	r4, #0
10008f5e:	e00d      	b.n	10008f7c <tud_init+0x68>
10008f60:	0063      	lsls	r3, r4, #1
10008f62:	191b      	adds	r3, r3, r4
10008f64:	00da      	lsls	r2, r3, #3
10008f66:	4b1c      	ldr	r3, [pc, #112]	; (10008fd8 <tud_init+0xc4>)
10008f68:	681b      	ldr	r3, [r3, #0]
10008f6a:	189b      	adds	r3, r3, r2
10008f6c:	e002      	b.n	10008f74 <tud_init+0x60>
10008f6e:	0023      	movs	r3, r4
10008f70:	e00f      	b.n	10008f92 <tud_init+0x7e>
10008f72:	2300      	movs	r3, #0
10008f74:	681b      	ldr	r3, [r3, #0]
10008f76:	4798      	blx	r3
10008f78:	3401      	adds	r4, #1
10008f7a:	b2e4      	uxtb	r4, r4
10008f7c:	4b15      	ldr	r3, [pc, #84]	; (10008fd4 <tud_init+0xc0>)
10008f7e:	781b      	ldrb	r3, [r3, #0]
10008f80:	42a3      	cmp	r3, r4
10008f82:	d30e      	bcc.n	10008fa2 <tud_init+0x8e>
10008f84:	4a12      	ldr	r2, [pc, #72]	; (10008fd0 <tud_init+0xbc>)
10008f86:	2a00      	cmp	r2, #0
10008f88:	d0f1      	beq.n	10008f6e <tud_init+0x5a>
10008f8a:	42a3      	cmp	r3, r4
10008f8c:	d8e8      	bhi.n	10008f60 <tud_init+0x4c>
10008f8e:	1ae3      	subs	r3, r4, r3
10008f90:	b2db      	uxtb	r3, r3
10008f92:	2b00      	cmp	r3, #0
10008f94:	d1ed      	bne.n	10008f72 <tud_init+0x5e>
10008f96:	005a      	lsls	r2, r3, #1
10008f98:	18d2      	adds	r2, r2, r3
10008f9a:	00d2      	lsls	r2, r2, #3
10008f9c:	4b0f      	ldr	r3, [pc, #60]	; (10008fdc <tud_init+0xc8>)
10008f9e:	189b      	adds	r3, r3, r2
10008fa0:	e7e8      	b.n	10008f74 <tud_init+0x60>
10008fa2:	0028      	movs	r0, r5
10008fa4:	f7ff fbf2 	bl	1000878c <dcd_init>
10008fa8:	0028      	movs	r0, r5
10008faa:	f7ff fbbb 	bl	10008724 <dcd_int_enable>
10008fae:	4b02      	ldr	r3, [pc, #8]	; (10008fb8 <tud_init+0xa4>)
10008fb0:	2201      	movs	r2, #1
10008fb2:	701a      	strb	r2, [r3, #0]
10008fb4:	2001      	movs	r0, #1
10008fb6:	e7b3      	b.n	10008f20 <tud_init+0xc>
10008fb8:	20001b23 	.word	0x20001b23
10008fbc:	200011fc 	.word	0x200011fc
10008fc0:	200011b4 	.word	0x200011b4
10008fc4:	20001250 	.word	0x20001250
10008fc8:	200004dc 	.word	0x200004dc
10008fcc:	20001254 	.word	0x20001254
10008fd0:	100080fd 	.word	0x100080fd
10008fd4:	20001b22 	.word	0x20001b22
10008fd8:	20000ec4 	.word	0x20000ec4
10008fdc:	1000dc00 	.word	0x1000dc00

10008fe0 <dcd_event_handler>:
10008fe0:	b530      	push	{r4, r5, lr}
10008fe2:	b085      	sub	sp, #20
10008fe4:	0004      	movs	r4, r0
10008fe6:	7843      	ldrb	r3, [r0, #1]
10008fe8:	2b04      	cmp	r3, #4
10008fea:	d100      	bne.n	10008fee <dcd_event_handler+0xe>
10008fec:	e096      	b.n	1000911c <dcd_event_handler+0x13c>
10008fee:	d838      	bhi.n	10009062 <dcd_event_handler+0x82>
10008ff0:	2b02      	cmp	r3, #2
10008ff2:	d062      	beq.n	100090ba <dcd_event_handler+0xda>
10008ff4:	2b03      	cmp	r3, #3
10008ff6:	d000      	beq.n	10008ffa <dcd_event_handler+0x1a>
10008ff8:	e0b9      	b.n	1000916e <dcd_event_handler+0x18e>
10008ffa:	4b6d      	ldr	r3, [pc, #436]	; (100091b0 <dcd_event_handler+0x1d0>)
10008ffc:	781b      	ldrb	r3, [r3, #0]
10008ffe:	075b      	lsls	r3, r3, #29
10009000:	d400      	bmi.n	10009004 <dcd_event_handler+0x24>
10009002:	e083      	b.n	1000910c <dcd_event_handler+0x12c>
10009004:	4a6a      	ldr	r2, [pc, #424]	; (100091b0 <dcd_event_handler+0x1d0>)
10009006:	7813      	ldrb	r3, [r2, #0]
10009008:	2104      	movs	r1, #4
1000900a:	438b      	bics	r3, r1
1000900c:	7013      	strb	r3, [r2, #0]
1000900e:	220c      	movs	r2, #12
10009010:	2100      	movs	r1, #0
10009012:	a801      	add	r0, sp, #4
10009014:	f7fe fe48 	bl	10007ca8 <__wrap_memset>
10009018:	7823      	ldrb	r3, [r4, #0]
1000901a:	466a      	mov	r2, sp
1000901c:	7113      	strb	r3, [r2, #4]
1000901e:	2305      	movs	r3, #5
10009020:	7153      	strb	r3, [r2, #5]
10009022:	4b64      	ldr	r3, [pc, #400]	; (100091b4 <dcd_event_handler+0x1d4>)
10009024:	681c      	ldr	r4, [r3, #0]
10009026:	69e2      	ldr	r2, [r4, #28]
10009028:	f3ef 8110 	mrs	r1, PRIMASK
1000902c:	b672      	cpsid	i
1000902e:	6813      	ldr	r3, [r2, #0]
10009030:	2b00      	cmp	r3, #0
10009032:	d0fc      	beq.n	1000902e <dcd_event_handler+0x4e>
10009034:	f3bf 8f5f 	dmb	sy
10009038:	6221      	str	r1, [r4, #32]
1000903a:	a901      	add	r1, sp, #4
1000903c:	0020      	movs	r0, r4
1000903e:	f001 fd38 	bl	1000aab2 <tu_fifo_write>
10009042:	69e2      	ldr	r2, [r4, #28]
10009044:	6a23      	ldr	r3, [r4, #32]
10009046:	f3bf 8f5f 	dmb	sy
1000904a:	2100      	movs	r1, #0
1000904c:	6011      	str	r1, [r2, #0]
1000904e:	f383 8810 	msr	PRIMASK, r3
10009052:	2800      	cmp	r0, #0
10009054:	d15a      	bne.n	1000910c <dcd_event_handler+0x12c>
10009056:	22a8      	movs	r2, #168	; 0xa8
10009058:	4957      	ldr	r1, [pc, #348]	; (100091b8 <dcd_event_handler+0x1d8>)
1000905a:	4858      	ldr	r0, [pc, #352]	; (100091bc <dcd_event_handler+0x1dc>)
1000905c:	f7fe ffe0 	bl	10008020 <__wrap_printf>
10009060:	e054      	b.n	1000910c <dcd_event_handler+0x12c>
10009062:	2b05      	cmp	r3, #5
10009064:	d000      	beq.n	10009068 <dcd_event_handler+0x88>
10009066:	e082      	b.n	1000916e <dcd_event_handler+0x18e>
10009068:	4b51      	ldr	r3, [pc, #324]	; (100091b0 <dcd_event_handler+0x1d0>)
1000906a:	781b      	ldrb	r3, [r3, #0]
1000906c:	07db      	lsls	r3, r3, #31
1000906e:	d54d      	bpl.n	1000910c <dcd_event_handler+0x12c>
10009070:	4a4f      	ldr	r2, [pc, #316]	; (100091b0 <dcd_event_handler+0x1d0>)
10009072:	7813      	ldrb	r3, [r2, #0]
10009074:	2104      	movs	r1, #4
10009076:	438b      	bics	r3, r1
10009078:	7013      	strb	r3, [r2, #0]
1000907a:	4b4e      	ldr	r3, [pc, #312]	; (100091b4 <dcd_event_handler+0x1d4>)
1000907c:	681d      	ldr	r5, [r3, #0]
1000907e:	69ea      	ldr	r2, [r5, #28]
10009080:	f3ef 8110 	mrs	r1, PRIMASK
10009084:	b672      	cpsid	i
10009086:	6813      	ldr	r3, [r2, #0]
10009088:	2b00      	cmp	r3, #0
1000908a:	d0fc      	beq.n	10009086 <dcd_event_handler+0xa6>
1000908c:	f3bf 8f5f 	dmb	sy
10009090:	6229      	str	r1, [r5, #32]
10009092:	0021      	movs	r1, r4
10009094:	0028      	movs	r0, r5
10009096:	f001 fd0c 	bl	1000aab2 <tu_fifo_write>
1000909a:	69ea      	ldr	r2, [r5, #28]
1000909c:	6a2b      	ldr	r3, [r5, #32]
1000909e:	f3bf 8f5f 	dmb	sy
100090a2:	2100      	movs	r1, #0
100090a4:	6011      	str	r1, [r2, #0]
100090a6:	f383 8810 	msr	PRIMASK, r3
100090aa:	2800      	cmp	r0, #0
100090ac:	d12e      	bne.n	1000910c <dcd_event_handler+0x12c>
100090ae:	22a8      	movs	r2, #168	; 0xa8
100090b0:	4941      	ldr	r1, [pc, #260]	; (100091b8 <dcd_event_handler+0x1d8>)
100090b2:	4842      	ldr	r0, [pc, #264]	; (100091bc <dcd_event_handler+0x1dc>)
100090b4:	f7fe ffb4 	bl	10008020 <__wrap_printf>
100090b8:	e028      	b.n	1000910c <dcd_event_handler+0x12c>
100090ba:	4b3d      	ldr	r3, [pc, #244]	; (100091b0 <dcd_event_handler+0x1d0>)
100090bc:	781a      	ldrb	r2, [r3, #0]
100090be:	2101      	movs	r1, #1
100090c0:	438a      	bics	r2, r1
100090c2:	701a      	strb	r2, [r3, #0]
100090c4:	781a      	ldrb	r2, [r3, #0]
100090c6:	3101      	adds	r1, #1
100090c8:	438a      	bics	r2, r1
100090ca:	701a      	strb	r2, [r3, #0]
100090cc:	2200      	movs	r2, #0
100090ce:	705a      	strb	r2, [r3, #1]
100090d0:	781a      	ldrb	r2, [r3, #0]
100090d2:	3102      	adds	r1, #2
100090d4:	438a      	bics	r2, r1
100090d6:	701a      	strb	r2, [r3, #0]
100090d8:	4b36      	ldr	r3, [pc, #216]	; (100091b4 <dcd_event_handler+0x1d4>)
100090da:	681d      	ldr	r5, [r3, #0]
100090dc:	69ea      	ldr	r2, [r5, #28]
100090de:	f3ef 8110 	mrs	r1, PRIMASK
100090e2:	b672      	cpsid	i
100090e4:	6813      	ldr	r3, [r2, #0]
100090e6:	2b00      	cmp	r3, #0
100090e8:	d0fc      	beq.n	100090e4 <dcd_event_handler+0x104>
100090ea:	f3bf 8f5f 	dmb	sy
100090ee:	6229      	str	r1, [r5, #32]
100090f0:	0021      	movs	r1, r4
100090f2:	0028      	movs	r0, r5
100090f4:	f001 fcdd 	bl	1000aab2 <tu_fifo_write>
100090f8:	69ea      	ldr	r2, [r5, #28]
100090fa:	6a2b      	ldr	r3, [r5, #32]
100090fc:	f3bf 8f5f 	dmb	sy
10009100:	2100      	movs	r1, #0
10009102:	6011      	str	r1, [r2, #0]
10009104:	f383 8810 	msr	PRIMASK, r3
10009108:	2800      	cmp	r0, #0
1000910a:	d001      	beq.n	10009110 <dcd_event_handler+0x130>
1000910c:	b005      	add	sp, #20
1000910e:	bd30      	pop	{r4, r5, pc}
10009110:	22a8      	movs	r2, #168	; 0xa8
10009112:	4929      	ldr	r1, [pc, #164]	; (100091b8 <dcd_event_handler+0x1d8>)
10009114:	4829      	ldr	r0, [pc, #164]	; (100091bc <dcd_event_handler+0x1dc>)
10009116:	f7fe ff83 	bl	10008020 <__wrap_printf>
1000911a:	e7f7      	b.n	1000910c <dcd_event_handler+0x12c>
1000911c:	4b24      	ldr	r3, [pc, #144]	; (100091b0 <dcd_event_handler+0x1d0>)
1000911e:	781b      	ldrb	r3, [r3, #0]
10009120:	07db      	lsls	r3, r3, #31
10009122:	d5f3      	bpl.n	1000910c <dcd_event_handler+0x12c>
10009124:	4a22      	ldr	r2, [pc, #136]	; (100091b0 <dcd_event_handler+0x1d0>)
10009126:	7813      	ldrb	r3, [r2, #0]
10009128:	2104      	movs	r1, #4
1000912a:	430b      	orrs	r3, r1
1000912c:	7013      	strb	r3, [r2, #0]
1000912e:	4b21      	ldr	r3, [pc, #132]	; (100091b4 <dcd_event_handler+0x1d4>)
10009130:	681d      	ldr	r5, [r3, #0]
10009132:	69ea      	ldr	r2, [r5, #28]
10009134:	f3ef 8110 	mrs	r1, PRIMASK
10009138:	b672      	cpsid	i
1000913a:	6813      	ldr	r3, [r2, #0]
1000913c:	2b00      	cmp	r3, #0
1000913e:	d0fc      	beq.n	1000913a <dcd_event_handler+0x15a>
10009140:	f3bf 8f5f 	dmb	sy
10009144:	6229      	str	r1, [r5, #32]
10009146:	0021      	movs	r1, r4
10009148:	0028      	movs	r0, r5
1000914a:	f001 fcb2 	bl	1000aab2 <tu_fifo_write>
1000914e:	69ea      	ldr	r2, [r5, #28]
10009150:	6a2b      	ldr	r3, [r5, #32]
10009152:	f3bf 8f5f 	dmb	sy
10009156:	2100      	movs	r1, #0
10009158:	6011      	str	r1, [r2, #0]
1000915a:	f383 8810 	msr	PRIMASK, r3
1000915e:	2800      	cmp	r0, #0
10009160:	d1d4      	bne.n	1000910c <dcd_event_handler+0x12c>
10009162:	22a8      	movs	r2, #168	; 0xa8
10009164:	4914      	ldr	r1, [pc, #80]	; (100091b8 <dcd_event_handler+0x1d8>)
10009166:	4815      	ldr	r0, [pc, #84]	; (100091bc <dcd_event_handler+0x1dc>)
10009168:	f7fe ff5a 	bl	10008020 <__wrap_printf>
1000916c:	e7ce      	b.n	1000910c <dcd_event_handler+0x12c>
1000916e:	4b11      	ldr	r3, [pc, #68]	; (100091b4 <dcd_event_handler+0x1d4>)
10009170:	681d      	ldr	r5, [r3, #0]
10009172:	69ea      	ldr	r2, [r5, #28]
10009174:	f3ef 8110 	mrs	r1, PRIMASK
10009178:	b672      	cpsid	i
1000917a:	6813      	ldr	r3, [r2, #0]
1000917c:	2b00      	cmp	r3, #0
1000917e:	d0fc      	beq.n	1000917a <dcd_event_handler+0x19a>
10009180:	f3bf 8f5f 	dmb	sy
10009184:	6229      	str	r1, [r5, #32]
10009186:	0021      	movs	r1, r4
10009188:	0028      	movs	r0, r5
1000918a:	f001 fc92 	bl	1000aab2 <tu_fifo_write>
1000918e:	69ea      	ldr	r2, [r5, #28]
10009190:	6a2b      	ldr	r3, [r5, #32]
10009192:	f3bf 8f5f 	dmb	sy
10009196:	2100      	movs	r1, #0
10009198:	6011      	str	r1, [r2, #0]
1000919a:	f383 8810 	msr	PRIMASK, r3
1000919e:	2800      	cmp	r0, #0
100091a0:	d1b4      	bne.n	1000910c <dcd_event_handler+0x12c>
100091a2:	22a8      	movs	r2, #168	; 0xa8
100091a4:	4904      	ldr	r1, [pc, #16]	; (100091b8 <dcd_event_handler+0x1d8>)
100091a6:	4805      	ldr	r0, [pc, #20]	; (100091bc <dcd_event_handler+0x1dc>)
100091a8:	f7fe ff3a 	bl	10008020 <__wrap_printf>
100091ac:	e7ae      	b.n	1000910c <dcd_event_handler+0x12c>
100091ae:	46c0      	nop			; (mov r8, r8)
100091b0:	200011fc 	.word	0x200011fc
100091b4:	20001254 	.word	0x20001254
100091b8:	1000dba0 	.word	0x1000dba0
100091bc:	1000dac8 	.word	0x1000dac8

100091c0 <dcd_event_bus_signal>:
100091c0:	b570      	push	{r4, r5, r6, lr}
100091c2:	b084      	sub	sp, #16
100091c4:	0006      	movs	r6, r0
100091c6:	000d      	movs	r5, r1
100091c8:	0014      	movs	r4, r2
100091ca:	220c      	movs	r2, #12
100091cc:	2100      	movs	r1, #0
100091ce:	a801      	add	r0, sp, #4
100091d0:	f7fe fd6a 	bl	10007ca8 <__wrap_memset>
100091d4:	466b      	mov	r3, sp
100091d6:	711e      	strb	r6, [r3, #4]
100091d8:	715d      	strb	r5, [r3, #5]
100091da:	0021      	movs	r1, r4
100091dc:	a801      	add	r0, sp, #4
100091de:	f7ff feff 	bl	10008fe0 <dcd_event_handler>
100091e2:	b004      	add	sp, #16
100091e4:	bd70      	pop	{r4, r5, r6, pc}

100091e6 <dcd_event_bus_reset>:
100091e6:	b5f0      	push	{r4, r5, r6, r7, lr}
100091e8:	b085      	sub	sp, #20
100091ea:	0007      	movs	r7, r0
100091ec:	000e      	movs	r6, r1
100091ee:	0015      	movs	r5, r2
100091f0:	ac01      	add	r4, sp, #4
100091f2:	220c      	movs	r2, #12
100091f4:	2100      	movs	r1, #0
100091f6:	0020      	movs	r0, r4
100091f8:	f7fe fd56 	bl	10007ca8 <__wrap_memset>
100091fc:	7027      	strb	r7, [r4, #0]
100091fe:	2301      	movs	r3, #1
10009200:	7063      	strb	r3, [r4, #1]
10009202:	7126      	strb	r6, [r4, #4]
10009204:	0029      	movs	r1, r5
10009206:	0020      	movs	r0, r4
10009208:	f7ff feea 	bl	10008fe0 <dcd_event_handler>
1000920c:	b005      	add	sp, #20
1000920e:	bdf0      	pop	{r4, r5, r6, r7, pc}

10009210 <dcd_event_setup_received>:
10009210:	b570      	push	{r4, r5, r6, lr}
10009212:	b084      	sub	sp, #16
10009214:	0006      	movs	r6, r0
10009216:	000d      	movs	r5, r1
10009218:	0014      	movs	r4, r2
1000921a:	220c      	movs	r2, #12
1000921c:	2100      	movs	r1, #0
1000921e:	a801      	add	r0, sp, #4
10009220:	f7fe fd42 	bl	10007ca8 <__wrap_memset>
10009224:	466b      	mov	r3, sp
10009226:	711e      	strb	r6, [r3, #4]
10009228:	2306      	movs	r3, #6
1000922a:	466a      	mov	r2, sp
1000922c:	7153      	strb	r3, [r2, #5]
1000922e:	2208      	movs	r2, #8
10009230:	0029      	movs	r1, r5
10009232:	a802      	add	r0, sp, #8
10009234:	f7fe fd3e 	bl	10007cb4 <__wrap___aeabi_memcpy>
10009238:	0021      	movs	r1, r4
1000923a:	a801      	add	r0, sp, #4
1000923c:	f7ff fed0 	bl	10008fe0 <dcd_event_handler>
10009240:	b004      	add	sp, #16
10009242:	bd70      	pop	{r4, r5, r6, pc}

10009244 <dcd_event_xfer_complete>:
10009244:	b5f0      	push	{r4, r5, r6, r7, lr}
10009246:	46ce      	mov	lr, r9
10009248:	4647      	mov	r7, r8
1000924a:	b580      	push	{r7, lr}
1000924c:	b085      	sub	sp, #20
1000924e:	4680      	mov	r8, r0
10009250:	000f      	movs	r7, r1
10009252:	0016      	movs	r6, r2
10009254:	001d      	movs	r5, r3
10009256:	ab0c      	add	r3, sp, #48	; 0x30
10009258:	781b      	ldrb	r3, [r3, #0]
1000925a:	4699      	mov	r9, r3
1000925c:	ac01      	add	r4, sp, #4
1000925e:	220c      	movs	r2, #12
10009260:	2100      	movs	r1, #0
10009262:	0020      	movs	r0, r4
10009264:	f7fe fd20 	bl	10007ca8 <__wrap_memset>
10009268:	4643      	mov	r3, r8
1000926a:	7023      	strb	r3, [r4, #0]
1000926c:	2307      	movs	r3, #7
1000926e:	7063      	strb	r3, [r4, #1]
10009270:	7127      	strb	r7, [r4, #4]
10009272:	9603      	str	r6, [sp, #12]
10009274:	7165      	strb	r5, [r4, #5]
10009276:	4649      	mov	r1, r9
10009278:	0020      	movs	r0, r4
1000927a:	f7ff feb1 	bl	10008fe0 <dcd_event_handler>
1000927e:	b005      	add	sp, #20
10009280:	bcc0      	pop	{r6, r7}
10009282:	46b9      	mov	r9, r7
10009284:	46b0      	mov	r8, r6
10009286:	bdf0      	pop	{r4, r5, r6, r7, pc}

10009288 <usbd_edpt_open>:
10009288:	b570      	push	{r4, r5, r6, lr}
1000928a:	0006      	movs	r6, r0
1000928c:	000d      	movs	r5, r1
1000928e:	788b      	ldrb	r3, [r1, #2]
10009290:	2270      	movs	r2, #112	; 0x70
10009292:	421a      	tst	r2, r3
10009294:	d10d      	bne.n	100092b2 <usbd_edpt_open+0x2a>
10009296:	4b0d      	ldr	r3, [pc, #52]	; (100092cc <usbd_edpt_open+0x44>)
10009298:	7899      	ldrb	r1, [r3, #2]
1000929a:	0028      	movs	r0, r5
1000929c:	f001 f8d6 	bl	1000a44c <tu_edpt_validate>
100092a0:	1e04      	subs	r4, r0, #0
100092a2:	d00d      	beq.n	100092c0 <usbd_edpt_open+0x38>
100092a4:	0029      	movs	r1, r5
100092a6:	0030      	movs	r0, r6
100092a8:	f7ff fabc 	bl	10008824 <dcd_edpt_open>
100092ac:	0004      	movs	r4, r0
100092ae:	0020      	movs	r0, r4
100092b0:	bd70      	pop	{r4, r5, r6, pc}
100092b2:	4a07      	ldr	r2, [pc, #28]	; (100092d0 <usbd_edpt_open+0x48>)
100092b4:	4907      	ldr	r1, [pc, #28]	; (100092d4 <usbd_edpt_open+0x4c>)
100092b6:	4808      	ldr	r0, [pc, #32]	; (100092d8 <usbd_edpt_open+0x50>)
100092b8:	f7fe feb2 	bl	10008020 <__wrap_printf>
100092bc:	2400      	movs	r4, #0
100092be:	e7f6      	b.n	100092ae <usbd_edpt_open+0x26>
100092c0:	4a06      	ldr	r2, [pc, #24]	; (100092dc <usbd_edpt_open+0x54>)
100092c2:	4904      	ldr	r1, [pc, #16]	; (100092d4 <usbd_edpt_open+0x4c>)
100092c4:	4804      	ldr	r0, [pc, #16]	; (100092d8 <usbd_edpt_open+0x50>)
100092c6:	f7fe feab 	bl	10008020 <__wrap_printf>
100092ca:	e7f0      	b.n	100092ae <usbd_edpt_open+0x26>
100092cc:	200011fc 	.word	0x200011fc
100092d0:	000004c2 	.word	0x000004c2
100092d4:	1000db7c 	.word	0x1000db7c
100092d8:	1000dac8 	.word	0x1000dac8
100092dc:	000004c3 	.word	0x000004c3

100092e0 <usbd_open_edpt_pair>:
100092e0:	b5f0      	push	{r4, r5, r6, r7, lr}
100092e2:	46d6      	mov	lr, sl
100092e4:	464f      	mov	r7, r9
100092e6:	4646      	mov	r6, r8
100092e8:	b5c0      	push	{r6, r7, lr}
100092ea:	4681      	mov	r9, r0
100092ec:	000c      	movs	r4, r1
100092ee:	0017      	movs	r7, r2
100092f0:	4698      	mov	r8, r3
100092f2:	9b08      	ldr	r3, [sp, #32]
100092f4:	469a      	mov	sl, r3
100092f6:	2500      	movs	r5, #0
100092f8:	e016      	b.n	10009328 <usbd_open_edpt_pair+0x48>
100092fa:	4a18      	ldr	r2, [pc, #96]	; (1000935c <usbd_open_edpt_pair+0x7c>)
100092fc:	4918      	ldr	r1, [pc, #96]	; (10009360 <usbd_open_edpt_pair+0x80>)
100092fe:	4819      	ldr	r0, [pc, #100]	; (10009364 <usbd_open_edpt_pair+0x84>)
10009300:	f7fe fe8e 	bl	10008020 <__wrap_printf>
10009304:	2600      	movs	r6, #0
10009306:	0030      	movs	r0, r6
10009308:	bce0      	pop	{r5, r6, r7}
1000930a:	46ba      	mov	sl, r7
1000930c:	46b1      	mov	r9, r6
1000930e:	46a8      	mov	r8, r5
10009310:	bdf0      	pop	{r4, r5, r6, r7, pc}
10009312:	4a15      	ldr	r2, [pc, #84]	; (10009368 <usbd_open_edpt_pair+0x88>)
10009314:	4912      	ldr	r1, [pc, #72]	; (10009360 <usbd_open_edpt_pair+0x80>)
10009316:	4813      	ldr	r0, [pc, #76]	; (10009364 <usbd_open_edpt_pair+0x84>)
10009318:	f7fe fe82 	bl	10008020 <__wrap_printf>
1000931c:	e7f3      	b.n	10009306 <usbd_open_edpt_pair+0x26>
1000931e:	9a09      	ldr	r2, [sp, #36]	; 0x24
10009320:	7013      	strb	r3, [r2, #0]
10009322:	7823      	ldrb	r3, [r4, #0]
10009324:	18e4      	adds	r4, r4, r3
10009326:	3501      	adds	r5, #1
10009328:	42af      	cmp	r7, r5
1000932a:	dd14      	ble.n	10009356 <usbd_open_edpt_pair+0x76>
1000932c:	7863      	ldrb	r3, [r4, #1]
1000932e:	2b05      	cmp	r3, #5
10009330:	d1e3      	bne.n	100092fa <usbd_open_edpt_pair+0x1a>
10009332:	78e1      	ldrb	r1, [r4, #3]
10009334:	0789      	lsls	r1, r1, #30
10009336:	0f89      	lsrs	r1, r1, #30
10009338:	4541      	cmp	r1, r8
1000933a:	d1de      	bne.n	100092fa <usbd_open_edpt_pair+0x1a>
1000933c:	0021      	movs	r1, r4
1000933e:	4648      	mov	r0, r9
10009340:	f7ff ffa2 	bl	10009288 <usbd_edpt_open>
10009344:	1e06      	subs	r6, r0, #0
10009346:	d0e4      	beq.n	10009312 <usbd_open_edpt_pair+0x32>
10009348:	78a3      	ldrb	r3, [r4, #2]
1000934a:	09da      	lsrs	r2, r3, #7
1000934c:	2a01      	cmp	r2, #1
1000934e:	d0e6      	beq.n	1000931e <usbd_open_edpt_pair+0x3e>
10009350:	4652      	mov	r2, sl
10009352:	7013      	strb	r3, [r2, #0]
10009354:	e7e5      	b.n	10009322 <usbd_open_edpt_pair+0x42>
10009356:	2601      	movs	r6, #1
10009358:	e7d5      	b.n	10009306 <usbd_open_edpt_pair+0x26>
1000935a:	46c0      	nop			; (mov r8, r8)
1000935c:	0000049c 	.word	0x0000049c
10009360:	1000db8c 	.word	0x1000db8c
10009364:	1000dac8 	.word	0x1000dac8
10009368:	0000049d 	.word	0x0000049d

1000936c <usbd_edpt_claim>:
1000936c:	b570      	push	{r4, r5, r6, lr}
1000936e:	257f      	movs	r5, #127	; 0x7f
10009370:	400d      	ands	r5, r1
10009372:	09cc      	lsrs	r4, r1, #7
10009374:	006a      	lsls	r2, r5, #1
10009376:	4b1e      	ldr	r3, [pc, #120]	; (100093f0 <usbd_edpt_claim+0x84>)
10009378:	189b      	adds	r3, r3, r2
1000937a:	191b      	adds	r3, r3, r4
1000937c:	3330      	adds	r3, #48	; 0x30
1000937e:	78db      	ldrb	r3, [r3, #3]
10009380:	07db      	lsls	r3, r3, #31
10009382:	0fde      	lsrs	r6, r3, #31
10009384:	2b00      	cmp	r3, #0
10009386:	d130      	bne.n	100093ea <usbd_edpt_claim+0x7e>
10009388:	4b19      	ldr	r3, [pc, #100]	; (100093f0 <usbd_edpt_claim+0x84>)
1000938a:	189b      	adds	r3, r3, r2
1000938c:	191b      	adds	r3, r3, r4
1000938e:	3330      	adds	r3, #48	; 0x30
10009390:	78db      	ldrb	r3, [r3, #3]
10009392:	075b      	lsls	r3, r3, #29
10009394:	d42a      	bmi.n	100093ec <usbd_edpt_claim+0x80>
10009396:	4b17      	ldr	r3, [pc, #92]	; (100093f4 <usbd_edpt_claim+0x88>)
10009398:	6818      	ldr	r0, [r3, #0]
1000939a:	2101      	movs	r1, #1
1000939c:	4249      	negs	r1, r1
1000939e:	f002 fedb 	bl	1000c158 <__mutex_enter_timeout_ms_veneer>
100093a2:	006a      	lsls	r2, r5, #1
100093a4:	4b12      	ldr	r3, [pc, #72]	; (100093f0 <usbd_edpt_claim+0x84>)
100093a6:	189b      	adds	r3, r3, r2
100093a8:	191b      	adds	r3, r3, r4
100093aa:	3330      	adds	r3, #48	; 0x30
100093ac:	78db      	ldrb	r3, [r3, #3]
100093ae:	07db      	lsls	r3, r3, #31
100093b0:	d408      	bmi.n	100093c4 <usbd_edpt_claim+0x58>
100093b2:	4b0f      	ldr	r3, [pc, #60]	; (100093f0 <usbd_edpt_claim+0x84>)
100093b4:	189b      	adds	r3, r3, r2
100093b6:	191b      	adds	r3, r3, r4
100093b8:	3330      	adds	r3, #48	; 0x30
100093ba:	78db      	ldrb	r3, [r3, #3]
100093bc:	075b      	lsls	r3, r3, #29
100093be:	d512      	bpl.n	100093e6 <usbd_edpt_claim+0x7a>
100093c0:	2600      	movs	r6, #0
100093c2:	e000      	b.n	100093c6 <usbd_edpt_claim+0x5a>
100093c4:	2600      	movs	r6, #0
100093c6:	2e00      	cmp	r6, #0
100093c8:	d008      	beq.n	100093dc <usbd_edpt_claim+0x70>
100093ca:	006d      	lsls	r5, r5, #1
100093cc:	4908      	ldr	r1, [pc, #32]	; (100093f0 <usbd_edpt_claim+0x84>)
100093ce:	194d      	adds	r5, r1, r5
100093d0:	192c      	adds	r4, r5, r4
100093d2:	3430      	adds	r4, #48	; 0x30
100093d4:	78e3      	ldrb	r3, [r4, #3]
100093d6:	2204      	movs	r2, #4
100093d8:	4313      	orrs	r3, r2
100093da:	70e3      	strb	r3, [r4, #3]
100093dc:	4b05      	ldr	r3, [pc, #20]	; (100093f4 <usbd_edpt_claim+0x88>)
100093de:	6818      	ldr	r0, [r3, #0]
100093e0:	f002 fe9a 	bl	1000c118 <__mutex_exit_veneer>
100093e4:	e002      	b.n	100093ec <usbd_edpt_claim+0x80>
100093e6:	2601      	movs	r6, #1
100093e8:	e7ed      	b.n	100093c6 <usbd_edpt_claim+0x5a>
100093ea:	2600      	movs	r6, #0
100093ec:	0030      	movs	r0, r6
100093ee:	bd70      	pop	{r4, r5, r6, pc}
100093f0:	200011fc 	.word	0x200011fc
100093f4:	20001250 	.word	0x20001250

100093f8 <usbd_edpt_release>:
100093f8:	b570      	push	{r4, r5, r6, lr}
100093fa:	257f      	movs	r5, #127	; 0x7f
100093fc:	400d      	ands	r5, r1
100093fe:	09cc      	lsrs	r4, r1, #7
10009400:	4b15      	ldr	r3, [pc, #84]	; (10009458 <usbd_edpt_release+0x60>)
10009402:	6818      	ldr	r0, [r3, #0]
10009404:	2101      	movs	r1, #1
10009406:	4249      	negs	r1, r1
10009408:	f002 fea6 	bl	1000c158 <__mutex_enter_timeout_ms_veneer>
1000940c:	006a      	lsls	r2, r5, #1
1000940e:	4b13      	ldr	r3, [pc, #76]	; (1000945c <usbd_edpt_release+0x64>)
10009410:	189b      	adds	r3, r3, r2
10009412:	191b      	adds	r3, r3, r4
10009414:	3330      	adds	r3, #48	; 0x30
10009416:	78db      	ldrb	r3, [r3, #3]
10009418:	07db      	lsls	r3, r3, #31
1000941a:	d408      	bmi.n	1000942e <usbd_edpt_release+0x36>
1000941c:	4b0f      	ldr	r3, [pc, #60]	; (1000945c <usbd_edpt_release+0x64>)
1000941e:	189b      	adds	r3, r3, r2
10009420:	191b      	adds	r3, r3, r4
10009422:	3330      	adds	r3, #48	; 0x30
10009424:	78db      	ldrb	r3, [r3, #3]
10009426:	075b      	lsls	r3, r3, #29
10009428:	d413      	bmi.n	10009452 <usbd_edpt_release+0x5a>
1000942a:	2600      	movs	r6, #0
1000942c:	e000      	b.n	10009430 <usbd_edpt_release+0x38>
1000942e:	2600      	movs	r6, #0
10009430:	2e00      	cmp	r6, #0
10009432:	d008      	beq.n	10009446 <usbd_edpt_release+0x4e>
10009434:	0069      	lsls	r1, r5, #1
10009436:	4d09      	ldr	r5, [pc, #36]	; (1000945c <usbd_edpt_release+0x64>)
10009438:	186d      	adds	r5, r5, r1
1000943a:	192c      	adds	r4, r5, r4
1000943c:	3430      	adds	r4, #48	; 0x30
1000943e:	78e3      	ldrb	r3, [r4, #3]
10009440:	2204      	movs	r2, #4
10009442:	4393      	bics	r3, r2
10009444:	70e3      	strb	r3, [r4, #3]
10009446:	4b04      	ldr	r3, [pc, #16]	; (10009458 <usbd_edpt_release+0x60>)
10009448:	6818      	ldr	r0, [r3, #0]
1000944a:	f002 fe65 	bl	1000c118 <__mutex_exit_veneer>
1000944e:	0030      	movs	r0, r6
10009450:	bd70      	pop	{r4, r5, r6, pc}
10009452:	2601      	movs	r6, #1
10009454:	e7ec      	b.n	10009430 <usbd_edpt_release+0x38>
10009456:	46c0      	nop			; (mov r8, r8)
10009458:	20001250 	.word	0x20001250
1000945c:	200011fc 	.word	0x200011fc

10009460 <usbd_edpt_xfer>:
10009460:	b5f0      	push	{r4, r5, r6, r7, lr}
10009462:	46c6      	mov	lr, r8
10009464:	b500      	push	{lr}
10009466:	b082      	sub	sp, #8
10009468:	9301      	str	r3, [sp, #4]
1000946a:	257f      	movs	r5, #127	; 0x7f
1000946c:	400d      	ands	r5, r1
1000946e:	09ce      	lsrs	r6, r1, #7
10009470:	006f      	lsls	r7, r5, #1
10009472:	4c17      	ldr	r4, [pc, #92]	; (100094d0 <usbd_edpt_xfer+0x70>)
10009474:	19e4      	adds	r4, r4, r7
10009476:	19a4      	adds	r4, r4, r6
10009478:	3430      	adds	r4, #48	; 0x30
1000947a:	78e4      	ldrb	r4, [r4, #3]
1000947c:	07e4      	lsls	r4, r4, #31
1000947e:	d41d      	bmi.n	100094bc <usbd_edpt_xfer+0x5c>
10009480:	006f      	lsls	r7, r5, #1
10009482:	4c13      	ldr	r4, [pc, #76]	; (100094d0 <usbd_edpt_xfer+0x70>)
10009484:	19e4      	adds	r4, r4, r7
10009486:	19a4      	adds	r4, r4, r6
10009488:	3430      	adds	r4, #48	; 0x30
1000948a:	78e3      	ldrb	r3, [r4, #3]
1000948c:	2701      	movs	r7, #1
1000948e:	46bc      	mov	ip, r7
10009490:	4667      	mov	r7, ip
10009492:	433b      	orrs	r3, r7
10009494:	70e3      	strb	r3, [r4, #3]
10009496:	9b01      	ldr	r3, [sp, #4]
10009498:	f7ff f9e8 	bl	1000886c <dcd_edpt_xfer>
1000949c:	2800      	cmp	r0, #0
1000949e:	d113      	bne.n	100094c8 <usbd_edpt_xfer+0x68>
100094a0:	006d      	lsls	r5, r5, #1
100094a2:	4b0b      	ldr	r3, [pc, #44]	; (100094d0 <usbd_edpt_xfer+0x70>)
100094a4:	195d      	adds	r5, r3, r5
100094a6:	19ae      	adds	r6, r5, r6
100094a8:	3630      	adds	r6, #48	; 0x30
100094aa:	78f3      	ldrb	r3, [r6, #3]
100094ac:	2201      	movs	r2, #1
100094ae:	4393      	bics	r3, r2
100094b0:	70f3      	strb	r3, [r6, #3]
100094b2:	78f3      	ldrb	r3, [r6, #3]
100094b4:	3203      	adds	r2, #3
100094b6:	4393      	bics	r3, r2
100094b8:	70f3      	strb	r3, [r6, #3]
100094ba:	e005      	b.n	100094c8 <usbd_edpt_xfer+0x68>
100094bc:	4a05      	ldr	r2, [pc, #20]	; (100094d4 <usbd_edpt_xfer+0x74>)
100094be:	4906      	ldr	r1, [pc, #24]	; (100094d8 <usbd_edpt_xfer+0x78>)
100094c0:	4806      	ldr	r0, [pc, #24]	; (100094dc <usbd_edpt_xfer+0x7c>)
100094c2:	f7fe fdad 	bl	10008020 <__wrap_printf>
100094c6:	2000      	movs	r0, #0
100094c8:	b002      	add	sp, #8
100094ca:	bc80      	pop	{r7}
100094cc:	46b8      	mov	r8, r7
100094ce:	bdf0      	pop	{r4, r5, r6, r7, pc}
100094d0:	200011fc 	.word	0x200011fc
100094d4:	0000050a 	.word	0x0000050a
100094d8:	1000db6c 	.word	0x1000db6c
100094dc:	1000dac8 	.word	0x1000dac8

100094e0 <usbd_edpt_stall>:
100094e0:	b570      	push	{r4, r5, r6, lr}
100094e2:	247f      	movs	r4, #127	; 0x7f
100094e4:	400c      	ands	r4, r1
100094e6:	09cd      	lsrs	r5, r1, #7
100094e8:	0062      	lsls	r2, r4, #1
100094ea:	4b0c      	ldr	r3, [pc, #48]	; (1000951c <usbd_edpt_stall+0x3c>)
100094ec:	189b      	adds	r3, r3, r2
100094ee:	195b      	adds	r3, r3, r5
100094f0:	3330      	adds	r3, #48	; 0x30
100094f2:	78db      	ldrb	r3, [r3, #3]
100094f4:	079b      	lsls	r3, r3, #30
100094f6:	d500      	bpl.n	100094fa <usbd_edpt_stall+0x1a>
100094f8:	bd70      	pop	{r4, r5, r6, pc}
100094fa:	f7ff f9cf 	bl	1000889c <dcd_edpt_stall>
100094fe:	0063      	lsls	r3, r4, #1
10009500:	4c06      	ldr	r4, [pc, #24]	; (1000951c <usbd_edpt_stall+0x3c>)
10009502:	18e4      	adds	r4, r4, r3
10009504:	1964      	adds	r4, r4, r5
10009506:	3430      	adds	r4, #48	; 0x30
10009508:	78e3      	ldrb	r3, [r4, #3]
1000950a:	2202      	movs	r2, #2
1000950c:	4313      	orrs	r3, r2
1000950e:	70e3      	strb	r3, [r4, #3]
10009510:	78e3      	ldrb	r3, [r4, #3]
10009512:	2201      	movs	r2, #1
10009514:	4313      	orrs	r3, r2
10009516:	70e3      	strb	r3, [r4, #3]
10009518:	e7ee      	b.n	100094f8 <usbd_edpt_stall+0x18>
1000951a:	46c0      	nop			; (mov r8, r8)
1000951c:	200011fc 	.word	0x200011fc

10009520 <usbd_edpt_clear_stall>:
10009520:	b570      	push	{r4, r5, r6, lr}
10009522:	247f      	movs	r4, #127	; 0x7f
10009524:	400c      	ands	r4, r1
10009526:	09cd      	lsrs	r5, r1, #7
10009528:	0062      	lsls	r2, r4, #1
1000952a:	4b0c      	ldr	r3, [pc, #48]	; (1000955c <usbd_edpt_clear_stall+0x3c>)
1000952c:	189b      	adds	r3, r3, r2
1000952e:	195b      	adds	r3, r3, r5
10009530:	3330      	adds	r3, #48	; 0x30
10009532:	78db      	ldrb	r3, [r3, #3]
10009534:	079b      	lsls	r3, r3, #30
10009536:	d400      	bmi.n	1000953a <usbd_edpt_clear_stall+0x1a>
10009538:	bd70      	pop	{r4, r5, r6, pc}
1000953a:	f7ff f9c5 	bl	100088c8 <dcd_edpt_clear_stall>
1000953e:	0063      	lsls	r3, r4, #1
10009540:	4c06      	ldr	r4, [pc, #24]	; (1000955c <usbd_edpt_clear_stall+0x3c>)
10009542:	18e4      	adds	r4, r4, r3
10009544:	1964      	adds	r4, r4, r5
10009546:	3430      	adds	r4, #48	; 0x30
10009548:	78e3      	ldrb	r3, [r4, #3]
1000954a:	2202      	movs	r2, #2
1000954c:	4393      	bics	r3, r2
1000954e:	70e3      	strb	r3, [r4, #3]
10009550:	78e3      	ldrb	r3, [r4, #3]
10009552:	3a01      	subs	r2, #1
10009554:	4393      	bics	r3, r2
10009556:	70e3      	strb	r3, [r4, #3]
10009558:	e7ee      	b.n	10009538 <usbd_edpt_clear_stall+0x18>
1000955a:	46c0      	nop			; (mov r8, r8)
1000955c:	200011fc 	.word	0x200011fc

10009560 <usbd_edpt_stalled>:
10009560:	227f      	movs	r2, #127	; 0x7f
10009562:	400a      	ands	r2, r1
10009564:	09cb      	lsrs	r3, r1, #7
10009566:	0052      	lsls	r2, r2, #1
10009568:	4903      	ldr	r1, [pc, #12]	; (10009578 <usbd_edpt_stalled+0x18>)
1000956a:	1889      	adds	r1, r1, r2
1000956c:	18c9      	adds	r1, r1, r3
1000956e:	3130      	adds	r1, #48	; 0x30
10009570:	78c8      	ldrb	r0, [r1, #3]
10009572:	0780      	lsls	r0, r0, #30
10009574:	0fc0      	lsrs	r0, r0, #31
10009576:	4770      	bx	lr
10009578:	200011fc 	.word	0x200011fc

1000957c <process_control_request>:
1000957c:	b5f0      	push	{r4, r5, r6, r7, lr}
1000957e:	46c6      	mov	lr, r8
10009580:	b500      	push	{lr}
10009582:	b082      	sub	sp, #8
10009584:	0005      	movs	r5, r0
10009586:	000c      	movs	r4, r1
10009588:	2000      	movs	r0, #0
1000958a:	f000 fb85 	bl	10009c98 <usbd_control_set_complete_callback>
1000958e:	7823      	ldrb	r3, [r4, #0]
10009590:	2260      	movs	r2, #96	; 0x60
10009592:	4013      	ands	r3, r2
10009594:	2b60      	cmp	r3, #96	; 0x60
10009596:	d012      	beq.n	100095be <process_control_request+0x42>
10009598:	2b40      	cmp	r3, #64	; 0x40
1000959a:	d017      	beq.n	100095cc <process_control_request+0x50>
1000959c:	7822      	ldrb	r2, [r4, #0]
1000959e:	06d2      	lsls	r2, r2, #27
100095a0:	0ed2      	lsrs	r2, r2, #27
100095a2:	2a01      	cmp	r2, #1
100095a4:	d100      	bne.n	100095a8 <process_control_request+0x2c>
100095a6:	e0d9      	b.n	1000975c <process_control_request+0x1e0>
100095a8:	2a02      	cmp	r2, #2
100095aa:	d100      	bne.n	100095ae <process_control_request+0x32>
100095ac:	e120      	b.n	100097f0 <process_control_request+0x274>
100095ae:	2a00      	cmp	r2, #0
100095b0:	d01a      	beq.n	100095e8 <process_control_request+0x6c>
100095b2:	2600      	movs	r6, #0
100095b4:	0030      	movs	r0, r6
100095b6:	b002      	add	sp, #8
100095b8:	bc80      	pop	{r7}
100095ba:	46b8      	mov	r8, r7
100095bc:	bdf0      	pop	{r4, r5, r6, r7, pc}
100095be:	4acc      	ldr	r2, [pc, #816]	; (100098f0 <process_control_request+0x374>)
100095c0:	49cc      	ldr	r1, [pc, #816]	; (100098f4 <process_control_request+0x378>)
100095c2:	48cd      	ldr	r0, [pc, #820]	; (100098f8 <process_control_request+0x37c>)
100095c4:	f7fe fd2c 	bl	10008020 <__wrap_printf>
100095c8:	2600      	movs	r6, #0
100095ca:	e7f3      	b.n	100095b4 <process_control_request+0x38>
100095cc:	4bcb      	ldr	r3, [pc, #812]	; (100098fc <process_control_request+0x380>)
100095ce:	2b00      	cmp	r3, #0
100095d0:	d100      	bne.n	100095d4 <process_control_request+0x58>
100095d2:	e181      	b.n	100098d8 <process_control_request+0x35c>
100095d4:	0018      	movs	r0, r3
100095d6:	f000 fb5f 	bl	10009c98 <usbd_control_set_complete_callback>
100095da:	0022      	movs	r2, r4
100095dc:	2100      	movs	r1, #0
100095de:	0028      	movs	r0, r5
100095e0:	e000      	b.n	100095e4 <process_control_request+0x68>
100095e2:	bf00      	nop
100095e4:	0006      	movs	r6, r0
100095e6:	e7e5      	b.n	100095b4 <process_control_request+0x38>
100095e8:	2b20      	cmp	r3, #32
100095ea:	d00a      	beq.n	10009602 <process_control_request+0x86>
100095ec:	2b00      	cmp	r3, #0
100095ee:	d000      	beq.n	100095f2 <process_control_request+0x76>
100095f0:	e17a      	b.n	100098e8 <process_control_request+0x36c>
100095f2:	7863      	ldrb	r3, [r4, #1]
100095f4:	2b09      	cmp	r3, #9
100095f6:	d900      	bls.n	100095fa <process_control_request+0x7e>
100095f8:	e178      	b.n	100098ec <process_control_request+0x370>
100095fa:	009b      	lsls	r3, r3, #2
100095fc:	4ac0      	ldr	r2, [pc, #768]	; (10009900 <process_control_request+0x384>)
100095fe:	58d3      	ldr	r3, [r2, r3]
10009600:	469f      	mov	pc, r3
10009602:	7923      	ldrb	r3, [r4, #4]
10009604:	2b0f      	cmp	r3, #15
10009606:	d900      	bls.n	1000960a <process_control_request+0x8e>
10009608:	e168      	b.n	100098dc <process_control_request+0x360>
1000960a:	4abe      	ldr	r2, [pc, #760]	; (10009904 <process_control_request+0x388>)
1000960c:	18d3      	adds	r3, r2, r3
1000960e:	78db      	ldrb	r3, [r3, #3]
10009610:	4abd      	ldr	r2, [pc, #756]	; (10009908 <process_control_request+0x38c>)
10009612:	2a00      	cmp	r2, #0
10009614:	d005      	beq.n	10009622 <process_control_request+0xa6>
10009616:	4abd      	ldr	r2, [pc, #756]	; (1000990c <process_control_request+0x390>)
10009618:	7812      	ldrb	r2, [r2, #0]
1000961a:	4293      	cmp	r3, r2
1000961c:	d312      	bcc.n	10009644 <process_control_request+0xc8>
1000961e:	1a9b      	subs	r3, r3, r2
10009620:	b2db      	uxtb	r3, r3
10009622:	2b00      	cmp	r3, #0
10009624:	d000      	beq.n	10009628 <process_control_request+0xac>
10009626:	e15b      	b.n	100098e0 <process_control_request+0x364>
10009628:	0059      	lsls	r1, r3, #1
1000962a:	18cb      	adds	r3, r1, r3
1000962c:	00db      	lsls	r3, r3, #3
1000962e:	49b8      	ldr	r1, [pc, #736]	; (10009910 <process_control_request+0x394>)
10009630:	18c9      	adds	r1, r1, r3
10009632:	2900      	cmp	r1, #0
10009634:	d100      	bne.n	10009638 <process_control_request+0xbc>
10009636:	e155      	b.n	100098e4 <process_control_request+0x368>
10009638:	0022      	movs	r2, r4
1000963a:	0028      	movs	r0, r5
1000963c:	f7ff faf8 	bl	10008c30 <invoke_class_control>
10009640:	0006      	movs	r6, r0
10009642:	e7b7      	b.n	100095b4 <process_control_request+0x38>
10009644:	0059      	lsls	r1, r3, #1
10009646:	18cb      	adds	r3, r1, r3
10009648:	00db      	lsls	r3, r3, #3
1000964a:	4ab2      	ldr	r2, [pc, #712]	; (10009914 <process_control_request+0x398>)
1000964c:	6811      	ldr	r1, [r2, #0]
1000964e:	18c9      	adds	r1, r1, r3
10009650:	e7ef      	b.n	10009632 <process_control_request+0xb6>
10009652:	0020      	movs	r0, r4
10009654:	f000 fb26 	bl	10009ca4 <usbd_control_set_request>
10009658:	78a1      	ldrb	r1, [r4, #2]
1000965a:	0028      	movs	r0, r5
1000965c:	f7ff f878 	bl	10008750 <dcd_set_address>
10009660:	4aa8      	ldr	r2, [pc, #672]	; (10009904 <process_control_request+0x388>)
10009662:	7813      	ldrb	r3, [r2, #0]
10009664:	2102      	movs	r1, #2
10009666:	430b      	orrs	r3, r1
10009668:	7013      	strb	r3, [r2, #0]
1000966a:	2601      	movs	r6, #1
1000966c:	e7a2      	b.n	100095b4 <process_control_request+0x38>
1000966e:	4ba5      	ldr	r3, [pc, #660]	; (10009904 <process_control_request+0x388>)
10009670:	785b      	ldrb	r3, [r3, #1]
10009672:	466a      	mov	r2, sp
10009674:	3206      	adds	r2, #6
10009676:	7013      	strb	r3, [r2, #0]
10009678:	2301      	movs	r3, #1
1000967a:	0021      	movs	r1, r4
1000967c:	0028      	movs	r0, r5
1000967e:	f000 faad 	bl	10009bdc <tud_control_xfer>
10009682:	2601      	movs	r6, #1
10009684:	e796      	b.n	100095b4 <process_control_request+0x38>
10009686:	78a7      	ldrb	r7, [r4, #2]
10009688:	4b9e      	ldr	r3, [pc, #632]	; (10009904 <process_control_request+0x388>)
1000968a:	785b      	ldrb	r3, [r3, #1]
1000968c:	b2db      	uxtb	r3, r3
1000968e:	42bb      	cmp	r3, r7
10009690:	d005      	beq.n	1000969e <process_control_request+0x122>
10009692:	4b9c      	ldr	r3, [pc, #624]	; (10009904 <process_control_request+0x388>)
10009694:	785b      	ldrb	r3, [r3, #1]
10009696:	2b00      	cmp	r3, #0
10009698:	d109      	bne.n	100096ae <process_control_request+0x132>
1000969a:	2f00      	cmp	r7, #0
1000969c:	d113      	bne.n	100096c6 <process_control_request+0x14a>
1000969e:	4b99      	ldr	r3, [pc, #612]	; (10009904 <process_control_request+0x388>)
100096a0:	705f      	strb	r7, [r3, #1]
100096a2:	0021      	movs	r1, r4
100096a4:	0028      	movs	r0, r5
100096a6:	f000 fa7d 	bl	10009ba4 <tud_control_status>
100096aa:	2601      	movs	r6, #1
100096ac:	e782      	b.n	100095b4 <process_control_request+0x38>
100096ae:	0028      	movs	r0, r5
100096b0:	f7ff f8d8 	bl	10008864 <dcd_edpt_close_all>
100096b4:	4e93      	ldr	r6, [pc, #588]	; (10009904 <process_control_request+0x388>)
100096b6:	78b3      	ldrb	r3, [r6, #2]
100096b8:	4698      	mov	r8, r3
100096ba:	0028      	movs	r0, r5
100096bc:	f7ff fa70 	bl	10008ba0 <configuration_reset>
100096c0:	4643      	mov	r3, r8
100096c2:	70b3      	strb	r3, [r6, #2]
100096c4:	e7e9      	b.n	1000969a <process_control_request+0x11e>
100096c6:	0039      	movs	r1, r7
100096c8:	0028      	movs	r0, r5
100096ca:	f7ff fabf 	bl	10008c4c <process_set_config>
100096ce:	1e06      	subs	r6, r0, #0
100096d0:	d1e5      	bne.n	1000969e <process_control_request+0x122>
100096d2:	4a91      	ldr	r2, [pc, #580]	; (10009918 <process_control_request+0x39c>)
100096d4:	4987      	ldr	r1, [pc, #540]	; (100098f4 <process_control_request+0x378>)
100096d6:	4888      	ldr	r0, [pc, #544]	; (100098f8 <process_control_request+0x37c>)
100096d8:	f7fe fca2 	bl	10008020 <__wrap_printf>
100096dc:	e76a      	b.n	100095b4 <process_control_request+0x38>
100096de:	0021      	movs	r1, r4
100096e0:	0028      	movs	r0, r5
100096e2:	f7ff fb8b 	bl	10008dfc <process_get_descriptor>
100096e6:	0006      	movs	r6, r0
100096e8:	e764      	b.n	100095b4 <process_control_request+0x38>
100096ea:	78a2      	ldrb	r2, [r4, #2]
100096ec:	78e3      	ldrb	r3, [r4, #3]
100096ee:	021b      	lsls	r3, r3, #8
100096f0:	4313      	orrs	r3, r2
100096f2:	2b01      	cmp	r3, #1
100096f4:	d001      	beq.n	100096fa <process_control_request+0x17e>
100096f6:	2600      	movs	r6, #0
100096f8:	e75c      	b.n	100095b4 <process_control_request+0x38>
100096fa:	4a82      	ldr	r2, [pc, #520]	; (10009904 <process_control_request+0x388>)
100096fc:	7813      	ldrb	r3, [r2, #0]
100096fe:	2108      	movs	r1, #8
10009700:	430b      	orrs	r3, r1
10009702:	7013      	strb	r3, [r2, #0]
10009704:	0021      	movs	r1, r4
10009706:	0028      	movs	r0, r5
10009708:	f000 fa4c 	bl	10009ba4 <tud_control_status>
1000970c:	2601      	movs	r6, #1
1000970e:	e751      	b.n	100095b4 <process_control_request+0x38>
10009710:	78a2      	ldrb	r2, [r4, #2]
10009712:	78e3      	ldrb	r3, [r4, #3]
10009714:	021b      	lsls	r3, r3, #8
10009716:	4313      	orrs	r3, r2
10009718:	2b01      	cmp	r3, #1
1000971a:	d001      	beq.n	10009720 <process_control_request+0x1a4>
1000971c:	2600      	movs	r6, #0
1000971e:	e749      	b.n	100095b4 <process_control_request+0x38>
10009720:	4a78      	ldr	r2, [pc, #480]	; (10009904 <process_control_request+0x388>)
10009722:	7813      	ldrb	r3, [r2, #0]
10009724:	2108      	movs	r1, #8
10009726:	438b      	bics	r3, r1
10009728:	7013      	strb	r3, [r2, #0]
1000972a:	0021      	movs	r1, r4
1000972c:	0028      	movs	r0, r5
1000972e:	f000 fa39 	bl	10009ba4 <tud_control_status>
10009732:	2601      	movs	r6, #1
10009734:	e73e      	b.n	100095b4 <process_control_request+0x38>
10009736:	4b73      	ldr	r3, [pc, #460]	; (10009904 <process_control_request+0x388>)
10009738:	781a      	ldrb	r2, [r3, #0]
1000973a:	0951      	lsrs	r1, r2, #5
1000973c:	0892      	lsrs	r2, r2, #2
1000973e:	2301      	movs	r3, #1
10009740:	400b      	ands	r3, r1
10009742:	2102      	movs	r1, #2
10009744:	400a      	ands	r2, r1
10009746:	4313      	orrs	r3, r2
10009748:	466a      	mov	r2, sp
1000974a:	3206      	adds	r2, #6
1000974c:	8013      	strh	r3, [r2, #0]
1000974e:	2302      	movs	r3, #2
10009750:	0021      	movs	r1, r4
10009752:	0028      	movs	r0, r5
10009754:	f000 fa42 	bl	10009bdc <tud_control_xfer>
10009758:	2601      	movs	r6, #1
1000975a:	e72b      	b.n	100095b4 <process_control_request+0x38>
1000975c:	7923      	ldrb	r3, [r4, #4]
1000975e:	2b0f      	cmp	r3, #15
10009760:	d900      	bls.n	10009764 <process_control_request+0x1e8>
10009762:	e0dd      	b.n	10009920 <process_control_request+0x3a4>
10009764:	4a67      	ldr	r2, [pc, #412]	; (10009904 <process_control_request+0x388>)
10009766:	18d3      	adds	r3, r2, r3
10009768:	78d9      	ldrb	r1, [r3, #3]
1000976a:	4b67      	ldr	r3, [pc, #412]	; (10009908 <process_control_request+0x38c>)
1000976c:	2b00      	cmp	r3, #0
1000976e:	d005      	beq.n	1000977c <process_control_request+0x200>
10009770:	4b66      	ldr	r3, [pc, #408]	; (1000990c <process_control_request+0x390>)
10009772:	781b      	ldrb	r3, [r3, #0]
10009774:	4299      	cmp	r1, r3
10009776:	d329      	bcc.n	100097cc <process_control_request+0x250>
10009778:	1ac9      	subs	r1, r1, r3
1000977a:	b2c9      	uxtb	r1, r1
1000977c:	2900      	cmp	r1, #0
1000977e:	d000      	beq.n	10009782 <process_control_request+0x206>
10009780:	e0d0      	b.n	10009924 <process_control_request+0x3a8>
10009782:	004b      	lsls	r3, r1, #1
10009784:	185b      	adds	r3, r3, r1
10009786:	00db      	lsls	r3, r3, #3
10009788:	4961      	ldr	r1, [pc, #388]	; (10009910 <process_control_request+0x394>)
1000978a:	18c9      	adds	r1, r1, r3
1000978c:	2900      	cmp	r1, #0
1000978e:	d100      	bne.n	10009792 <process_control_request+0x216>
10009790:	e0ca      	b.n	10009928 <process_control_request+0x3ac>
10009792:	0022      	movs	r2, r4
10009794:	0028      	movs	r0, r5
10009796:	f7ff fa4b 	bl	10008c30 <invoke_class_control>
1000979a:	1e06      	subs	r6, r0, #0
1000979c:	d000      	beq.n	100097a0 <process_control_request+0x224>
1000979e:	e709      	b.n	100095b4 <process_control_request+0x38>
100097a0:	7823      	ldrb	r3, [r4, #0]
100097a2:	2260      	movs	r2, #96	; 0x60
100097a4:	421a      	tst	r2, r3
100097a6:	d000      	beq.n	100097aa <process_control_request+0x22e>
100097a8:	e704      	b.n	100095b4 <process_control_request+0x38>
100097aa:	7863      	ldrb	r3, [r4, #1]
100097ac:	3b0a      	subs	r3, #10
100097ae:	2b01      	cmp	r3, #1
100097b0:	d900      	bls.n	100097b4 <process_control_request+0x238>
100097b2:	e6ff      	b.n	100095b4 <process_control_request+0x38>
100097b4:	2000      	movs	r0, #0
100097b6:	f000 fa6f 	bl	10009c98 <usbd_control_set_complete_callback>
100097ba:	7863      	ldrb	r3, [r4, #1]
100097bc:	2b0a      	cmp	r3, #10
100097be:	d00c      	beq.n	100097da <process_control_request+0x25e>
100097c0:	0021      	movs	r1, r4
100097c2:	0028      	movs	r0, r5
100097c4:	f000 f9ee 	bl	10009ba4 <tud_control_status>
100097c8:	2601      	movs	r6, #1
100097ca:	e6f3      	b.n	100095b4 <process_control_request+0x38>
100097cc:	004b      	lsls	r3, r1, #1
100097ce:	185b      	adds	r3, r3, r1
100097d0:	00db      	lsls	r3, r3, #3
100097d2:	4a50      	ldr	r2, [pc, #320]	; (10009914 <process_control_request+0x398>)
100097d4:	6811      	ldr	r1, [r2, #0]
100097d6:	18c9      	adds	r1, r1, r3
100097d8:	e7d8      	b.n	1000978c <process_control_request+0x210>
100097da:	466b      	mov	r3, sp
100097dc:	1d9a      	adds	r2, r3, #6
100097de:	2300      	movs	r3, #0
100097e0:	7013      	strb	r3, [r2, #0]
100097e2:	3301      	adds	r3, #1
100097e4:	0021      	movs	r1, r4
100097e6:	0028      	movs	r0, r5
100097e8:	f000 f9f8 	bl	10009bdc <tud_control_xfer>
100097ec:	3601      	adds	r6, #1
100097ee:	e6e1      	b.n	100095b4 <process_control_request+0x38>
100097f0:	7921      	ldrb	r1, [r4, #4]
100097f2:	227f      	movs	r2, #127	; 0x7f
100097f4:	400a      	ands	r2, r1
100097f6:	09ce      	lsrs	r6, r1, #7
100097f8:	2070      	movs	r0, #112	; 0x70
100097fa:	4208      	tst	r0, r1
100097fc:	d120      	bne.n	10009840 <process_control_request+0x2c4>
100097fe:	0052      	lsls	r2, r2, #1
10009800:	4840      	ldr	r0, [pc, #256]	; (10009904 <process_control_request+0x388>)
10009802:	1882      	adds	r2, r0, r2
10009804:	1992      	adds	r2, r2, r6
10009806:	7cd2      	ldrb	r2, [r2, #19]
10009808:	483f      	ldr	r0, [pc, #252]	; (10009908 <process_control_request+0x38c>)
1000980a:	2800      	cmp	r0, #0
1000980c:	d005      	beq.n	1000981a <process_control_request+0x29e>
1000980e:	483f      	ldr	r0, [pc, #252]	; (1000990c <process_control_request+0x390>)
10009810:	7800      	ldrb	r0, [r0, #0]
10009812:	4282      	cmp	r2, r0
10009814:	d31b      	bcc.n	1000984e <process_control_request+0x2d2>
10009816:	1a12      	subs	r2, r2, r0
10009818:	b2d2      	uxtb	r2, r2
1000981a:	2a00      	cmp	r2, #0
1000981c:	d11e      	bne.n	1000985c <process_control_request+0x2e0>
1000981e:	0056      	lsls	r6, r2, #1
10009820:	18b2      	adds	r2, r6, r2
10009822:	00d2      	lsls	r2, r2, #3
10009824:	4e3a      	ldr	r6, [pc, #232]	; (10009910 <process_control_request+0x394>)
10009826:	18b6      	adds	r6, r6, r2
10009828:	2b00      	cmp	r3, #0
1000982a:	d019      	beq.n	10009860 <process_control_request+0x2e4>
1000982c:	2e00      	cmp	r6, #0
1000982e:	d100      	bne.n	10009832 <process_control_request+0x2b6>
10009830:	e07c      	b.n	1000992c <process_control_request+0x3b0>
10009832:	0022      	movs	r2, r4
10009834:	0031      	movs	r1, r6
10009836:	0028      	movs	r0, r5
10009838:	f7ff f9fa 	bl	10008c30 <invoke_class_control>
1000983c:	0006      	movs	r6, r0
1000983e:	e6b9      	b.n	100095b4 <process_control_request+0x38>
10009840:	4a36      	ldr	r2, [pc, #216]	; (1000991c <process_control_request+0x3a0>)
10009842:	492c      	ldr	r1, [pc, #176]	; (100098f4 <process_control_request+0x378>)
10009844:	482c      	ldr	r0, [pc, #176]	; (100098f8 <process_control_request+0x37c>)
10009846:	f7fe fbeb 	bl	10008020 <__wrap_printf>
1000984a:	2600      	movs	r6, #0
1000984c:	e6b2      	b.n	100095b4 <process_control_request+0x38>
1000984e:	0056      	lsls	r6, r2, #1
10009850:	18b2      	adds	r2, r6, r2
10009852:	00d2      	lsls	r2, r2, #3
10009854:	482f      	ldr	r0, [pc, #188]	; (10009914 <process_control_request+0x398>)
10009856:	6806      	ldr	r6, [r0, #0]
10009858:	18b6      	adds	r6, r6, r2
1000985a:	e7e5      	b.n	10009828 <process_control_request+0x2ac>
1000985c:	2600      	movs	r6, #0
1000985e:	e7e3      	b.n	10009828 <process_control_request+0x2ac>
10009860:	7863      	ldrb	r3, [r4, #1]
10009862:	2b01      	cmp	r3, #1
10009864:	d012      	beq.n	1000988c <process_control_request+0x310>
10009866:	2b03      	cmp	r3, #3
10009868:	d010      	beq.n	1000988c <process_control_request+0x310>
1000986a:	2b00      	cmp	r3, #0
1000986c:	d001      	beq.n	10009872 <process_control_request+0x2f6>
1000986e:	2600      	movs	r6, #0
10009870:	e6a0      	b.n	100095b4 <process_control_request+0x38>
10009872:	0028      	movs	r0, r5
10009874:	f7ff fe74 	bl	10009560 <usbd_edpt_stalled>
10009878:	466b      	mov	r3, sp
1000987a:	1d9a      	adds	r2, r3, #6
1000987c:	8010      	strh	r0, [r2, #0]
1000987e:	2302      	movs	r3, #2
10009880:	0021      	movs	r1, r4
10009882:	0028      	movs	r0, r5
10009884:	f000 f9aa 	bl	10009bdc <tud_control_xfer>
10009888:	2601      	movs	r6, #1
1000988a:	e693      	b.n	100095b4 <process_control_request+0x38>
1000988c:	78a7      	ldrb	r7, [r4, #2]
1000988e:	78e2      	ldrb	r2, [r4, #3]
10009890:	0212      	lsls	r2, r2, #8
10009892:	433a      	orrs	r2, r7
10009894:	d104      	bne.n	100098a0 <process_control_request+0x324>
10009896:	2b01      	cmp	r3, #1
10009898:	d01a      	beq.n	100098d0 <process_control_request+0x354>
1000989a:	0028      	movs	r0, r5
1000989c:	f7ff fe20 	bl	100094e0 <usbd_edpt_stall>
100098a0:	2e00      	cmp	r6, #0
100098a2:	d045      	beq.n	10009930 <process_control_request+0x3b4>
100098a4:	0022      	movs	r2, r4
100098a6:	0031      	movs	r1, r6
100098a8:	0028      	movs	r0, r5
100098aa:	f7ff f9c1 	bl	10008c30 <invoke_class_control>
100098ae:	2000      	movs	r0, #0
100098b0:	f000 f9f2 	bl	10009c98 <usbd_control_set_complete_callback>
100098b4:	4a13      	ldr	r2, [pc, #76]	; (10009904 <process_control_request+0x388>)
100098b6:	2334      	movs	r3, #52	; 0x34
100098b8:	5cd3      	ldrb	r3, [r2, r3]
100098ba:	07db      	lsls	r3, r3, #31
100098bc:	0fde      	lsrs	r6, r3, #31
100098be:	2b00      	cmp	r3, #0
100098c0:	d000      	beq.n	100098c4 <process_control_request+0x348>
100098c2:	e677      	b.n	100095b4 <process_control_request+0x38>
100098c4:	0021      	movs	r1, r4
100098c6:	0028      	movs	r0, r5
100098c8:	f000 f96c 	bl	10009ba4 <tud_control_status>
100098cc:	2601      	movs	r6, #1
100098ce:	e671      	b.n	100095b4 <process_control_request+0x38>
100098d0:	0028      	movs	r0, r5
100098d2:	f7ff fe25 	bl	10009520 <usbd_edpt_clear_stall>
100098d6:	e7e3      	b.n	100098a0 <process_control_request+0x324>
100098d8:	2600      	movs	r6, #0
100098da:	e66b      	b.n	100095b4 <process_control_request+0x38>
100098dc:	2600      	movs	r6, #0
100098de:	e669      	b.n	100095b4 <process_control_request+0x38>
100098e0:	2600      	movs	r6, #0
100098e2:	e667      	b.n	100095b4 <process_control_request+0x38>
100098e4:	2600      	movs	r6, #0
100098e6:	e665      	b.n	100095b4 <process_control_request+0x38>
100098e8:	2600      	movs	r6, #0
100098ea:	e663      	b.n	100095b4 <process_control_request+0x38>
100098ec:	2600      	movs	r6, #0
100098ee:	e661      	b.n	100095b4 <process_control_request+0x38>
100098f0:	0000027f 	.word	0x0000027f
100098f4:	1000dbdc 	.word	0x1000dbdc
100098f8:	1000dac8 	.word	0x1000dac8
100098fc:	00000000 	.word	0x00000000
10009900:	1000db20 	.word	0x1000db20
10009904:	200011fc 	.word	0x200011fc
10009908:	100080fd 	.word	0x100080fd
1000990c:	20001b22 	.word	0x20001b22
10009910:	1000dc00 	.word	0x1000dc00
10009914:	20000ec4 	.word	0x20000ec4
10009918:	000002d3 	.word	0x000002d3
1000991c:	00000333 	.word	0x00000333
10009920:	2600      	movs	r6, #0
10009922:	e647      	b.n	100095b4 <process_control_request+0x38>
10009924:	2600      	movs	r6, #0
10009926:	e645      	b.n	100095b4 <process_control_request+0x38>
10009928:	2600      	movs	r6, #0
1000992a:	e643      	b.n	100095b4 <process_control_request+0x38>
1000992c:	2600      	movs	r6, #0
1000992e:	e641      	b.n	100095b4 <process_control_request+0x38>
10009930:	2601      	movs	r6, #1
10009932:	e63f      	b.n	100095b4 <process_control_request+0x38>

10009934 <tud_task>:
10009934:	b530      	push	{r4, r5, lr}
10009936:	b085      	sub	sp, #20
10009938:	f000 fd80 	bl	1000a43c <tusb_inited>
1000993c:	2800      	cmp	r0, #0
1000993e:	d108      	bne.n	10009952 <tud_task+0x1e>
10009940:	b005      	add	sp, #20
10009942:	bd30      	pop	{r4, r5, pc}
10009944:	ac01      	add	r4, sp, #4
10009946:	7820      	ldrb	r0, [r4, #0]
10009948:	f7ff f96c 	bl	10008c24 <usbd_reset>
1000994c:	7922      	ldrb	r2, [r4, #4]
1000994e:	4b72      	ldr	r3, [pc, #456]	; (10009b18 <tud_task+0x1e4>)
10009950:	709a      	strb	r2, [r3, #2]
10009952:	4b72      	ldr	r3, [pc, #456]	; (10009b1c <tud_task+0x1e8>)
10009954:	681c      	ldr	r4, [r3, #0]
10009956:	69e2      	ldr	r2, [r4, #28]
10009958:	f3ef 8110 	mrs	r1, PRIMASK
1000995c:	b672      	cpsid	i
1000995e:	6813      	ldr	r3, [r2, #0]
10009960:	2b00      	cmp	r3, #0
10009962:	d0fc      	beq.n	1000995e <tud_task+0x2a>
10009964:	f3bf 8f5f 	dmb	sy
10009968:	6221      	str	r1, [r4, #32]
1000996a:	a901      	add	r1, sp, #4
1000996c:	0020      	movs	r0, r4
1000996e:	f001 f87a 	bl	1000aa66 <tu_fifo_read>
10009972:	69e2      	ldr	r2, [r4, #28]
10009974:	6a23      	ldr	r3, [r4, #32]
10009976:	f3bf 8f5f 	dmb	sy
1000997a:	2100      	movs	r1, #0
1000997c:	6011      	str	r1, [r2, #0]
1000997e:	f383 8810 	msr	PRIMASK, r3
10009982:	2800      	cmp	r0, #0
10009984:	d0dc      	beq.n	10009940 <tud_task+0xc>
10009986:	ab01      	add	r3, sp, #4
10009988:	785b      	ldrb	r3, [r3, #1]
1000998a:	2b08      	cmp	r3, #8
1000998c:	d8e1      	bhi.n	10009952 <tud_task+0x1e>
1000998e:	009b      	lsls	r3, r3, #2
10009990:	4a63      	ldr	r2, [pc, #396]	; (10009b20 <tud_task+0x1ec>)
10009992:	58d3      	ldr	r3, [r2, r3]
10009994:	469f      	mov	pc, r3
10009996:	ab01      	add	r3, sp, #4
10009998:	7818      	ldrb	r0, [r3, #0]
1000999a:	f7ff f943 	bl	10008c24 <usbd_reset>
1000999e:	4b61      	ldr	r3, [pc, #388]	; (10009b24 <tud_task+0x1f0>)
100099a0:	2b00      	cmp	r3, #0
100099a2:	d0d6      	beq.n	10009952 <tud_task+0x1e>
100099a4:	e000      	b.n	100099a8 <tud_task+0x74>
100099a6:	bf00      	nop
100099a8:	e7d3      	b.n	10009952 <tud_task+0x1e>
100099aa:	4b5b      	ldr	r3, [pc, #364]	; (10009b18 <tud_task+0x1e4>)
100099ac:	781a      	ldrb	r2, [r3, #0]
100099ae:	2401      	movs	r4, #1
100099b0:	2101      	movs	r1, #1
100099b2:	430a      	orrs	r2, r1
100099b4:	701a      	strb	r2, [r3, #0]
100099b6:	2233      	movs	r2, #51	; 0x33
100099b8:	5c99      	ldrb	r1, [r3, r2]
100099ba:	43a1      	bics	r1, r4
100099bc:	5499      	strb	r1, [r3, r2]
100099be:	5c99      	ldrb	r1, [r3, r2]
100099c0:	2004      	movs	r0, #4
100099c2:	4381      	bics	r1, r0
100099c4:	5499      	strb	r1, [r3, r2]
100099c6:	3201      	adds	r2, #1
100099c8:	5c99      	ldrb	r1, [r3, r2]
100099ca:	43a1      	bics	r1, r4
100099cc:	5499      	strb	r1, [r3, r2]
100099ce:	5c99      	ldrb	r1, [r3, r2]
100099d0:	4381      	bics	r1, r0
100099d2:	5499      	strb	r1, [r3, r2]
100099d4:	ab01      	add	r3, sp, #4
100099d6:	7818      	ldrb	r0, [r3, #0]
100099d8:	a902      	add	r1, sp, #8
100099da:	f7ff fdcf 	bl	1000957c <process_control_request>
100099de:	2800      	cmp	r0, #0
100099e0:	d1b7      	bne.n	10009952 <tud_task+0x1e>
100099e2:	ac01      	add	r4, sp, #4
100099e4:	7820      	ldrb	r0, [r4, #0]
100099e6:	2100      	movs	r1, #0
100099e8:	f7fe ff58 	bl	1000889c <dcd_edpt_stall>
100099ec:	7820      	ldrb	r0, [r4, #0]
100099ee:	2180      	movs	r1, #128	; 0x80
100099f0:	f7fe ff54 	bl	1000889c <dcd_edpt_stall>
100099f4:	e7ad      	b.n	10009952 <tud_task+0x1e>
100099f6:	ab01      	add	r3, sp, #4
100099f8:	7919      	ldrb	r1, [r3, #4]
100099fa:	227f      	movs	r2, #127	; 0x7f
100099fc:	400a      	ands	r2, r1
100099fe:	09cc      	lsrs	r4, r1, #7
10009a00:	0050      	lsls	r0, r2, #1
10009a02:	4b45      	ldr	r3, [pc, #276]	; (10009b18 <tud_task+0x1e4>)
10009a04:	181b      	adds	r3, r3, r0
10009a06:	191b      	adds	r3, r3, r4
10009a08:	3330      	adds	r3, #48	; 0x30
10009a0a:	78d8      	ldrb	r0, [r3, #3]
10009a0c:	2501      	movs	r5, #1
10009a0e:	43a8      	bics	r0, r5
10009a10:	70d8      	strb	r0, [r3, #3]
10009a12:	78d8      	ldrb	r0, [r3, #3]
10009a14:	3503      	adds	r5, #3
10009a16:	43a8      	bics	r0, r5
10009a18:	70d8      	strb	r0, [r3, #3]
10009a1a:	2a00      	cmp	r2, #0
10009a1c:	d01d      	beq.n	10009a5a <tud_task+0x126>
10009a1e:	0052      	lsls	r2, r2, #1
10009a20:	4b3d      	ldr	r3, [pc, #244]	; (10009b18 <tud_task+0x1e4>)
10009a22:	189a      	adds	r2, r3, r2
10009a24:	1912      	adds	r2, r2, r4
10009a26:	7cd3      	ldrb	r3, [r2, #19]
10009a28:	4a3f      	ldr	r2, [pc, #252]	; (10009b28 <tud_task+0x1f4>)
10009a2a:	2a00      	cmp	r2, #0
10009a2c:	d005      	beq.n	10009a3a <tud_task+0x106>
10009a2e:	4a3f      	ldr	r2, [pc, #252]	; (10009b2c <tud_task+0x1f8>)
10009a30:	7812      	ldrb	r2, [r2, #0]
10009a32:	4293      	cmp	r3, r2
10009a34:	d318      	bcc.n	10009a68 <tud_task+0x134>
10009a36:	1a9b      	subs	r3, r3, r2
10009a38:	b2db      	uxtb	r3, r3
10009a3a:	2b00      	cmp	r3, #0
10009a3c:	d11b      	bne.n	10009a76 <tud_task+0x142>
10009a3e:	005a      	lsls	r2, r3, #1
10009a40:	18d2      	adds	r2, r2, r3
10009a42:	00d2      	lsls	r2, r2, #3
10009a44:	4b3a      	ldr	r3, [pc, #232]	; (10009b30 <tud_task+0x1fc>)
10009a46:	189b      	adds	r3, r3, r2
10009a48:	2b00      	cmp	r3, #0
10009a4a:	d014      	beq.n	10009a76 <tud_task+0x142>
10009a4c:	691c      	ldr	r4, [r3, #16]
10009a4e:	a801      	add	r0, sp, #4
10009a50:	7942      	ldrb	r2, [r0, #5]
10009a52:	9b03      	ldr	r3, [sp, #12]
10009a54:	7800      	ldrb	r0, [r0, #0]
10009a56:	47a0      	blx	r4
10009a58:	e77b      	b.n	10009952 <tud_task+0x1e>
10009a5a:	a801      	add	r0, sp, #4
10009a5c:	7942      	ldrb	r2, [r0, #5]
10009a5e:	9b03      	ldr	r3, [sp, #12]
10009a60:	7800      	ldrb	r0, [r0, #0]
10009a62:	f000 f92d 	bl	10009cc0 <usbd_control_xfer_cb>
10009a66:	e774      	b.n	10009952 <tud_task+0x1e>
10009a68:	005a      	lsls	r2, r3, #1
10009a6a:	18d2      	adds	r2, r2, r3
10009a6c:	00d2      	lsls	r2, r2, #3
10009a6e:	4b31      	ldr	r3, [pc, #196]	; (10009b34 <tud_task+0x200>)
10009a70:	681b      	ldr	r3, [r3, #0]
10009a72:	189b      	adds	r3, r3, r2
10009a74:	e7e8      	b.n	10009a48 <tud_task+0x114>
10009a76:	4a30      	ldr	r2, [pc, #192]	; (10009b38 <tud_task+0x204>)
10009a78:	4930      	ldr	r1, [pc, #192]	; (10009b3c <tud_task+0x208>)
10009a7a:	4831      	ldr	r0, [pc, #196]	; (10009b40 <tud_task+0x20c>)
10009a7c:	f7fe fad0 	bl	10008020 <__wrap_printf>
10009a80:	e75e      	b.n	10009940 <tud_task+0xc>
10009a82:	4b25      	ldr	r3, [pc, #148]	; (10009b18 <tud_task+0x1e4>)
10009a84:	781b      	ldrb	r3, [r3, #0]
10009a86:	07db      	lsls	r3, r3, #31
10009a88:	d400      	bmi.n	10009a8c <tud_task+0x158>
10009a8a:	e762      	b.n	10009952 <tud_task+0x1e>
10009a8c:	4b2d      	ldr	r3, [pc, #180]	; (10009b44 <tud_task+0x210>)
10009a8e:	2b00      	cmp	r3, #0
10009a90:	d100      	bne.n	10009a94 <tud_task+0x160>
10009a92:	e75e      	b.n	10009952 <tud_task+0x1e>
10009a94:	4b20      	ldr	r3, [pc, #128]	; (10009b18 <tud_task+0x1e4>)
10009a96:	7818      	ldrb	r0, [r3, #0]
10009a98:	0700      	lsls	r0, r0, #28
10009a9a:	0fc0      	lsrs	r0, r0, #31
10009a9c:	e000      	b.n	10009aa0 <tud_task+0x16c>
10009a9e:	bf00      	nop
10009aa0:	e757      	b.n	10009952 <tud_task+0x1e>
10009aa2:	4b1d      	ldr	r3, [pc, #116]	; (10009b18 <tud_task+0x1e4>)
10009aa4:	781b      	ldrb	r3, [r3, #0]
10009aa6:	07db      	lsls	r3, r3, #31
10009aa8:	d400      	bmi.n	10009aac <tud_task+0x178>
10009aaa:	e752      	b.n	10009952 <tud_task+0x1e>
10009aac:	4b26      	ldr	r3, [pc, #152]	; (10009b48 <tud_task+0x214>)
10009aae:	2b00      	cmp	r3, #0
10009ab0:	d100      	bne.n	10009ab4 <tud_task+0x180>
10009ab2:	e74e      	b.n	10009952 <tud_task+0x1e>
10009ab4:	e000      	b.n	10009ab8 <tud_task+0x184>
10009ab6:	bf00      	nop
10009ab8:	e74b      	b.n	10009952 <tud_task+0x1e>
10009aba:	0063      	lsls	r3, r4, #1
10009abc:	191b      	adds	r3, r3, r4
10009abe:	00da      	lsls	r2, r3, #3
10009ac0:	4b1c      	ldr	r3, [pc, #112]	; (10009b34 <tud_task+0x200>)
10009ac2:	681b      	ldr	r3, [r3, #0]
10009ac4:	189b      	adds	r3, r3, r2
10009ac6:	e002      	b.n	10009ace <tud_task+0x19a>
10009ac8:	0023      	movs	r3, r4
10009aca:	e014      	b.n	10009af6 <tud_task+0x1c2>
10009acc:	2300      	movs	r3, #0
10009ace:	695b      	ldr	r3, [r3, #20]
10009ad0:	2b00      	cmp	r3, #0
10009ad2:	d002      	beq.n	10009ada <tud_task+0x1a6>
10009ad4:	aa01      	add	r2, sp, #4
10009ad6:	7810      	ldrb	r0, [r2, #0]
10009ad8:	4798      	blx	r3
10009ada:	3401      	adds	r4, #1
10009adc:	b2e4      	uxtb	r4, r4
10009ade:	4b13      	ldr	r3, [pc, #76]	; (10009b2c <tud_task+0x1f8>)
10009ae0:	781b      	ldrb	r3, [r3, #0]
10009ae2:	42a3      	cmp	r3, r4
10009ae4:	d200      	bcs.n	10009ae8 <tud_task+0x1b4>
10009ae6:	e734      	b.n	10009952 <tud_task+0x1e>
10009ae8:	4a0f      	ldr	r2, [pc, #60]	; (10009b28 <tud_task+0x1f4>)
10009aea:	2a00      	cmp	r2, #0
10009aec:	d0ec      	beq.n	10009ac8 <tud_task+0x194>
10009aee:	42a3      	cmp	r3, r4
10009af0:	d8e3      	bhi.n	10009aba <tud_task+0x186>
10009af2:	1ae3      	subs	r3, r4, r3
10009af4:	b2db      	uxtb	r3, r3
10009af6:	2b00      	cmp	r3, #0
10009af8:	d1e8      	bne.n	10009acc <tud_task+0x198>
10009afa:	005a      	lsls	r2, r3, #1
10009afc:	18d2      	adds	r2, r2, r3
10009afe:	00d2      	lsls	r2, r2, #3
10009b00:	4b0b      	ldr	r3, [pc, #44]	; (10009b30 <tud_task+0x1fc>)
10009b02:	189b      	adds	r3, r3, r2
10009b04:	e7e3      	b.n	10009ace <tud_task+0x19a>
10009b06:	2400      	movs	r4, #0
10009b08:	e7e9      	b.n	10009ade <tud_task+0x1aa>
10009b0a:	9b02      	ldr	r3, [sp, #8]
10009b0c:	2b00      	cmp	r3, #0
10009b0e:	d100      	bne.n	10009b12 <tud_task+0x1de>
10009b10:	e71f      	b.n	10009952 <tud_task+0x1e>
10009b12:	9803      	ldr	r0, [sp, #12]
10009b14:	4798      	blx	r3
10009b16:	e71c      	b.n	10009952 <tud_task+0x1e>
10009b18:	200011fc 	.word	0x200011fc
10009b1c:	20001254 	.word	0x20001254
10009b20:	1000db48 	.word	0x1000db48
10009b24:	00000000 	.word	0x00000000
10009b28:	100080fd 	.word	0x100080fd
10009b2c:	20001b22 	.word	0x20001b22
10009b30:	1000dc00 	.word	0x1000dc00
10009b34:	20000ec4 	.word	0x20000ec4
10009b38:	00000237 	.word	0x00000237
10009b3c:	1000dbf4 	.word	0x1000dbf4
10009b40:	1000dac8 	.word	0x1000dac8
	...

10009b4c <_data_stage_xact>:
10009b4c:	b5f8      	push	{r3, r4, r5, r6, r7, lr}
10009b4e:	0005      	movs	r5, r0
10009b50:	4b12      	ldr	r3, [pc, #72]	; (10009b9c <_data_stage_xact+0x50>)
10009b52:	899f      	ldrh	r7, [r3, #12]
10009b54:	89de      	ldrh	r6, [r3, #14]
10009b56:	1bb9      	subs	r1, r7, r6
10009b58:	b289      	uxth	r1, r1
10009b5a:	1c0b      	adds	r3, r1, #0
10009b5c:	2940      	cmp	r1, #64	; 0x40
10009b5e:	d900      	bls.n	10009b62 <_data_stage_xact+0x16>
10009b60:	2340      	movs	r3, #64	; 0x40
10009b62:	b29c      	uxth	r4, r3
10009b64:	4b0d      	ldr	r3, [pc, #52]	; (10009b9c <_data_stage_xact+0x50>)
10009b66:	781b      	ldrb	r3, [r3, #0]
10009b68:	b25b      	sxtb	r3, r3
10009b6a:	2b00      	cmp	r3, #0
10009b6c:	db08      	blt.n	10009b80 <_data_stage_xact+0x34>
10009b6e:	2100      	movs	r1, #0
10009b70:	42b7      	cmp	r7, r6
10009b72:	d011      	beq.n	10009b98 <_data_stage_xact+0x4c>
10009b74:	4a0a      	ldr	r2, [pc, #40]	; (10009ba0 <_data_stage_xact+0x54>)
10009b76:	0023      	movs	r3, r4
10009b78:	0028      	movs	r0, r5
10009b7a:	f7ff fc71 	bl	10009460 <usbd_edpt_xfer>
10009b7e:	bdf8      	pop	{r3, r4, r5, r6, r7, pc}
10009b80:	42b7      	cmp	r7, r6
10009b82:	d101      	bne.n	10009b88 <_data_stage_xact+0x3c>
10009b84:	2180      	movs	r1, #128	; 0x80
10009b86:	e7f3      	b.n	10009b70 <_data_stage_xact+0x24>
10009b88:	4b04      	ldr	r3, [pc, #16]	; (10009b9c <_data_stage_xact+0x50>)
10009b8a:	6899      	ldr	r1, [r3, #8]
10009b8c:	0022      	movs	r2, r4
10009b8e:	4804      	ldr	r0, [pc, #16]	; (10009ba0 <_data_stage_xact+0x54>)
10009b90:	f7fe f890 	bl	10007cb4 <__wrap___aeabi_memcpy>
10009b94:	2180      	movs	r1, #128	; 0x80
10009b96:	e7eb      	b.n	10009b70 <_data_stage_xact+0x24>
10009b98:	2200      	movs	r2, #0
10009b9a:	e7ec      	b.n	10009b76 <_data_stage_xact+0x2a>
10009b9c:	200011a0 	.word	0x200011a0
10009ba0:	200011bc 	.word	0x200011bc

10009ba4 <tud_control_status>:
10009ba4:	b570      	push	{r4, r5, r6, lr}
10009ba6:	0006      	movs	r6, r0
10009ba8:	000c      	movs	r4, r1
10009baa:	4d0b      	ldr	r5, [pc, #44]	; (10009bd8 <tud_control_status+0x34>)
10009bac:	2208      	movs	r2, #8
10009bae:	0028      	movs	r0, r5
10009bb0:	f7fe f880 	bl	10007cb4 <__wrap___aeabi_memcpy>
10009bb4:	2300      	movs	r3, #0
10009bb6:	60ab      	str	r3, [r5, #8]
10009bb8:	81eb      	strh	r3, [r5, #14]
10009bba:	81ab      	strh	r3, [r5, #12]
10009bbc:	2300      	movs	r3, #0
10009bbe:	56e3      	ldrsb	r3, [r4, r3]
10009bc0:	2b00      	cmp	r3, #0
10009bc2:	db06      	blt.n	10009bd2 <tud_control_status+0x2e>
10009bc4:	2180      	movs	r1, #128	; 0x80
10009bc6:	2300      	movs	r3, #0
10009bc8:	2200      	movs	r2, #0
10009bca:	0030      	movs	r0, r6
10009bcc:	f7ff fc48 	bl	10009460 <usbd_edpt_xfer>
10009bd0:	bd70      	pop	{r4, r5, r6, pc}
10009bd2:	2100      	movs	r1, #0
10009bd4:	e7f7      	b.n	10009bc6 <tud_control_status+0x22>
10009bd6:	46c0      	nop			; (mov r8, r8)
10009bd8:	200011a0 	.word	0x200011a0

10009bdc <tud_control_xfer>:
10009bdc:	b5f0      	push	{r4, r5, r6, r7, lr}
10009bde:	46c6      	mov	lr, r8
10009be0:	b500      	push	{lr}
10009be2:	4680      	mov	r8, r0
10009be4:	000c      	movs	r4, r1
10009be6:	0016      	movs	r6, r2
10009be8:	001d      	movs	r5, r3
10009bea:	4f23      	ldr	r7, [pc, #140]	; (10009c78 <tud_control_xfer+0x9c>)
10009bec:	2208      	movs	r2, #8
10009bee:	0038      	movs	r0, r7
10009bf0:	f7fe f860 	bl	10007cb4 <__wrap___aeabi_memcpy>
10009bf4:	60be      	str	r6, [r7, #8]
10009bf6:	2300      	movs	r3, #0
10009bf8:	81fb      	strh	r3, [r7, #14]
10009bfa:	79a3      	ldrb	r3, [r4, #6]
10009bfc:	79e1      	ldrb	r1, [r4, #7]
10009bfe:	0209      	lsls	r1, r1, #8
10009c00:	4319      	orrs	r1, r3
10009c02:	1c0b      	adds	r3, r1, #0
10009c04:	42a9      	cmp	r1, r5
10009c06:	d900      	bls.n	10009c0a <tud_control_xfer+0x2e>
10009c08:	1c2b      	adds	r3, r5, #0
10009c0a:	b299      	uxth	r1, r3
10009c0c:	4a1a      	ldr	r2, [pc, #104]	; (10009c78 <tud_control_xfer+0x9c>)
10009c0e:	8193      	strh	r3, [r2, #12]
10009c10:	79a2      	ldrb	r2, [r4, #6]
10009c12:	79e3      	ldrb	r3, [r4, #7]
10009c14:	021b      	lsls	r3, r3, #8
10009c16:	4313      	orrs	r3, r2
10009c18:	d019      	beq.n	10009c4e <tud_control_xfer+0x72>
10009c1a:	2900      	cmp	r1, #0
10009c1c:	d001      	beq.n	10009c22 <tud_control_xfer+0x46>
10009c1e:	2e00      	cmp	r6, #0
10009c20:	d008      	beq.n	10009c34 <tud_control_xfer+0x58>
10009c22:	4640      	mov	r0, r8
10009c24:	f7ff ff92 	bl	10009b4c <_data_stage_xact>
10009c28:	1e04      	subs	r4, r0, #0
10009c2a:	d00a      	beq.n	10009c42 <tud_control_xfer+0x66>
10009c2c:	0020      	movs	r0, r4
10009c2e:	bc80      	pop	{r7}
10009c30:	46b8      	mov	r8, r7
10009c32:	bdf0      	pop	{r4, r5, r6, r7, pc}
10009c34:	2273      	movs	r2, #115	; 0x73
10009c36:	4911      	ldr	r1, [pc, #68]	; (10009c7c <tud_control_xfer+0xa0>)
10009c38:	4811      	ldr	r0, [pc, #68]	; (10009c80 <tud_control_xfer+0xa4>)
10009c3a:	f7fe f9f1 	bl	10008020 <__wrap_printf>
10009c3e:	2400      	movs	r4, #0
10009c40:	e7f4      	b.n	10009c2c <tud_control_xfer+0x50>
10009c42:	2279      	movs	r2, #121	; 0x79
10009c44:	490d      	ldr	r1, [pc, #52]	; (10009c7c <tud_control_xfer+0xa0>)
10009c46:	480e      	ldr	r0, [pc, #56]	; (10009c80 <tud_control_xfer+0xa4>)
10009c48:	f7fe f9ea 	bl	10008020 <__wrap_printf>
10009c4c:	e7ee      	b.n	10009c2c <tud_control_xfer+0x50>
10009c4e:	2300      	movs	r3, #0
10009c50:	56e3      	ldrsb	r3, [r4, r3]
10009c52:	2b00      	cmp	r3, #0
10009c54:	db0d      	blt.n	10009c72 <tud_control_xfer+0x96>
10009c56:	2180      	movs	r1, #128	; 0x80
10009c58:	2300      	movs	r3, #0
10009c5a:	2200      	movs	r2, #0
10009c5c:	4640      	mov	r0, r8
10009c5e:	f7ff fbff 	bl	10009460 <usbd_edpt_xfer>
10009c62:	1e04      	subs	r4, r0, #0
10009c64:	d1e2      	bne.n	10009c2c <tud_control_xfer+0x50>
10009c66:	227e      	movs	r2, #126	; 0x7e
10009c68:	4904      	ldr	r1, [pc, #16]	; (10009c7c <tud_control_xfer+0xa0>)
10009c6a:	4805      	ldr	r0, [pc, #20]	; (10009c80 <tud_control_xfer+0xa4>)
10009c6c:	f7fe f9d8 	bl	10008020 <__wrap_printf>
10009c70:	e7dc      	b.n	10009c2c <tud_control_xfer+0x50>
10009c72:	2100      	movs	r1, #0
10009c74:	e7f0      	b.n	10009c58 <tud_control_xfer+0x7c>
10009c76:	46c0      	nop			; (mov r8, r8)
10009c78:	200011a0 	.word	0x200011a0
10009c7c:	1000dc30 	.word	0x1000dc30
10009c80:	1000dac8 	.word	0x1000dac8

10009c84 <usbd_control_reset>:
10009c84:	b510      	push	{r4, lr}
10009c86:	2214      	movs	r2, #20
10009c88:	2100      	movs	r1, #0
10009c8a:	4802      	ldr	r0, [pc, #8]	; (10009c94 <usbd_control_reset+0x10>)
10009c8c:	f7fe f80c 	bl	10007ca8 <__wrap_memset>
10009c90:	bd10      	pop	{r4, pc}
10009c92:	46c0      	nop			; (mov r8, r8)
10009c94:	200011a0 	.word	0x200011a0

10009c98 <usbd_control_set_complete_callback>:
10009c98:	4b01      	ldr	r3, [pc, #4]	; (10009ca0 <usbd_control_set_complete_callback+0x8>)
10009c9a:	6118      	str	r0, [r3, #16]
10009c9c:	4770      	bx	lr
10009c9e:	46c0      	nop			; (mov r8, r8)
10009ca0:	200011a0 	.word	0x200011a0

10009ca4 <usbd_control_set_request>:
10009ca4:	b510      	push	{r4, lr}
10009ca6:	0001      	movs	r1, r0
10009ca8:	4c04      	ldr	r4, [pc, #16]	; (10009cbc <usbd_control_set_request+0x18>)
10009caa:	2208      	movs	r2, #8
10009cac:	0020      	movs	r0, r4
10009cae:	f7fe f801 	bl	10007cb4 <__wrap___aeabi_memcpy>
10009cb2:	2300      	movs	r3, #0
10009cb4:	60a3      	str	r3, [r4, #8]
10009cb6:	81e3      	strh	r3, [r4, #14]
10009cb8:	81a3      	strh	r3, [r4, #12]
10009cba:	bd10      	pop	{r4, pc}
10009cbc:	200011a0 	.word	0x200011a0

10009cc0 <usbd_control_xfer_cb>:
10009cc0:	b570      	push	{r4, r5, r6, lr}
10009cc2:	0005      	movs	r5, r0
10009cc4:	001c      	movs	r4, r3
10009cc6:	09c9      	lsrs	r1, r1, #7
10009cc8:	4b37      	ldr	r3, [pc, #220]	; (10009da8 <usbd_control_xfer_cb+0xe8>)
10009cca:	781b      	ldrb	r3, [r3, #0]
10009ccc:	09db      	lsrs	r3, r3, #7
10009cce:	428b      	cmp	r3, r1
10009cd0:	d019      	beq.n	10009d06 <usbd_control_xfer_cb+0x46>
10009cd2:	2c00      	cmp	r4, #0
10009cd4:	d110      	bne.n	10009cf8 <usbd_control_xfer_cb+0x38>
10009cd6:	4b35      	ldr	r3, [pc, #212]	; (10009dac <usbd_control_xfer_cb+0xec>)
10009cd8:	2b00      	cmp	r3, #0
10009cda:	d002      	beq.n	10009ce2 <usbd_control_xfer_cb+0x22>
10009cdc:	4932      	ldr	r1, [pc, #200]	; (10009da8 <usbd_control_xfer_cb+0xe8>)
10009cde:	f7fe fd93 	bl	10008808 <dcd_edpt0_status_complete>
10009ce2:	4b31      	ldr	r3, [pc, #196]	; (10009da8 <usbd_control_xfer_cb+0xe8>)
10009ce4:	691b      	ldr	r3, [r3, #16]
10009ce6:	2b00      	cmp	r3, #0
10009ce8:	d003      	beq.n	10009cf2 <usbd_control_xfer_cb+0x32>
10009cea:	4a2f      	ldr	r2, [pc, #188]	; (10009da8 <usbd_control_xfer_cb+0xe8>)
10009cec:	2102      	movs	r1, #2
10009cee:	0028      	movs	r0, r5
10009cf0:	4798      	blx	r3
10009cf2:	2401      	movs	r4, #1
10009cf4:	0020      	movs	r0, r4
10009cf6:	bd70      	pop	{r4, r5, r6, pc}
10009cf8:	22ab      	movs	r2, #171	; 0xab
10009cfa:	492d      	ldr	r1, [pc, #180]	; (10009db0 <usbd_control_xfer_cb+0xf0>)
10009cfc:	482d      	ldr	r0, [pc, #180]	; (10009db4 <usbd_control_xfer_cb+0xf4>)
10009cfe:	f7fe f98f 	bl	10008020 <__wrap_printf>
10009d02:	2400      	movs	r4, #0
10009d04:	e7f6      	b.n	10009cf4 <usbd_control_xfer_cb+0x34>
10009d06:	4b28      	ldr	r3, [pc, #160]	; (10009da8 <usbd_control_xfer_cb+0xe8>)
10009d08:	781b      	ldrb	r3, [r3, #0]
10009d0a:	b25b      	sxtb	r3, r3
10009d0c:	2b00      	cmp	r3, #0
10009d0e:	db07      	blt.n	10009d20 <usbd_control_xfer_cb+0x60>
10009d10:	4b25      	ldr	r3, [pc, #148]	; (10009da8 <usbd_control_xfer_cb+0xe8>)
10009d12:	6898      	ldr	r0, [r3, #8]
10009d14:	2800      	cmp	r0, #0
10009d16:	d044      	beq.n	10009da2 <usbd_control_xfer_cb+0xe2>
10009d18:	0022      	movs	r2, r4
10009d1a:	4927      	ldr	r1, [pc, #156]	; (10009db8 <usbd_control_xfer_cb+0xf8>)
10009d1c:	f7fd ffca 	bl	10007cb4 <__wrap___aeabi_memcpy>
10009d20:	4a21      	ldr	r2, [pc, #132]	; (10009da8 <usbd_control_xfer_cb+0xe8>)
10009d22:	89d3      	ldrh	r3, [r2, #14]
10009d24:	191b      	adds	r3, r3, r4
10009d26:	b29b      	uxth	r3, r3
10009d28:	81d3      	strh	r3, [r2, #14]
10009d2a:	6891      	ldr	r1, [r2, #8]
10009d2c:	1909      	adds	r1, r1, r4
10009d2e:	6091      	str	r1, [r2, #8]
10009d30:	88d2      	ldrh	r2, [r2, #6]
10009d32:	4293      	cmp	r3, r2
10009d34:	d001      	beq.n	10009d3a <usbd_control_xfer_cb+0x7a>
10009d36:	2c3f      	cmp	r4, #63	; 0x3f
10009d38:	d828      	bhi.n	10009d8c <usbd_control_xfer_cb+0xcc>
10009d3a:	4b1b      	ldr	r3, [pc, #108]	; (10009da8 <usbd_control_xfer_cb+0xe8>)
10009d3c:	691b      	ldr	r3, [r3, #16]
10009d3e:	2b00      	cmp	r3, #0
10009d40:	d005      	beq.n	10009d4e <usbd_control_xfer_cb+0x8e>
10009d42:	4a19      	ldr	r2, [pc, #100]	; (10009da8 <usbd_control_xfer_cb+0xe8>)
10009d44:	2101      	movs	r1, #1
10009d46:	0028      	movs	r0, r5
10009d48:	4798      	blx	r3
10009d4a:	2800      	cmp	r0, #0
10009d4c:	d014      	beq.n	10009d78 <usbd_control_xfer_cb+0xb8>
10009d4e:	4b16      	ldr	r3, [pc, #88]	; (10009da8 <usbd_control_xfer_cb+0xe8>)
10009d50:	781b      	ldrb	r3, [r3, #0]
10009d52:	b25b      	sxtb	r3, r3
10009d54:	2b00      	cmp	r3, #0
10009d56:	db0d      	blt.n	10009d74 <usbd_control_xfer_cb+0xb4>
10009d58:	2180      	movs	r1, #128	; 0x80
10009d5a:	2300      	movs	r3, #0
10009d5c:	2200      	movs	r2, #0
10009d5e:	0028      	movs	r0, r5
10009d60:	f7ff fb7e 	bl	10009460 <usbd_edpt_xfer>
10009d64:	1e04      	subs	r4, r0, #0
10009d66:	d1c5      	bne.n	10009cf4 <usbd_control_xfer_cb+0x34>
10009d68:	22d8      	movs	r2, #216	; 0xd8
10009d6a:	4911      	ldr	r1, [pc, #68]	; (10009db0 <usbd_control_xfer_cb+0xf0>)
10009d6c:	4811      	ldr	r0, [pc, #68]	; (10009db4 <usbd_control_xfer_cb+0xf4>)
10009d6e:	f7fe f957 	bl	10008020 <__wrap_printf>
10009d72:	e7bf      	b.n	10009cf4 <usbd_control_xfer_cb+0x34>
10009d74:	2100      	movs	r1, #0
10009d76:	e7f0      	b.n	10009d5a <usbd_control_xfer_cb+0x9a>
10009d78:	2100      	movs	r1, #0
10009d7a:	0028      	movs	r0, r5
10009d7c:	f7fe fd8e 	bl	1000889c <dcd_edpt_stall>
10009d80:	2180      	movs	r1, #128	; 0x80
10009d82:	0028      	movs	r0, r5
10009d84:	f7fe fd8a 	bl	1000889c <dcd_edpt_stall>
10009d88:	2401      	movs	r4, #1
10009d8a:	e7b3      	b.n	10009cf4 <usbd_control_xfer_cb+0x34>
10009d8c:	0028      	movs	r0, r5
10009d8e:	f7ff fedd 	bl	10009b4c <_data_stage_xact>
10009d92:	1e04      	subs	r4, r0, #0
10009d94:	d1ae      	bne.n	10009cf4 <usbd_control_xfer_cb+0x34>
10009d96:	22e3      	movs	r2, #227	; 0xe3
10009d98:	4905      	ldr	r1, [pc, #20]	; (10009db0 <usbd_control_xfer_cb+0xf0>)
10009d9a:	4806      	ldr	r0, [pc, #24]	; (10009db4 <usbd_control_xfer_cb+0xf4>)
10009d9c:	f7fe f940 	bl	10008020 <__wrap_printf>
10009da0:	e7a8      	b.n	10009cf4 <usbd_control_xfer_cb+0x34>
10009da2:	2400      	movs	r4, #0
10009da4:	e7a6      	b.n	10009cf4 <usbd_control_xfer_cb+0x34>
10009da6:	46c0      	nop			; (mov r8, r8)
10009da8:	200011a0 	.word	0x200011a0
10009dac:	10008809 	.word	0x10008809
10009db0:	1000dc18 	.word	0x1000dc18
10009db4:	1000dac8 	.word	0x1000dac8
10009db8:	200011bc 	.word	0x200011bc

10009dbc <_prep_out_transaction>:
10009dbc:	b570      	push	{r4, r5, r6, lr}
10009dbe:	0004      	movs	r4, r0
10009dc0:	0005      	movs	r5, r0
10009dc2:	3510      	adds	r5, #16
10009dc4:	0028      	movs	r0, r5
10009dc6:	f000 fe3e 	bl	1000aa46 <tu_fifo_remaining>
10009dca:	283f      	cmp	r0, #63	; 0x3f
10009dcc:	d800      	bhi.n	10009dd0 <_prep_out_transaction+0x14>
10009dce:	bd70      	pop	{r4, r5, r6, pc}
10009dd0:	78e1      	ldrb	r1, [r4, #3]
10009dd2:	2000      	movs	r0, #0
10009dd4:	f7ff faca 	bl	1000936c <usbd_edpt_claim>
10009dd8:	2800      	cmp	r0, #0
10009dda:	d0f8      	beq.n	10009dce <_prep_out_transaction+0x12>
10009ddc:	0028      	movs	r0, r5
10009dde:	f000 fe32 	bl	1000aa46 <tu_fifo_remaining>
10009de2:	283f      	cmp	r0, #63	; 0x3f
10009de4:	d908      	bls.n	10009df8 <_prep_out_transaction+0x3c>
10009de6:	2396      	movs	r3, #150	; 0x96
10009de8:	009b      	lsls	r3, r3, #2
10009dea:	18e2      	adds	r2, r4, r3
10009dec:	78e1      	ldrb	r1, [r4, #3]
10009dee:	2340      	movs	r3, #64	; 0x40
10009df0:	2000      	movs	r0, #0
10009df2:	f7ff fb35 	bl	10009460 <usbd_edpt_xfer>
10009df6:	e7ea      	b.n	10009dce <_prep_out_transaction+0x12>
10009df8:	78e1      	ldrb	r1, [r4, #3]
10009dfa:	2000      	movs	r0, #0
10009dfc:	f7ff fafc 	bl	100093f8 <usbd_edpt_release>
10009e00:	e7e5      	b.n	10009dce <_prep_out_transaction+0x12>
	...

10009e04 <tud_cdc_n_connected>:
10009e04:	b510      	push	{r4, lr}
10009e06:	0004      	movs	r4, r0
10009e08:	f7ff f86e 	bl	10008ee8 <tud_mounted>
10009e0c:	2800      	cmp	r0, #0
10009e0e:	d10c      	bne.n	10009e2a <tud_cdc_n_connected+0x26>
10009e10:	2200      	movs	r2, #0
10009e12:	2a00      	cmp	r2, #0
10009e14:	d011      	beq.n	10009e3a <tud_cdc_n_connected+0x36>
10009e16:	23b6      	movs	r3, #182	; 0xb6
10009e18:	009b      	lsls	r3, r3, #2
10009e1a:	4363      	muls	r3, r4
10009e1c:	4809      	ldr	r0, [pc, #36]	; (10009e44 <tud_cdc_n_connected+0x40>)
10009e1e:	18c0      	adds	r0, r0, r3
10009e20:	7903      	ldrb	r3, [r0, #4]
10009e22:	07db      	lsls	r3, r3, #31
10009e24:	d50b      	bpl.n	10009e3e <tud_cdc_n_connected+0x3a>
10009e26:	2001      	movs	r0, #1
10009e28:	e008      	b.n	10009e3c <tud_cdc_n_connected+0x38>
10009e2a:	f7ff f865 	bl	10008ef8 <tud_suspended>
10009e2e:	2800      	cmp	r0, #0
10009e30:	d101      	bne.n	10009e36 <tud_cdc_n_connected+0x32>
10009e32:	2201      	movs	r2, #1
10009e34:	e7ed      	b.n	10009e12 <tud_cdc_n_connected+0xe>
10009e36:	2200      	movs	r2, #0
10009e38:	e7eb      	b.n	10009e12 <tud_cdc_n_connected+0xe>
10009e3a:	2000      	movs	r0, #0
10009e3c:	bd10      	pop	{r4, pc}
10009e3e:	2000      	movs	r0, #0
10009e40:	e7fc      	b.n	10009e3c <tud_cdc_n_connected+0x38>
10009e42:	46c0      	nop			; (mov r8, r8)
10009e44:	20000ec8 	.word	0x20000ec8

10009e48 <tud_cdc_n_available>:
10009e48:	b510      	push	{r4, lr}
10009e4a:	23b6      	movs	r3, #182	; 0xb6
10009e4c:	009b      	lsls	r3, r3, #2
10009e4e:	4358      	muls	r0, r3
10009e50:	3010      	adds	r0, #16
10009e52:	4b02      	ldr	r3, [pc, #8]	; (10009e5c <tud_cdc_n_available+0x14>)
10009e54:	18c0      	adds	r0, r0, r3
10009e56:	f000 fddb 	bl	1000aa10 <tu_fifo_count>
10009e5a:	bd10      	pop	{r4, pc}
10009e5c:	20000ec8 	.word	0x20000ec8

10009e60 <tud_cdc_n_read>:
10009e60:	b570      	push	{r4, r5, r6, lr}
10009e62:	23b6      	movs	r3, #182	; 0xb6
10009e64:	009b      	lsls	r3, r3, #2
10009e66:	4358      	muls	r0, r3
10009e68:	4b06      	ldr	r3, [pc, #24]	; (10009e84 <tud_cdc_n_read+0x24>)
10009e6a:	18c5      	adds	r5, r0, r3
10009e6c:	b292      	uxth	r2, r2
10009e6e:	3010      	adds	r0, #16
10009e70:	18c0      	adds	r0, r0, r3
10009e72:	f000 fe19 	bl	1000aaa8 <tu_fifo_read_n>
10009e76:	0004      	movs	r4, r0
10009e78:	0028      	movs	r0, r5
10009e7a:	f7ff ff9f 	bl	10009dbc <_prep_out_transaction>
10009e7e:	0020      	movs	r0, r4
10009e80:	bd70      	pop	{r4, r5, r6, pc}
10009e82:	46c0      	nop			; (mov r8, r8)
10009e84:	20000ec8 	.word	0x20000ec8

10009e88 <tud_cdc_n_write_flush>:
10009e88:	b570      	push	{r4, r5, r6, lr}
10009e8a:	0005      	movs	r5, r0
10009e8c:	f7ff f82c 	bl	10008ee8 <tud_mounted>
10009e90:	2800      	cmp	r0, #0
10009e92:	d104      	bne.n	10009e9e <tud_cdc_n_write_flush+0x16>
10009e94:	2300      	movs	r3, #0
10009e96:	2b00      	cmp	r3, #0
10009e98:	d109      	bne.n	10009eae <tud_cdc_n_write_flush+0x26>
10009e9a:	2000      	movs	r0, #0
10009e9c:	bd70      	pop	{r4, r5, r6, pc}
10009e9e:	f7ff f82b 	bl	10008ef8 <tud_suspended>
10009ea2:	2800      	cmp	r0, #0
10009ea4:	d101      	bne.n	10009eaa <tud_cdc_n_write_flush+0x22>
10009ea6:	2301      	movs	r3, #1
10009ea8:	e7f5      	b.n	10009e96 <tud_cdc_n_write_flush+0xe>
10009eaa:	2300      	movs	r3, #0
10009eac:	e7f3      	b.n	10009e96 <tud_cdc_n_write_flush+0xe>
10009eae:	24b6      	movs	r4, #182	; 0xb6
10009eb0:	00a4      	lsls	r4, r4, #2
10009eb2:	436c      	muls	r4, r5
10009eb4:	3428      	adds	r4, #40	; 0x28
10009eb6:	4b24      	ldr	r3, [pc, #144]	; (10009f48 <tud_cdc_n_write_flush+0xc0>)
10009eb8:	18e4      	adds	r4, r4, r3
10009eba:	3404      	adds	r4, #4
10009ebc:	0020      	movs	r0, r4
10009ebe:	f000 fda7 	bl	1000aa10 <tu_fifo_count>
10009ec2:	2800      	cmp	r0, #0
10009ec4:	d101      	bne.n	10009eca <tud_cdc_n_write_flush+0x42>
10009ec6:	2000      	movs	r0, #0
10009ec8:	e7e8      	b.n	10009e9c <tud_cdc_n_write_flush+0x14>
10009eca:	22b6      	movs	r2, #182	; 0xb6
10009ecc:	0092      	lsls	r2, r2, #2
10009ece:	436a      	muls	r2, r5
10009ed0:	4b1d      	ldr	r3, [pc, #116]	; (10009f48 <tud_cdc_n_write_flush+0xc0>)
10009ed2:	189b      	adds	r3, r3, r2
10009ed4:	7899      	ldrb	r1, [r3, #2]
10009ed6:	2000      	movs	r0, #0
10009ed8:	f7ff fa48 	bl	1000936c <usbd_edpt_claim>
10009edc:	2800      	cmp	r0, #0
10009ede:	d101      	bne.n	10009ee4 <tud_cdc_n_write_flush+0x5c>
10009ee0:	2000      	movs	r0, #0
10009ee2:	e7db      	b.n	10009e9c <tud_cdc_n_write_flush+0x14>
10009ee4:	26b6      	movs	r6, #182	; 0xb6
10009ee6:	00b6      	lsls	r6, r6, #2
10009ee8:	436e      	muls	r6, r5
10009eea:	23a6      	movs	r3, #166	; 0xa6
10009eec:	009b      	lsls	r3, r3, #2
10009eee:	469c      	mov	ip, r3
10009ef0:	4466      	add	r6, ip
10009ef2:	4b15      	ldr	r3, [pc, #84]	; (10009f48 <tud_cdc_n_write_flush+0xc0>)
10009ef4:	18f6      	adds	r6, r6, r3
10009ef6:	2240      	movs	r2, #64	; 0x40
10009ef8:	0031      	movs	r1, r6
10009efa:	0020      	movs	r0, r4
10009efc:	f000 fdd4 	bl	1000aaa8 <tu_fifo_read_n>
10009f00:	1e04      	subs	r4, r0, #0
10009f02:	d015      	beq.n	10009f30 <tud_cdc_n_write_flush+0xa8>
10009f04:	20b6      	movs	r0, #182	; 0xb6
10009f06:	0080      	lsls	r0, r0, #2
10009f08:	4368      	muls	r0, r5
10009f0a:	4d0f      	ldr	r5, [pc, #60]	; (10009f48 <tud_cdc_n_write_flush+0xc0>)
10009f0c:	182d      	adds	r5, r5, r0
10009f0e:	78a9      	ldrb	r1, [r5, #2]
10009f10:	0023      	movs	r3, r4
10009f12:	0032      	movs	r2, r6
10009f14:	2000      	movs	r0, #0
10009f16:	f7ff faa3 	bl	10009460 <usbd_edpt_xfer>
10009f1a:	2800      	cmp	r0, #0
10009f1c:	d001      	beq.n	10009f22 <tud_cdc_n_write_flush+0x9a>
10009f1e:	0020      	movs	r0, r4
10009f20:	e7bc      	b.n	10009e9c <tud_cdc_n_write_flush+0x14>
10009f22:	22c8      	movs	r2, #200	; 0xc8
10009f24:	4909      	ldr	r1, [pc, #36]	; (10009f4c <tud_cdc_n_write_flush+0xc4>)
10009f26:	480a      	ldr	r0, [pc, #40]	; (10009f50 <tud_cdc_n_write_flush+0xc8>)
10009f28:	f7fe f87a 	bl	10008020 <__wrap_printf>
10009f2c:	2000      	movs	r0, #0
10009f2e:	e7b5      	b.n	10009e9c <tud_cdc_n_write_flush+0x14>
10009f30:	20b6      	movs	r0, #182	; 0xb6
10009f32:	0080      	lsls	r0, r0, #2
10009f34:	4368      	muls	r0, r5
10009f36:	4d04      	ldr	r5, [pc, #16]	; (10009f48 <tud_cdc_n_write_flush+0xc0>)
10009f38:	182d      	adds	r5, r5, r0
10009f3a:	78a9      	ldrb	r1, [r5, #2]
10009f3c:	2000      	movs	r0, #0
10009f3e:	f7ff fa5b 	bl	100093f8 <usbd_edpt_release>
10009f42:	2000      	movs	r0, #0
10009f44:	e7aa      	b.n	10009e9c <tud_cdc_n_write_flush+0x14>
10009f46:	46c0      	nop			; (mov r8, r8)
10009f48:	20000ec8 	.word	0x20000ec8
10009f4c:	1000dc60 	.word	0x1000dc60
10009f50:	1000dac8 	.word	0x1000dac8

10009f54 <tud_cdc_n_write>:
10009f54:	b570      	push	{r4, r5, r6, lr}
10009f56:	0005      	movs	r5, r0
10009f58:	24b6      	movs	r4, #182	; 0xb6
10009f5a:	00a4      	lsls	r4, r4, #2
10009f5c:	4344      	muls	r4, r0
10009f5e:	3428      	adds	r4, #40	; 0x28
10009f60:	4b09      	ldr	r3, [pc, #36]	; (10009f88 <tud_cdc_n_write+0x34>)
10009f62:	18e4      	adds	r4, r4, r3
10009f64:	3404      	adds	r4, #4
10009f66:	b292      	uxth	r2, r2
10009f68:	0020      	movs	r0, r4
10009f6a:	f000 fdd8 	bl	1000ab1e <tu_fifo_write_n>
10009f6e:	0006      	movs	r6, r0
10009f70:	0020      	movs	r0, r4
10009f72:	f000 fd4d 	bl	1000aa10 <tu_fifo_count>
10009f76:	283f      	cmp	r0, #63	; 0x3f
10009f78:	d801      	bhi.n	10009f7e <tud_cdc_n_write+0x2a>
10009f7a:	0030      	movs	r0, r6
10009f7c:	bd70      	pop	{r4, r5, r6, pc}
10009f7e:	0028      	movs	r0, r5
10009f80:	f7ff ff82 	bl	10009e88 <tud_cdc_n_write_flush>
10009f84:	e7f9      	b.n	10009f7a <tud_cdc_n_write+0x26>
10009f86:	46c0      	nop			; (mov r8, r8)
10009f88:	20000ec8 	.word	0x20000ec8

10009f8c <tud_cdc_n_write_available>:
10009f8c:	b510      	push	{r4, lr}
10009f8e:	23b6      	movs	r3, #182	; 0xb6
10009f90:	009b      	lsls	r3, r3, #2
10009f92:	4358      	muls	r0, r3
10009f94:	3028      	adds	r0, #40	; 0x28
10009f96:	4b03      	ldr	r3, [pc, #12]	; (10009fa4 <tud_cdc_n_write_available+0x18>)
10009f98:	18c0      	adds	r0, r0, r3
10009f9a:	3004      	adds	r0, #4
10009f9c:	f000 fd53 	bl	1000aa46 <tu_fifo_remaining>
10009fa0:	bd10      	pop	{r4, pc}
10009fa2:	46c0      	nop			; (mov r8, r8)
10009fa4:	20000ec8 	.word	0x20000ec8

10009fa8 <cdcd_init>:
10009fa8:	b5f0      	push	{r4, r5, r6, r7, lr}
10009faa:	46ce      	mov	lr, r9
10009fac:	4647      	mov	r7, r8
10009fae:	b580      	push	{r7, lr}
10009fb0:	b083      	sub	sp, #12
10009fb2:	22b6      	movs	r2, #182	; 0xb6
10009fb4:	0092      	lsls	r2, r2, #2
10009fb6:	2100      	movs	r1, #0
10009fb8:	4828      	ldr	r0, [pc, #160]	; (1000a05c <cdcd_init+0xb4>)
10009fba:	f7fd fe75 	bl	10007ca8 <__wrap_memset>
10009fbe:	2600      	movs	r6, #0
10009fc0:	2e00      	cmp	r6, #0
10009fc2:	d004      	beq.n	10009fce <cdcd_init+0x26>
10009fc4:	b003      	add	sp, #12
10009fc6:	bcc0      	pop	{r6, r7}
10009fc8:	46b9      	mov	r9, r7
10009fca:	46b0      	mov	r8, r6
10009fcc:	bdf0      	pop	{r4, r5, r6, r7, pc}
10009fce:	4f23      	ldr	r7, [pc, #140]	; (1000a05c <cdcd_init+0xb4>)
10009fd0:	24b6      	movs	r4, #182	; 0xb6
10009fd2:	00a4      	lsls	r4, r4, #2
10009fd4:	4374      	muls	r4, r6
10009fd6:	193d      	adds	r5, r7, r4
10009fd8:	23ff      	movs	r3, #255	; 0xff
10009fda:	716b      	strb	r3, [r5, #5]
10009fdc:	2300      	movs	r3, #0
10009fde:	4698      	mov	r8, r3
10009fe0:	4a1f      	ldr	r2, [pc, #124]	; (1000a060 <cdcd_init+0xb8>)
10009fe2:	80ea      	strh	r2, [r5, #6]
10009fe4:	2201      	movs	r2, #1
10009fe6:	812a      	strh	r2, [r5, #8]
10009fe8:	72ab      	strb	r3, [r5, #10]
10009fea:	72eb      	strb	r3, [r5, #11]
10009fec:	2308      	movs	r3, #8
10009fee:	732b      	strb	r3, [r5, #12]
10009ff0:	0021      	movs	r1, r4
10009ff2:	3148      	adds	r1, #72	; 0x48
10009ff4:	19c9      	adds	r1, r1, r7
10009ff6:	33f8      	adds	r3, #248	; 0xf8
10009ff8:	4699      	mov	r9, r3
10009ffa:	0020      	movs	r0, r4
10009ffc:	3010      	adds	r0, #16
10009ffe:	19c0      	adds	r0, r0, r7
1000a000:	4643      	mov	r3, r8
1000a002:	9300      	str	r3, [sp, #0]
1000a004:	3301      	adds	r3, #1
1000a006:	464a      	mov	r2, r9
1000a008:	f000 fcc9 	bl	1000a99e <tu_fifo_config>
1000a00c:	0021      	movs	r1, r4
1000a00e:	3149      	adds	r1, #73	; 0x49
1000a010:	31ff      	adds	r1, #255	; 0xff
1000a012:	19c9      	adds	r1, r1, r7
1000a014:	0020      	movs	r0, r4
1000a016:	3028      	adds	r0, #40	; 0x28
1000a018:	19c0      	adds	r0, r0, r7
1000a01a:	3004      	adds	r0, #4
1000a01c:	2301      	movs	r3, #1
1000a01e:	9300      	str	r3, [sp, #0]
1000a020:	464a      	mov	r2, r9
1000a022:	f000 fcbc 	bl	1000a99e <tu_fifo_config>
1000a026:	2392      	movs	r3, #146	; 0x92
1000a028:	009b      	lsls	r3, r3, #2
1000a02a:	18e3      	adds	r3, r4, r3
1000a02c:	4699      	mov	r9, r3
1000a02e:	44b9      	add	r9, r7
1000a030:	4648      	mov	r0, r9
1000a032:	f7fb faeb 	bl	1000560c <mutex_init>
1000a036:	4643      	mov	r3, r8
1000a038:	626b      	str	r3, [r5, #36]	; 0x24
1000a03a:	464b      	mov	r3, r9
1000a03c:	62ab      	str	r3, [r5, #40]	; 0x28
1000a03e:	2394      	movs	r3, #148	; 0x94
1000a040:	009b      	lsls	r3, r3, #2
1000a042:	469c      	mov	ip, r3
1000a044:	4464      	add	r4, ip
1000a046:	19e4      	adds	r4, r4, r7
1000a048:	0020      	movs	r0, r4
1000a04a:	f7fb fadf 	bl	1000560c <mutex_init>
1000a04e:	642c      	str	r4, [r5, #64]	; 0x40
1000a050:	4643      	mov	r3, r8
1000a052:	646b      	str	r3, [r5, #68]	; 0x44
1000a054:	3601      	adds	r6, #1
1000a056:	b2f6      	uxtb	r6, r6
1000a058:	e7b2      	b.n	10009fc0 <cdcd_init+0x18>
1000a05a:	46c0      	nop			; (mov r8, r8)
1000a05c:	20000ec8 	.word	0x20000ec8
1000a060:	ffffc200 	.word	0xffffc200

1000a064 <cdcd_reset>:
1000a064:	b570      	push	{r4, r5, r6, lr}
1000a066:	2500      	movs	r5, #0
1000a068:	2d00      	cmp	r5, #0
1000a06a:	d000      	beq.n	1000a06e <cdcd_reset+0xa>
1000a06c:	bd70      	pop	{r4, r5, r6, pc}
1000a06e:	24b6      	movs	r4, #182	; 0xb6
1000a070:	00a4      	lsls	r4, r4, #2
1000a072:	436c      	muls	r4, r5
1000a074:	4e0b      	ldr	r6, [pc, #44]	; (1000a0a4 <cdcd_reset+0x40>)
1000a076:	19a0      	adds	r0, r4, r6
1000a078:	2205      	movs	r2, #5
1000a07a:	2100      	movs	r1, #0
1000a07c:	f7fd fe14 	bl	10007ca8 <__wrap_memset>
1000a080:	0020      	movs	r0, r4
1000a082:	3010      	adds	r0, #16
1000a084:	1980      	adds	r0, r0, r6
1000a086:	f000 fd4f 	bl	1000ab28 <tu_fifo_clear>
1000a08a:	3428      	adds	r4, #40	; 0x28
1000a08c:	19a4      	adds	r4, r4, r6
1000a08e:	3404      	adds	r4, #4
1000a090:	0020      	movs	r0, r4
1000a092:	f000 fd49 	bl	1000ab28 <tu_fifo_clear>
1000a096:	2101      	movs	r1, #1
1000a098:	0020      	movs	r0, r4
1000a09a:	f000 fd6b 	bl	1000ab74 <tu_fifo_set_overwritable>
1000a09e:	3501      	adds	r5, #1
1000a0a0:	b2ed      	uxtb	r5, r5
1000a0a2:	e7e1      	b.n	1000a068 <cdcd_reset+0x4>
1000a0a4:	20000ec8 	.word	0x20000ec8

1000a0a8 <cdcd_open>:
1000a0a8:	b5f0      	push	{r4, r5, r6, r7, lr}
1000a0aa:	b083      	sub	sp, #12
1000a0ac:	0006      	movs	r6, r0
1000a0ae:	794b      	ldrb	r3, [r1, #5]
1000a0b0:	2b02      	cmp	r3, #2
1000a0b2:	d168      	bne.n	1000a186 <cdcd_open+0xde>
1000a0b4:	798b      	ldrb	r3, [r1, #6]
1000a0b6:	2b02      	cmp	r3, #2
1000a0b8:	d169      	bne.n	1000a18e <cdcd_open+0xe6>
1000a0ba:	2300      	movs	r3, #0
1000a0bc:	2b00      	cmp	r3, #0
1000a0be:	d008      	beq.n	1000a0d2 <cdcd_open+0x2a>
1000a0c0:	2700      	movs	r7, #0
1000a0c2:	2f00      	cmp	r7, #0
1000a0c4:	d013      	beq.n	1000a0ee <cdcd_open+0x46>
1000a0c6:	788b      	ldrb	r3, [r1, #2]
1000a0c8:	703b      	strb	r3, [r7, #0]
1000a0ca:	780c      	ldrb	r4, [r1, #0]
1000a0cc:	190c      	adds	r4, r1, r4
1000a0ce:	2509      	movs	r5, #9
1000a0d0:	e019      	b.n	1000a106 <cdcd_open+0x5e>
1000a0d2:	24b6      	movs	r4, #182	; 0xb6
1000a0d4:	00a4      	lsls	r4, r4, #2
1000a0d6:	435c      	muls	r4, r3
1000a0d8:	482e      	ldr	r0, [pc, #184]	; (1000a194 <cdcd_open+0xec>)
1000a0da:	1900      	adds	r0, r0, r4
1000a0dc:	7880      	ldrb	r0, [r0, #2]
1000a0de:	2800      	cmp	r0, #0
1000a0e0:	d002      	beq.n	1000a0e8 <cdcd_open+0x40>
1000a0e2:	3301      	adds	r3, #1
1000a0e4:	b2db      	uxtb	r3, r3
1000a0e6:	e7e9      	b.n	1000a0bc <cdcd_open+0x14>
1000a0e8:	4f2a      	ldr	r7, [pc, #168]	; (1000a194 <cdcd_open+0xec>)
1000a0ea:	19e7      	adds	r7, r4, r7
1000a0ec:	e7e9      	b.n	1000a0c2 <cdcd_open+0x1a>
1000a0ee:	228f      	movs	r2, #143	; 0x8f
1000a0f0:	0052      	lsls	r2, r2, #1
1000a0f2:	4929      	ldr	r1, [pc, #164]	; (1000a198 <cdcd_open+0xf0>)
1000a0f4:	4829      	ldr	r0, [pc, #164]	; (1000a19c <cdcd_open+0xf4>)
1000a0f6:	f7fd ff93 	bl	10008020 <__wrap_printf>
1000a0fa:	2500      	movs	r5, #0
1000a0fc:	e044      	b.n	1000a188 <cdcd_open+0xe0>
1000a0fe:	7821      	ldrb	r1, [r4, #0]
1000a100:	194d      	adds	r5, r1, r5
1000a102:	b2ad      	uxth	r5, r5
1000a104:	1864      	adds	r4, r4, r1
1000a106:	7863      	ldrb	r3, [r4, #1]
1000a108:	2b24      	cmp	r3, #36	; 0x24
1000a10a:	d101      	bne.n	1000a110 <cdcd_open+0x68>
1000a10c:	4295      	cmp	r5, r2
1000a10e:	d9f6      	bls.n	1000a0fe <cdcd_open+0x56>
1000a110:	2b05      	cmp	r3, #5
1000a112:	d009      	beq.n	1000a128 <cdcd_open+0x80>
1000a114:	7863      	ldrb	r3, [r4, #1]
1000a116:	2b04      	cmp	r3, #4
1000a118:	d102      	bne.n	1000a120 <cdcd_open+0x78>
1000a11a:	7963      	ldrb	r3, [r4, #5]
1000a11c:	2b0a      	cmp	r3, #10
1000a11e:	d018      	beq.n	1000a152 <cdcd_open+0xaa>
1000a120:	0038      	movs	r0, r7
1000a122:	f7ff fe4b 	bl	10009dbc <_prep_out_transaction>
1000a126:	e02f      	b.n	1000a188 <cdcd_open+0xe0>
1000a128:	0021      	movs	r1, r4
1000a12a:	0030      	movs	r0, r6
1000a12c:	f7ff f8ac 	bl	10009288 <usbd_edpt_open>
1000a130:	2800      	cmp	r0, #0
1000a132:	d006      	beq.n	1000a142 <cdcd_open+0x9a>
1000a134:	78a3      	ldrb	r3, [r4, #2]
1000a136:	707b      	strb	r3, [r7, #1]
1000a138:	7822      	ldrb	r2, [r4, #0]
1000a13a:	1955      	adds	r5, r2, r5
1000a13c:	b2ad      	uxth	r5, r5
1000a13e:	18a4      	adds	r4, r4, r2
1000a140:	e7e8      	b.n	1000a114 <cdcd_open+0x6c>
1000a142:	2299      	movs	r2, #153	; 0x99
1000a144:	0052      	lsls	r2, r2, #1
1000a146:	4914      	ldr	r1, [pc, #80]	; (1000a198 <cdcd_open+0xf0>)
1000a148:	4814      	ldr	r0, [pc, #80]	; (1000a19c <cdcd_open+0xf4>)
1000a14a:	f7fd ff69 	bl	10008020 <__wrap_printf>
1000a14e:	2500      	movs	r5, #0
1000a150:	e01a      	b.n	1000a188 <cdcd_open+0xe0>
1000a152:	7821      	ldrb	r1, [r4, #0]
1000a154:	194d      	adds	r5, r1, r5
1000a156:	b2ad      	uxth	r5, r5
1000a158:	1861      	adds	r1, r4, r1
1000a15a:	1cbb      	adds	r3, r7, #2
1000a15c:	9301      	str	r3, [sp, #4]
1000a15e:	1cfb      	adds	r3, r7, #3
1000a160:	9300      	str	r3, [sp, #0]
1000a162:	2302      	movs	r3, #2
1000a164:	2202      	movs	r2, #2
1000a166:	0030      	movs	r0, r6
1000a168:	f7ff f8ba 	bl	100092e0 <usbd_open_edpt_pair>
1000a16c:	2800      	cmp	r0, #0
1000a16e:	d002      	beq.n	1000a176 <cdcd_open+0xce>
1000a170:	350e      	adds	r5, #14
1000a172:	b2ad      	uxth	r5, r5
1000a174:	e7d4      	b.n	1000a120 <cdcd_open+0x78>
1000a176:	22a1      	movs	r2, #161	; 0xa1
1000a178:	0052      	lsls	r2, r2, #1
1000a17a:	4907      	ldr	r1, [pc, #28]	; (1000a198 <cdcd_open+0xf0>)
1000a17c:	4807      	ldr	r0, [pc, #28]	; (1000a19c <cdcd_open+0xf4>)
1000a17e:	f7fd ff4f 	bl	10008020 <__wrap_printf>
1000a182:	2500      	movs	r5, #0
1000a184:	e000      	b.n	1000a188 <cdcd_open+0xe0>
1000a186:	2500      	movs	r5, #0
1000a188:	0028      	movs	r0, r5
1000a18a:	b003      	add	sp, #12
1000a18c:	bdf0      	pop	{r4, r5, r6, r7, pc}
1000a18e:	2500      	movs	r5, #0
1000a190:	e7fa      	b.n	1000a188 <cdcd_open+0xe0>
1000a192:	46c0      	nop			; (mov r8, r8)
1000a194:	20000ec8 	.word	0x20000ec8
1000a198:	1000dc54 	.word	0x1000dc54
1000a19c:	1000dac8 	.word	0x1000dac8

1000a1a0 <cdcd_control_xfer_cb>:
1000a1a0:	b5f8      	push	{r3, r4, r5, r6, r7, lr}
1000a1a2:	0014      	movs	r4, r2
1000a1a4:	7812      	ldrb	r2, [r2, #0]
1000a1a6:	2360      	movs	r3, #96	; 0x60
1000a1a8:	4013      	ands	r3, r2
1000a1aa:	2b20      	cmp	r3, #32
1000a1ac:	d000      	beq.n	1000a1b0 <cdcd_control_xfer_cb+0x10>
1000a1ae:	e07f      	b.n	1000a2b0 <cdcd_control_xfer_cb+0x110>
1000a1b0:	4a44      	ldr	r2, [pc, #272]	; (1000a2c4 <cdcd_control_xfer_cb+0x124>)
1000a1b2:	2500      	movs	r5, #0
1000a1b4:	2d00      	cmp	r5, #0
1000a1b6:	d000      	beq.n	1000a1ba <cdcd_control_xfer_cb+0x1a>
1000a1b8:	e07c      	b.n	1000a2b4 <cdcd_control_xfer_cb+0x114>
1000a1ba:	7816      	ldrb	r6, [r2, #0]
1000a1bc:	7927      	ldrb	r7, [r4, #4]
1000a1be:	7963      	ldrb	r3, [r4, #5]
1000a1c0:	021b      	lsls	r3, r3, #8
1000a1c2:	433b      	orrs	r3, r7
1000a1c4:	429e      	cmp	r6, r3
1000a1c6:	d006      	beq.n	1000a1d6 <cdcd_control_xfer_cb+0x36>
1000a1c8:	3501      	adds	r5, #1
1000a1ca:	b2ed      	uxtb	r5, r5
1000a1cc:	23b6      	movs	r3, #182	; 0xb6
1000a1ce:	009b      	lsls	r3, r3, #2
1000a1d0:	469c      	mov	ip, r3
1000a1d2:	4462      	add	r2, ip
1000a1d4:	e7ee      	b.n	1000a1b4 <cdcd_control_xfer_cb+0x14>
1000a1d6:	7863      	ldrb	r3, [r4, #1]
1000a1d8:	2b22      	cmp	r3, #34	; 0x22
1000a1da:	d031      	beq.n	1000a240 <cdcd_control_xfer_cb+0xa0>
1000a1dc:	d809      	bhi.n	1000a1f2 <cdcd_control_xfer_cb+0x52>
1000a1de:	2b20      	cmp	r3, #32
1000a1e0:	d011      	beq.n	1000a206 <cdcd_control_xfer_cb+0x66>
1000a1e2:	2b21      	cmp	r3, #33	; 0x21
1000a1e4:	d103      	bne.n	1000a1ee <cdcd_control_xfer_cb+0x4e>
1000a1e6:	2900      	cmp	r1, #0
1000a1e8:	d023      	beq.n	1000a232 <cdcd_control_xfer_cb+0x92>
1000a1ea:	2001      	movs	r0, #1
1000a1ec:	e061      	b.n	1000a2b2 <cdcd_control_xfer_cb+0x112>
1000a1ee:	2000      	movs	r0, #0
1000a1f0:	e05f      	b.n	1000a2b2 <cdcd_control_xfer_cb+0x112>
1000a1f2:	2b23      	cmp	r3, #35	; 0x23
1000a1f4:	d105      	bne.n	1000a202 <cdcd_control_xfer_cb+0x62>
1000a1f6:	2900      	cmp	r1, #0
1000a1f8:	d049      	beq.n	1000a28e <cdcd_control_xfer_cb+0xee>
1000a1fa:	2902      	cmp	r1, #2
1000a1fc:	d04c      	beq.n	1000a298 <cdcd_control_xfer_cb+0xf8>
1000a1fe:	2001      	movs	r0, #1
1000a200:	e057      	b.n	1000a2b2 <cdcd_control_xfer_cb+0x112>
1000a202:	2000      	movs	r0, #0
1000a204:	e055      	b.n	1000a2b2 <cdcd_control_xfer_cb+0x112>
1000a206:	2900      	cmp	r1, #0
1000a208:	d003      	beq.n	1000a212 <cdcd_control_xfer_cb+0x72>
1000a20a:	2902      	cmp	r1, #2
1000a20c:	d008      	beq.n	1000a220 <cdcd_control_xfer_cb+0x80>
1000a20e:	2001      	movs	r0, #1
1000a210:	e04f      	b.n	1000a2b2 <cdcd_control_xfer_cb+0x112>
1000a212:	3206      	adds	r2, #6
1000a214:	2307      	movs	r3, #7
1000a216:	0021      	movs	r1, r4
1000a218:	f7ff fce0 	bl	10009bdc <tud_control_xfer>
1000a21c:	2001      	movs	r0, #1
1000a21e:	e048      	b.n	1000a2b2 <cdcd_control_xfer_cb+0x112>
1000a220:	4b29      	ldr	r3, [pc, #164]	; (1000a2c8 <cdcd_control_xfer_cb+0x128>)
1000a222:	2b00      	cmp	r3, #0
1000a224:	d048      	beq.n	1000a2b8 <cdcd_control_xfer_cb+0x118>
1000a226:	1d91      	adds	r1, r2, #6
1000a228:	0028      	movs	r0, r5
1000a22a:	f7fd ff6d 	bl	10008108 <tud_cdc_line_coding_cb>
1000a22e:	2001      	movs	r0, #1
1000a230:	e03f      	b.n	1000a2b2 <cdcd_control_xfer_cb+0x112>
1000a232:	3206      	adds	r2, #6
1000a234:	2307      	movs	r3, #7
1000a236:	0021      	movs	r1, r4
1000a238:	f7ff fcd0 	bl	10009bdc <tud_control_xfer>
1000a23c:	2001      	movs	r0, #1
1000a23e:	e038      	b.n	1000a2b2 <cdcd_control_xfer_cb+0x112>
1000a240:	2900      	cmp	r1, #0
1000a242:	d003      	beq.n	1000a24c <cdcd_control_xfer_cb+0xac>
1000a244:	2902      	cmp	r1, #2
1000a246:	d006      	beq.n	1000a256 <cdcd_control_xfer_cb+0xb6>
1000a248:	2001      	movs	r0, #1
1000a24a:	e032      	b.n	1000a2b2 <cdcd_control_xfer_cb+0x112>
1000a24c:	0021      	movs	r1, r4
1000a24e:	f7ff fca9 	bl	10009ba4 <tud_control_status>
1000a252:	2001      	movs	r0, #1
1000a254:	e02d      	b.n	1000a2b2 <cdcd_control_xfer_cb+0x112>
1000a256:	78a1      	ldrb	r1, [r4, #2]
1000a258:	78e3      	ldrb	r3, [r4, #3]
1000a25a:	021b      	lsls	r3, r3, #8
1000a25c:	430b      	orrs	r3, r1
1000a25e:	2001      	movs	r0, #1
1000a260:	0019      	movs	r1, r3
1000a262:	4001      	ands	r1, r0
1000a264:	000e      	movs	r6, r1
1000a266:	085c      	lsrs	r4, r3, #1
1000a268:	4004      	ands	r4, r0
1000a26a:	7113      	strb	r3, [r2, #4]
1000a26c:	424b      	negs	r3, r1
1000a26e:	4159      	adcs	r1, r3
1000a270:	b2c9      	uxtb	r1, r1
1000a272:	322c      	adds	r2, #44	; 0x2c
1000a274:	0010      	movs	r0, r2
1000a276:	f000 fc7d 	bl	1000ab74 <tu_fifo_set_overwritable>
1000a27a:	4b14      	ldr	r3, [pc, #80]	; (1000a2cc <cdcd_control_xfer_cb+0x12c>)
1000a27c:	2b00      	cmp	r3, #0
1000a27e:	d01d      	beq.n	1000a2bc <cdcd_control_xfer_cb+0x11c>
1000a280:	0022      	movs	r2, r4
1000a282:	0031      	movs	r1, r6
1000a284:	0028      	movs	r0, r5
1000a286:	e000      	b.n	1000a28a <cdcd_control_xfer_cb+0xea>
1000a288:	bf00      	nop
1000a28a:	2001      	movs	r0, #1
1000a28c:	e011      	b.n	1000a2b2 <cdcd_control_xfer_cb+0x112>
1000a28e:	0021      	movs	r1, r4
1000a290:	f7ff fc88 	bl	10009ba4 <tud_control_status>
1000a294:	2001      	movs	r0, #1
1000a296:	e00c      	b.n	1000a2b2 <cdcd_control_xfer_cb+0x112>
1000a298:	4b0d      	ldr	r3, [pc, #52]	; (1000a2d0 <cdcd_control_xfer_cb+0x130>)
1000a29a:	2b00      	cmp	r3, #0
1000a29c:	d010      	beq.n	1000a2c0 <cdcd_control_xfer_cb+0x120>
1000a29e:	78a3      	ldrb	r3, [r4, #2]
1000a2a0:	78e1      	ldrb	r1, [r4, #3]
1000a2a2:	0209      	lsls	r1, r1, #8
1000a2a4:	4319      	orrs	r1, r3
1000a2a6:	0028      	movs	r0, r5
1000a2a8:	e000      	b.n	1000a2ac <cdcd_control_xfer_cb+0x10c>
1000a2aa:	bf00      	nop
1000a2ac:	2001      	movs	r0, #1
1000a2ae:	e000      	b.n	1000a2b2 <cdcd_control_xfer_cb+0x112>
1000a2b0:	2000      	movs	r0, #0
1000a2b2:	bdf8      	pop	{r3, r4, r5, r6, r7, pc}
1000a2b4:	2000      	movs	r0, #0
1000a2b6:	e7fc      	b.n	1000a2b2 <cdcd_control_xfer_cb+0x112>
1000a2b8:	2001      	movs	r0, #1
1000a2ba:	e7fa      	b.n	1000a2b2 <cdcd_control_xfer_cb+0x112>
1000a2bc:	2001      	movs	r0, #1
1000a2be:	e7f8      	b.n	1000a2b2 <cdcd_control_xfer_cb+0x112>
1000a2c0:	2001      	movs	r0, #1
1000a2c2:	e7f6      	b.n	1000a2b2 <cdcd_control_xfer_cb+0x112>
1000a2c4:	20000ec8 	.word	0x20000ec8
1000a2c8:	10008109 	.word	0x10008109
	...

1000a2d4 <cdcd_xfer_cb>:
1000a2d4:	b5f0      	push	{r4, r5, r6, r7, lr}
1000a2d6:	46d6      	mov	lr, sl
1000a2d8:	b500      	push	{lr}
1000a2da:	b082      	sub	sp, #8
1000a2dc:	9001      	str	r0, [sp, #4]
1000a2de:	000f      	movs	r7, r1
1000a2e0:	9300      	str	r3, [sp, #0]
1000a2e2:	2400      	movs	r4, #0
1000a2e4:	2c00      	cmp	r4, #0
1000a2e6:	d00d      	beq.n	1000a304 <cdcd_xfer_cb+0x30>
1000a2e8:	2c00      	cmp	r4, #0
1000a2ea:	d119      	bne.n	1000a320 <cdcd_xfer_cb+0x4c>
1000a2ec:	78eb      	ldrb	r3, [r5, #3]
1000a2ee:	42bb      	cmp	r3, r7
1000a2f0:	d01e      	beq.n	1000a330 <cdcd_xfer_cb+0x5c>
1000a2f2:	78ab      	ldrb	r3, [r5, #2]
1000a2f4:	42bb      	cmp	r3, r7
1000a2f6:	d055      	beq.n	1000a3a4 <cdcd_xfer_cb+0xd0>
1000a2f8:	2401      	movs	r4, #1
1000a2fa:	0020      	movs	r0, r4
1000a2fc:	b002      	add	sp, #8
1000a2fe:	bc80      	pop	{r7}
1000a300:	46ba      	mov	sl, r7
1000a302:	bdf0      	pop	{r4, r5, r6, r7, pc}
1000a304:	25b6      	movs	r5, #182	; 0xb6
1000a306:	00ad      	lsls	r5, r5, #2
1000a308:	4365      	muls	r5, r4
1000a30a:	4b3d      	ldr	r3, [pc, #244]	; (1000a400 <cdcd_xfer_cb+0x12c>)
1000a30c:	18ed      	adds	r5, r5, r3
1000a30e:	78eb      	ldrb	r3, [r5, #3]
1000a310:	42bb      	cmp	r3, r7
1000a312:	d0e9      	beq.n	1000a2e8 <cdcd_xfer_cb+0x14>
1000a314:	78ab      	ldrb	r3, [r5, #2]
1000a316:	42bb      	cmp	r3, r7
1000a318:	d0e6      	beq.n	1000a2e8 <cdcd_xfer_cb+0x14>
1000a31a:	3401      	adds	r4, #1
1000a31c:	b2e4      	uxtb	r4, r4
1000a31e:	e7e1      	b.n	1000a2e4 <cdcd_xfer_cb+0x10>
1000a320:	22b0      	movs	r2, #176	; 0xb0
1000a322:	32ff      	adds	r2, #255	; 0xff
1000a324:	4937      	ldr	r1, [pc, #220]	; (1000a404 <cdcd_xfer_cb+0x130>)
1000a326:	4838      	ldr	r0, [pc, #224]	; (1000a408 <cdcd_xfer_cb+0x134>)
1000a328:	f7fd fe7a 	bl	10008020 <__wrap_printf>
1000a32c:	2400      	movs	r4, #0
1000a32e:	e7e4      	b.n	1000a2fa <cdcd_xfer_cb+0x26>
1000a330:	2310      	movs	r3, #16
1000a332:	469a      	mov	sl, r3
1000a334:	44aa      	add	sl, r5
1000a336:	2396      	movs	r3, #150	; 0x96
1000a338:	009b      	lsls	r3, r3, #2
1000a33a:	18e9      	adds	r1, r5, r3
1000a33c:	466b      	mov	r3, sp
1000a33e:	881a      	ldrh	r2, [r3, #0]
1000a340:	4650      	mov	r0, sl
1000a342:	f000 fbec 	bl	1000ab1e <tu_fifo_write_n>
1000a346:	4b31      	ldr	r3, [pc, #196]	; (1000a40c <cdcd_xfer_cb+0x138>)
1000a348:	2b00      	cmp	r3, #0
1000a34a:	d01b      	beq.n	1000a384 <cdcd_xfer_cb+0xb0>
1000a34c:	796b      	ldrb	r3, [r5, #5]
1000a34e:	2bff      	cmp	r3, #255	; 0xff
1000a350:	d018      	beq.n	1000a384 <cdcd_xfer_cb+0xb0>
1000a352:	2600      	movs	r6, #0
1000a354:	e000      	b.n	1000a358 <cdcd_xfer_cb+0x84>
1000a356:	3601      	adds	r6, #1
1000a358:	9b00      	ldr	r3, [sp, #0]
1000a35a:	429e      	cmp	r6, r3
1000a35c:	d212      	bcs.n	1000a384 <cdcd_xfer_cb+0xb0>
1000a35e:	796a      	ldrb	r2, [r5, #5]
1000a360:	19ab      	adds	r3, r5, r6
1000a362:	2196      	movs	r1, #150	; 0x96
1000a364:	0089      	lsls	r1, r1, #2
1000a366:	468c      	mov	ip, r1
1000a368:	4463      	add	r3, ip
1000a36a:	781b      	ldrb	r3, [r3, #0]
1000a36c:	429a      	cmp	r2, r3
1000a36e:	d1f2      	bne.n	1000a356 <cdcd_xfer_cb+0x82>
1000a370:	4650      	mov	r0, sl
1000a372:	f000 fb60 	bl	1000aa36 <tu_fifo_empty>
1000a376:	2800      	cmp	r0, #0
1000a378:	d1ed      	bne.n	1000a356 <cdcd_xfer_cb+0x82>
1000a37a:	7969      	ldrb	r1, [r5, #5]
1000a37c:	0020      	movs	r0, r4
1000a37e:	e000      	b.n	1000a382 <cdcd_xfer_cb+0xae>
1000a380:	bf00      	nop
1000a382:	e7e8      	b.n	1000a356 <cdcd_xfer_cb+0x82>
1000a384:	4b22      	ldr	r3, [pc, #136]	; (1000a410 <cdcd_xfer_cb+0x13c>)
1000a386:	2b00      	cmp	r3, #0
1000a388:	d004      	beq.n	1000a394 <cdcd_xfer_cb+0xc0>
1000a38a:	4650      	mov	r0, sl
1000a38c:	f000 fb53 	bl	1000aa36 <tu_fifo_empty>
1000a390:	2800      	cmp	r0, #0
1000a392:	d003      	beq.n	1000a39c <cdcd_xfer_cb+0xc8>
1000a394:	0028      	movs	r0, r5
1000a396:	f7ff fd11 	bl	10009dbc <_prep_out_transaction>
1000a39a:	e7aa      	b.n	1000a2f2 <cdcd_xfer_cb+0x1e>
1000a39c:	0020      	movs	r0, r4
1000a39e:	e000      	b.n	1000a3a2 <cdcd_xfer_cb+0xce>
1000a3a0:	bf00      	nop
1000a3a2:	e7f7      	b.n	1000a394 <cdcd_xfer_cb+0xc0>
1000a3a4:	4b1b      	ldr	r3, [pc, #108]	; (1000a414 <cdcd_xfer_cb+0x140>)
1000a3a6:	2b00      	cmp	r3, #0
1000a3a8:	d002      	beq.n	1000a3b0 <cdcd_xfer_cb+0xdc>
1000a3aa:	0020      	movs	r0, r4
1000a3ac:	e000      	b.n	1000a3b0 <cdcd_xfer_cb+0xdc>
1000a3ae:	bf00      	nop
1000a3b0:	0020      	movs	r0, r4
1000a3b2:	f7ff fd69 	bl	10009e88 <tud_cdc_n_write_flush>
1000a3b6:	2800      	cmp	r0, #0
1000a3b8:	d001      	beq.n	1000a3be <cdcd_xfer_cb+0xea>
1000a3ba:	2401      	movs	r4, #1
1000a3bc:	e79d      	b.n	1000a2fa <cdcd_xfer_cb+0x26>
1000a3be:	0028      	movs	r0, r5
1000a3c0:	302c      	adds	r0, #44	; 0x2c
1000a3c2:	f000 fb25 	bl	1000aa10 <tu_fifo_count>
1000a3c6:	2800      	cmp	r0, #0
1000a3c8:	d115      	bne.n	1000a3f6 <cdcd_xfer_cb+0x122>
1000a3ca:	9b00      	ldr	r3, [sp, #0]
1000a3cc:	2b00      	cmp	r3, #0
1000a3ce:	d014      	beq.n	1000a3fa <cdcd_xfer_cb+0x126>
1000a3d0:	069b      	lsls	r3, r3, #26
1000a3d2:	d001      	beq.n	1000a3d8 <cdcd_xfer_cb+0x104>
1000a3d4:	2401      	movs	r4, #1
1000a3d6:	e790      	b.n	1000a2fa <cdcd_xfer_cb+0x26>
1000a3d8:	78a9      	ldrb	r1, [r5, #2]
1000a3da:	9801      	ldr	r0, [sp, #4]
1000a3dc:	f7fe ffc6 	bl	1000936c <usbd_edpt_claim>
1000a3e0:	1e04      	subs	r4, r0, #0
1000a3e2:	d101      	bne.n	1000a3e8 <cdcd_xfer_cb+0x114>
1000a3e4:	2401      	movs	r4, #1
1000a3e6:	e788      	b.n	1000a2fa <cdcd_xfer_cb+0x26>
1000a3e8:	78a9      	ldrb	r1, [r5, #2]
1000a3ea:	2300      	movs	r3, #0
1000a3ec:	2200      	movs	r2, #0
1000a3ee:	9801      	ldr	r0, [sp, #4]
1000a3f0:	f7ff f836 	bl	10009460 <usbd_edpt_xfer>
1000a3f4:	e781      	b.n	1000a2fa <cdcd_xfer_cb+0x26>
1000a3f6:	2401      	movs	r4, #1
1000a3f8:	e77f      	b.n	1000a2fa <cdcd_xfer_cb+0x26>
1000a3fa:	2401      	movs	r4, #1
1000a3fc:	e77d      	b.n	1000a2fa <cdcd_xfer_cb+0x26>
1000a3fe:	46c0      	nop			; (mov r8, r8)
1000a400:	20000ec8 	.word	0x20000ec8
1000a404:	1000dc44 	.word	0x1000dc44
1000a408:	1000dac8 	.word	0x1000dac8
	...

1000a418 <tusb_init>:
1000a418:	b510      	push	{r4, lr}
1000a41a:	2000      	movs	r0, #0
1000a41c:	f7fe fd7a 	bl	10008f14 <tud_init>
1000a420:	1e04      	subs	r4, r0, #0
1000a422:	d001      	beq.n	1000a428 <tusb_init+0x10>
1000a424:	0020      	movs	r0, r4
1000a426:	bd10      	pop	{r4, pc}
1000a428:	2229      	movs	r2, #41	; 0x29
1000a42a:	4902      	ldr	r1, [pc, #8]	; (1000a434 <tusb_init+0x1c>)
1000a42c:	4802      	ldr	r0, [pc, #8]	; (1000a438 <tusb_init+0x20>)
1000a42e:	f7fd fdf7 	bl	10008020 <__wrap_printf>
1000a432:	e7f7      	b.n	1000a424 <tusb_init+0xc>
1000a434:	1000dc8c 	.word	0x1000dc8c
1000a438:	1000dac8 	.word	0x1000dac8

1000a43c <tusb_inited>:
1000a43c:	b510      	push	{r4, lr}
1000a43e:	f7fe fd63 	bl	10008f08 <tud_inited>
1000a442:	2800      	cmp	r0, #0
1000a444:	d000      	beq.n	1000a448 <tusb_inited+0xc>
1000a446:	2001      	movs	r0, #1
1000a448:	bd10      	pop	{r4, pc}
	...

1000a44c <tu_edpt_validate>:
1000a44c:	b510      	push	{r4, lr}
1000a44e:	7902      	ldrb	r2, [r0, #4]
1000a450:	7944      	ldrb	r4, [r0, #5]
1000a452:	2307      	movs	r3, #7
1000a454:	4023      	ands	r3, r4
1000a456:	021b      	lsls	r3, r3, #8
1000a458:	431a      	orrs	r2, r3
1000a45a:	78c3      	ldrb	r3, [r0, #3]
1000a45c:	079b      	lsls	r3, r3, #30
1000a45e:	0f9b      	lsrs	r3, r3, #30
1000a460:	2b02      	cmp	r3, #2
1000a462:	d016      	beq.n	1000a492 <tu_edpt_validate+0x46>
1000a464:	2b03      	cmp	r3, #3
1000a466:	d02e      	beq.n	1000a4c6 <tu_edpt_validate+0x7a>
1000a468:	2b01      	cmp	r3, #1
1000a46a:	d001      	beq.n	1000a470 <tu_edpt_validate+0x24>
1000a46c:	2000      	movs	r0, #0
1000a46e:	bd10      	pop	{r4, pc}
1000a470:	2902      	cmp	r1, #2
1000a472:	d004      	beq.n	1000a47e <tu_edpt_validate+0x32>
1000a474:	4b1c      	ldr	r3, [pc, #112]	; (1000a4e8 <tu_edpt_validate+0x9c>)
1000a476:	4293      	cmp	r3, r2
1000a478:	d304      	bcc.n	1000a484 <tu_edpt_validate+0x38>
1000a47a:	2001      	movs	r0, #1
1000a47c:	e7f7      	b.n	1000a46e <tu_edpt_validate+0x22>
1000a47e:	2380      	movs	r3, #128	; 0x80
1000a480:	00db      	lsls	r3, r3, #3
1000a482:	e7f8      	b.n	1000a476 <tu_edpt_validate+0x2a>
1000a484:	2250      	movs	r2, #80	; 0x50
1000a486:	4919      	ldr	r1, [pc, #100]	; (1000a4ec <tu_edpt_validate+0xa0>)
1000a488:	4819      	ldr	r0, [pc, #100]	; (1000a4f0 <tu_edpt_validate+0xa4>)
1000a48a:	f7fd fdc9 	bl	10008020 <__wrap_printf>
1000a48e:	2000      	movs	r0, #0
1000a490:	e7ed      	b.n	1000a46e <tu_edpt_validate+0x22>
1000a492:	2902      	cmp	r1, #2
1000a494:	d003      	beq.n	1000a49e <tu_edpt_validate+0x52>
1000a496:	2a40      	cmp	r2, #64	; 0x40
1000a498:	d80e      	bhi.n	1000a4b8 <tu_edpt_validate+0x6c>
1000a49a:	2001      	movs	r0, #1
1000a49c:	e7e7      	b.n	1000a46e <tu_edpt_validate+0x22>
1000a49e:	2380      	movs	r3, #128	; 0x80
1000a4a0:	009b      	lsls	r3, r3, #2
1000a4a2:	429a      	cmp	r2, r3
1000a4a4:	d101      	bne.n	1000a4aa <tu_edpt_validate+0x5e>
1000a4a6:	2001      	movs	r0, #1
1000a4a8:	e7e1      	b.n	1000a46e <tu_edpt_validate+0x22>
1000a4aa:	2258      	movs	r2, #88	; 0x58
1000a4ac:	490f      	ldr	r1, [pc, #60]	; (1000a4ec <tu_edpt_validate+0xa0>)
1000a4ae:	4810      	ldr	r0, [pc, #64]	; (1000a4f0 <tu_edpt_validate+0xa4>)
1000a4b0:	f7fd fdb6 	bl	10008020 <__wrap_printf>
1000a4b4:	2000      	movs	r0, #0
1000a4b6:	e7da      	b.n	1000a46e <tu_edpt_validate+0x22>
1000a4b8:	225c      	movs	r2, #92	; 0x5c
1000a4ba:	490c      	ldr	r1, [pc, #48]	; (1000a4ec <tu_edpt_validate+0xa0>)
1000a4bc:	480c      	ldr	r0, [pc, #48]	; (1000a4f0 <tu_edpt_validate+0xa4>)
1000a4be:	f7fd fdaf 	bl	10008020 <__wrap_printf>
1000a4c2:	2000      	movs	r0, #0
1000a4c4:	e7d3      	b.n	1000a46e <tu_edpt_validate+0x22>
1000a4c6:	2902      	cmp	r1, #2
1000a4c8:	d004      	beq.n	1000a4d4 <tu_edpt_validate+0x88>
1000a4ca:	2340      	movs	r3, #64	; 0x40
1000a4cc:	4293      	cmp	r3, r2
1000a4ce:	d304      	bcc.n	1000a4da <tu_edpt_validate+0x8e>
1000a4d0:	2001      	movs	r0, #1
1000a4d2:	e7cc      	b.n	1000a46e <tu_edpt_validate+0x22>
1000a4d4:	2380      	movs	r3, #128	; 0x80
1000a4d6:	00db      	lsls	r3, r3, #3
1000a4d8:	e7f8      	b.n	1000a4cc <tu_edpt_validate+0x80>
1000a4da:	2263      	movs	r2, #99	; 0x63
1000a4dc:	4903      	ldr	r1, [pc, #12]	; (1000a4ec <tu_edpt_validate+0xa0>)
1000a4de:	4804      	ldr	r0, [pc, #16]	; (1000a4f0 <tu_edpt_validate+0xa4>)
1000a4e0:	f7fd fd9e 	bl	10008020 <__wrap_printf>
1000a4e4:	2000      	movs	r0, #0
1000a4e6:	e7c2      	b.n	1000a46e <tu_edpt_validate+0x22>
1000a4e8:	000003ff 	.word	0x000003ff
1000a4ec:	1000dc78 	.word	0x1000dc78
1000a4f0:	1000dac8 	.word	0x1000dac8

1000a4f4 <tu_edpt_bind_driver>:
1000a4f4:	b570      	push	{r4, r5, r6, lr}
1000a4f6:	2500      	movs	r5, #0
1000a4f8:	e003      	b.n	1000a502 <tu_edpt_bind_driver+0xe>
1000a4fa:	780e      	ldrb	r6, [r1, #0]
1000a4fc:	19ad      	adds	r5, r5, r6
1000a4fe:	b2ad      	uxth	r5, r5
1000a500:	1989      	adds	r1, r1, r6
1000a502:	4295      	cmp	r5, r2
1000a504:	d20a      	bcs.n	1000a51c <tu_edpt_bind_driver+0x28>
1000a506:	784c      	ldrb	r4, [r1, #1]
1000a508:	2c05      	cmp	r4, #5
1000a50a:	d1f6      	bne.n	1000a4fa <tu_edpt_bind_driver+0x6>
1000a50c:	788e      	ldrb	r6, [r1, #2]
1000a50e:	347a      	adds	r4, #122	; 0x7a
1000a510:	4034      	ands	r4, r6
1000a512:	0064      	lsls	r4, r4, #1
1000a514:	1904      	adds	r4, r0, r4
1000a516:	09f6      	lsrs	r6, r6, #7
1000a518:	55a3      	strb	r3, [r4, r6]
1000a51a:	e7ee      	b.n	1000a4fa <tu_edpt_bind_driver+0x6>
1000a51c:	bd70      	pop	{r4, r5, r6, pc}

1000a51e <advance_pointer>:
1000a51e:	0003      	movs	r3, r0
1000a520:	188a      	adds	r2, r1, r2
1000a522:	b290      	uxth	r0, r2
1000a524:	4288      	cmp	r0, r1
1000a526:	d302      	bcc.n	1000a52e <advance_pointer+0x10>
1000a528:	899a      	ldrh	r2, [r3, #12]
1000a52a:	4290      	cmp	r0, r2
1000a52c:	d902      	bls.n	1000a534 <advance_pointer+0x16>
1000a52e:	895a      	ldrh	r2, [r3, #10]
1000a530:	1880      	adds	r0, r0, r2
1000a532:	b280      	uxth	r0, r0
1000a534:	4770      	bx	lr

1000a536 <backward_pointer>:
1000a536:	b510      	push	{r4, lr}
1000a538:	0003      	movs	r3, r0
1000a53a:	428a      	cmp	r2, r1
1000a53c:	d804      	bhi.n	1000a548 <backward_pointer+0x12>
1000a53e:	1a88      	subs	r0, r1, r2
1000a540:	b280      	uxth	r0, r0
1000a542:	899c      	ldrh	r4, [r3, #12]
1000a544:	42a0      	cmp	r0, r4
1000a546:	d904      	bls.n	1000a552 <backward_pointer+0x1c>
1000a548:	1a89      	subs	r1, r1, r2
1000a54a:	b289      	uxth	r1, r1
1000a54c:	8958      	ldrh	r0, [r3, #10]
1000a54e:	1a08      	subs	r0, r1, r0
1000a550:	b280      	uxth	r0, r0
1000a552:	bd10      	pop	{r4, pc}

1000a554 <get_relative_pointer>:
1000a554:	8883      	ldrh	r3, [r0, #4]
1000a556:	e001      	b.n	1000a55c <get_relative_pointer+0x8>
1000a558:	1ac9      	subs	r1, r1, r3
1000a55a:	b289      	uxth	r1, r1
1000a55c:	428b      	cmp	r3, r1
1000a55e:	d9fb      	bls.n	1000a558 <get_relative_pointer+0x4>
1000a560:	0008      	movs	r0, r1
1000a562:	4770      	bx	lr

1000a564 <_tu_fifo_peek>:
1000a564:	b5f0      	push	{r4, r5, r6, r7, lr}
1000a566:	b083      	sub	sp, #12
1000a568:	0006      	movs	r6, r0
1000a56a:	9101      	str	r1, [sp, #4]
1000a56c:	0011      	movs	r1, r2
1000a56e:	001f      	movs	r7, r3
1000a570:	1ad4      	subs	r4, r2, r3
1000a572:	b2a4      	uxth	r4, r4
1000a574:	429a      	cmp	r2, r3
1000a576:	d202      	bcs.n	1000a57e <_tu_fifo_peek+0x1a>
1000a578:	8943      	ldrh	r3, [r0, #10]
1000a57a:	1ae4      	subs	r4, r4, r3
1000a57c:	b2a4      	uxth	r4, r4
1000a57e:	88b5      	ldrh	r5, [r6, #4]
1000a580:	42a5      	cmp	r5, r4
1000a582:	d205      	bcs.n	1000a590 <_tu_fifo_peek+0x2c>
1000a584:	002a      	movs	r2, r5
1000a586:	0030      	movs	r0, r6
1000a588:	f7ff ffd5 	bl	1000a536 <backward_pointer>
1000a58c:	8230      	strh	r0, [r6, #16]
1000a58e:	002c      	movs	r4, r5
1000a590:	2c00      	cmp	r4, #0
1000a592:	d102      	bne.n	1000a59a <_tu_fifo_peek+0x36>
1000a594:	2000      	movs	r0, #0
1000a596:	b003      	add	sp, #12
1000a598:	bdf0      	pop	{r4, r5, r6, r7, pc}
1000a59a:	0039      	movs	r1, r7
1000a59c:	0030      	movs	r0, r6
1000a59e:	f7ff ffd9 	bl	1000a554 <get_relative_pointer>
1000a5a2:	6831      	ldr	r1, [r6, #0]
1000a5a4:	88f2      	ldrh	r2, [r6, #6]
1000a5a6:	4350      	muls	r0, r2
1000a5a8:	1809      	adds	r1, r1, r0
1000a5aa:	9801      	ldr	r0, [sp, #4]
1000a5ac:	f7fd fb82 	bl	10007cb4 <__wrap___aeabi_memcpy>
1000a5b0:	2001      	movs	r0, #1
1000a5b2:	e7f0      	b.n	1000a596 <_tu_fifo_peek+0x32>

1000a5b4 <_ff_pull_const_addr>:
1000a5b4:	b5f0      	push	{r4, r5, r6, r7, lr}
1000a5b6:	b083      	sub	sp, #12
1000a5b8:	0006      	movs	r6, r0
1000a5ba:	0893      	lsrs	r3, r2, #2
1000a5bc:	e00c      	b.n	1000a5d8 <_ff_pull_const_addr+0x24>
1000a5be:	780b      	ldrb	r3, [r1, #0]
1000a5c0:	784d      	ldrb	r5, [r1, #1]
1000a5c2:	022d      	lsls	r5, r5, #8
1000a5c4:	431d      	orrs	r5, r3
1000a5c6:	788c      	ldrb	r4, [r1, #2]
1000a5c8:	0424      	lsls	r4, r4, #16
1000a5ca:	4325      	orrs	r5, r4
1000a5cc:	78cb      	ldrb	r3, [r1, #3]
1000a5ce:	061b      	lsls	r3, r3, #24
1000a5d0:	432b      	orrs	r3, r5
1000a5d2:	6033      	str	r3, [r6, #0]
1000a5d4:	3104      	adds	r1, #4
1000a5d6:	003b      	movs	r3, r7
1000a5d8:	1e5f      	subs	r7, r3, #1
1000a5da:	b2bf      	uxth	r7, r7
1000a5dc:	2b00      	cmp	r3, #0
1000a5de:	d1ee      	bne.n	1000a5be <_ff_pull_const_addr+0xa>
1000a5e0:	3303      	adds	r3, #3
1000a5e2:	0010      	movs	r0, r2
1000a5e4:	4018      	ands	r0, r3
1000a5e6:	421a      	tst	r2, r3
1000a5e8:	d101      	bne.n	1000a5ee <_ff_pull_const_addr+0x3a>
1000a5ea:	b003      	add	sp, #12
1000a5ec:	bdf0      	pop	{r4, r5, r6, r7, pc}
1000a5ee:	2300      	movs	r3, #0
1000a5f0:	9301      	str	r3, [sp, #4]
1000a5f2:	0002      	movs	r2, r0
1000a5f4:	a801      	add	r0, sp, #4
1000a5f6:	f7fd fb5d 	bl	10007cb4 <__wrap___aeabi_memcpy>
1000a5fa:	9b01      	ldr	r3, [sp, #4]
1000a5fc:	6033      	str	r3, [r6, #0]
1000a5fe:	e7f4      	b.n	1000a5ea <_ff_pull_const_addr+0x36>

1000a600 <_ff_pull_n>:
1000a600:	b5f0      	push	{r4, r5, r6, r7, lr}
1000a602:	46de      	mov	lr, fp
1000a604:	4657      	mov	r7, sl
1000a606:	464e      	mov	r6, r9
1000a608:	4645      	mov	r5, r8
1000a60a:	b5e0      	push	{r5, r6, r7, lr}
1000a60c:	b083      	sub	sp, #12
1000a60e:	0005      	movs	r5, r0
1000a610:	468a      	mov	sl, r1
1000a612:	a90c      	add	r1, sp, #48	; 0x30
1000a614:	7809      	ldrb	r1, [r1, #0]
1000a616:	8884      	ldrh	r4, [r0, #4]
1000a618:	1ae0      	subs	r0, r4, r3
1000a61a:	b280      	uxth	r0, r0
1000a61c:	1b1c      	subs	r4, r3, r4
1000a61e:	1914      	adds	r4, r2, r4
1000a620:	b2a4      	uxth	r4, r4
1000a622:	88ee      	ldrh	r6, [r5, #6]
1000a624:	0007      	movs	r7, r0
1000a626:	4377      	muls	r7, r6
1000a628:	b2bf      	uxth	r7, r7
1000a62a:	4374      	muls	r4, r6
1000a62c:	b2a4      	uxth	r4, r4
1000a62e:	46a3      	mov	fp, r4
1000a630:	4373      	muls	r3, r6
1000a632:	682c      	ldr	r4, [r5, #0]
1000a634:	46a0      	mov	r8, r4
1000a636:	4498      	add	r8, r3
1000a638:	2900      	cmp	r1, #0
1000a63a:	d008      	beq.n	1000a64e <_ff_pull_n+0x4e>
1000a63c:	2901      	cmp	r1, #1
1000a63e:	d01a      	beq.n	1000a676 <_ff_pull_n+0x76>
1000a640:	b003      	add	sp, #12
1000a642:	bcf0      	pop	{r4, r5, r6, r7}
1000a644:	46bb      	mov	fp, r7
1000a646:	46b2      	mov	sl, r6
1000a648:	46a9      	mov	r9, r5
1000a64a:	46a0      	mov	r8, r4
1000a64c:	bdf0      	pop	{r4, r5, r6, r7, pc}
1000a64e:	4290      	cmp	r0, r2
1000a650:	d305      	bcc.n	1000a65e <_ff_pull_n+0x5e>
1000a652:	4372      	muls	r2, r6
1000a654:	4641      	mov	r1, r8
1000a656:	4650      	mov	r0, sl
1000a658:	f7fd fb2c 	bl	10007cb4 <__wrap___aeabi_memcpy>
1000a65c:	e7f0      	b.n	1000a640 <_ff_pull_n+0x40>
1000a65e:	003a      	movs	r2, r7
1000a660:	4641      	mov	r1, r8
1000a662:	4650      	mov	r0, sl
1000a664:	f7fd fb26 	bl	10007cb4 <__wrap___aeabi_memcpy>
1000a668:	6829      	ldr	r1, [r5, #0]
1000a66a:	0038      	movs	r0, r7
1000a66c:	4450      	add	r0, sl
1000a66e:	465a      	mov	r2, fp
1000a670:	f7fd fb20 	bl	10007cb4 <__wrap___aeabi_memcpy>
1000a674:	e7e4      	b.n	1000a640 <_ff_pull_n+0x40>
1000a676:	4290      	cmp	r0, r2
1000a678:	d306      	bcc.n	1000a688 <_ff_pull_n+0x88>
1000a67a:	4372      	muls	r2, r6
1000a67c:	b292      	uxth	r2, r2
1000a67e:	4641      	mov	r1, r8
1000a680:	4650      	mov	r0, sl
1000a682:	f7ff ff97 	bl	1000a5b4 <_ff_pull_const_addr>
1000a686:	e7db      	b.n	1000a640 <_ff_pull_n+0x40>
1000a688:	2303      	movs	r3, #3
1000a68a:	003a      	movs	r2, r7
1000a68c:	439a      	bics	r2, r3
1000a68e:	4691      	mov	r9, r2
1000a690:	4641      	mov	r1, r8
1000a692:	4650      	mov	r0, sl
1000a694:	f7ff ff8e 	bl	1000a5b4 <_ff_pull_const_addr>
1000a698:	4643      	mov	r3, r8
1000a69a:	444b      	add	r3, r9
1000a69c:	2103      	movs	r1, #3
1000a69e:	003a      	movs	r2, r7
1000a6a0:	400a      	ands	r2, r1
1000a6a2:	420f      	tst	r7, r1
1000a6a4:	d030      	beq.n	1000a708 <_ff_pull_n+0x108>
1000a6a6:	2104      	movs	r1, #4
1000a6a8:	1a89      	subs	r1, r1, r2
1000a6aa:	b289      	uxth	r1, r1
1000a6ac:	1c08      	adds	r0, r1, #0
1000a6ae:	4559      	cmp	r1, fp
1000a6b0:	d900      	bls.n	1000a6b4 <_ff_pull_n+0xb4>
1000a6b2:	4658      	mov	r0, fp
1000a6b4:	b2c7      	uxtb	r7, r0
1000a6b6:	21ff      	movs	r1, #255	; 0xff
1000a6b8:	4001      	ands	r1, r0
1000a6ba:	4658      	mov	r0, fp
1000a6bc:	1a44      	subs	r4, r0, r1
1000a6be:	b2a1      	uxth	r1, r4
1000a6c0:	468b      	mov	fp, r1
1000a6c2:	2100      	movs	r1, #0
1000a6c4:	9101      	str	r1, [sp, #4]
1000a6c6:	a801      	add	r0, sp, #4
1000a6c8:	e004      	b.n	1000a6d4 <_ff_pull_n+0xd4>
1000a6ca:	781a      	ldrb	r2, [r3, #0]
1000a6cc:	7002      	strb	r2, [r0, #0]
1000a6ce:	3001      	adds	r0, #1
1000a6d0:	000a      	movs	r2, r1
1000a6d2:	3301      	adds	r3, #1
1000a6d4:	1e51      	subs	r1, r2, #1
1000a6d6:	b2c9      	uxtb	r1, r1
1000a6d8:	2a00      	cmp	r2, #0
1000a6da:	d1f6      	bne.n	1000a6ca <_ff_pull_n+0xca>
1000a6dc:	6829      	ldr	r1, [r5, #0]
1000a6de:	e004      	b.n	1000a6ea <_ff_pull_n+0xea>
1000a6e0:	780a      	ldrb	r2, [r1, #0]
1000a6e2:	7002      	strb	r2, [r0, #0]
1000a6e4:	3001      	adds	r0, #1
1000a6e6:	001f      	movs	r7, r3
1000a6e8:	3101      	adds	r1, #1
1000a6ea:	1e7b      	subs	r3, r7, #1
1000a6ec:	b2db      	uxtb	r3, r3
1000a6ee:	2f00      	cmp	r7, #0
1000a6f0:	d1f6      	bne.n	1000a6e0 <_ff_pull_n+0xe0>
1000a6f2:	4653      	mov	r3, sl
1000a6f4:	9a01      	ldr	r2, [sp, #4]
1000a6f6:	601a      	str	r2, [r3, #0]
1000a6f8:	465b      	mov	r3, fp
1000a6fa:	2b00      	cmp	r3, #0
1000a6fc:	d0a0      	beq.n	1000a640 <_ff_pull_n+0x40>
1000a6fe:	465a      	mov	r2, fp
1000a700:	4650      	mov	r0, sl
1000a702:	f7ff ff57 	bl	1000a5b4 <_ff_pull_const_addr>
1000a706:	e79b      	b.n	1000a640 <_ff_pull_n+0x40>
1000a708:	6829      	ldr	r1, [r5, #0]
1000a70a:	e7f5      	b.n	1000a6f8 <_ff_pull_n+0xf8>

1000a70c <_tu_fifo_peek_n>:
1000a70c:	b5f0      	push	{r4, r5, r6, r7, lr}
1000a70e:	b085      	sub	sp, #20
1000a710:	0005      	movs	r5, r0
1000a712:	9102      	str	r1, [sp, #8]
1000a714:	9203      	str	r2, [sp, #12]
1000a716:	aa0a      	add	r2, sp, #40	; 0x28
1000a718:	8811      	ldrh	r1, [r2, #0]
1000a71a:	aa0b      	add	r2, sp, #44	; 0x2c
1000a71c:	7817      	ldrb	r7, [r2, #0]
1000a71e:	1a5c      	subs	r4, r3, r1
1000a720:	b2a4      	uxth	r4, r4
1000a722:	428b      	cmp	r3, r1
1000a724:	d202      	bcs.n	1000a72c <_tu_fifo_peek_n+0x20>
1000a726:	8942      	ldrh	r2, [r0, #10]
1000a728:	1aa4      	subs	r4, r4, r2
1000a72a:	b2a4      	uxth	r4, r4
1000a72c:	88ae      	ldrh	r6, [r5, #4]
1000a72e:	42a6      	cmp	r6, r4
1000a730:	d208      	bcs.n	1000a744 <_tu_fifo_peek_n+0x38>
1000a732:	0032      	movs	r2, r6
1000a734:	0019      	movs	r1, r3
1000a736:	0028      	movs	r0, r5
1000a738:	f7ff fefd 	bl	1000a536 <backward_pointer>
1000a73c:	8228      	strh	r0, [r5, #16]
1000a73e:	8a29      	ldrh	r1, [r5, #16]
1000a740:	b289      	uxth	r1, r1
1000a742:	0034      	movs	r4, r6
1000a744:	2c00      	cmp	r4, #0
1000a746:	d00d      	beq.n	1000a764 <_tu_fifo_peek_n+0x58>
1000a748:	9b03      	ldr	r3, [sp, #12]
1000a74a:	429c      	cmp	r4, r3
1000a74c:	d300      	bcc.n	1000a750 <_tu_fifo_peek_n+0x44>
1000a74e:	001c      	movs	r4, r3
1000a750:	0028      	movs	r0, r5
1000a752:	f7ff feff 	bl	1000a554 <get_relative_pointer>
1000a756:	0003      	movs	r3, r0
1000a758:	9700      	str	r7, [sp, #0]
1000a75a:	0022      	movs	r2, r4
1000a75c:	9902      	ldr	r1, [sp, #8]
1000a75e:	0028      	movs	r0, r5
1000a760:	f7ff ff4e 	bl	1000a600 <_ff_pull_n>
1000a764:	0020      	movs	r0, r4
1000a766:	b005      	add	sp, #20
1000a768:	bdf0      	pop	{r4, r5, r6, r7, pc}

1000a76a <_tu_fifo_read_n>:
1000a76a:	b5f0      	push	{r4, r5, r6, r7, lr}
1000a76c:	b083      	sub	sp, #12
1000a76e:	0004      	movs	r4, r0
1000a770:	000d      	movs	r5, r1
1000a772:	0016      	movs	r6, r2
1000a774:	001f      	movs	r7, r3
1000a776:	6980      	ldr	r0, [r0, #24]
1000a778:	2800      	cmp	r0, #0
1000a77a:	d003      	beq.n	1000a784 <_tu_fifo_read_n+0x1a>
1000a77c:	2101      	movs	r1, #1
1000a77e:	4249      	negs	r1, r1
1000a780:	f001 fcea 	bl	1000c158 <__mutex_enter_timeout_ms_veneer>
1000a784:	89e3      	ldrh	r3, [r4, #14]
1000a786:	b29b      	uxth	r3, r3
1000a788:	8a22      	ldrh	r2, [r4, #16]
1000a78a:	9701      	str	r7, [sp, #4]
1000a78c:	9200      	str	r2, [sp, #0]
1000a78e:	0032      	movs	r2, r6
1000a790:	0029      	movs	r1, r5
1000a792:	0020      	movs	r0, r4
1000a794:	f7ff ffba 	bl	1000a70c <_tu_fifo_peek_n>
1000a798:	0005      	movs	r5, r0
1000a79a:	8a21      	ldrh	r1, [r4, #16]
1000a79c:	b289      	uxth	r1, r1
1000a79e:	0002      	movs	r2, r0
1000a7a0:	0020      	movs	r0, r4
1000a7a2:	f7ff febc 	bl	1000a51e <advance_pointer>
1000a7a6:	8220      	strh	r0, [r4, #16]
1000a7a8:	69a0      	ldr	r0, [r4, #24]
1000a7aa:	2800      	cmp	r0, #0
1000a7ac:	d001      	beq.n	1000a7b2 <_tu_fifo_read_n+0x48>
1000a7ae:	f001 fcb3 	bl	1000c118 <__mutex_exit_veneer>
1000a7b2:	0028      	movs	r0, r5
1000a7b4:	b003      	add	sp, #12
1000a7b6:	bdf0      	pop	{r4, r5, r6, r7, pc}

1000a7b8 <_ff_push_const_addr>:
1000a7b8:	b570      	push	{r4, r5, r6, lr}
1000a7ba:	b082      	sub	sp, #8
1000a7bc:	0016      	movs	r6, r2
1000a7be:	0895      	lsrs	r5, r2, #2
1000a7c0:	e009      	b.n	1000a7d6 <_ff_push_const_addr+0x1e>
1000a7c2:	680b      	ldr	r3, [r1, #0]
1000a7c4:	7003      	strb	r3, [r0, #0]
1000a7c6:	0a1d      	lsrs	r5, r3, #8
1000a7c8:	7045      	strb	r5, [r0, #1]
1000a7ca:	0c1d      	lsrs	r5, r3, #16
1000a7cc:	7085      	strb	r5, [r0, #2]
1000a7ce:	0e1b      	lsrs	r3, r3, #24
1000a7d0:	70c3      	strb	r3, [r0, #3]
1000a7d2:	3004      	adds	r0, #4
1000a7d4:	0025      	movs	r5, r4
1000a7d6:	1e6c      	subs	r4, r5, #1
1000a7d8:	b2a4      	uxth	r4, r4
1000a7da:	2d00      	cmp	r5, #0
1000a7dc:	d1f1      	bne.n	1000a7c2 <_ff_push_const_addr+0xa>
1000a7de:	2303      	movs	r3, #3
1000a7e0:	0032      	movs	r2, r6
1000a7e2:	401a      	ands	r2, r3
1000a7e4:	421e      	tst	r6, r3
1000a7e6:	d101      	bne.n	1000a7ec <_ff_push_const_addr+0x34>
1000a7e8:	b002      	add	sp, #8
1000a7ea:	bd70      	pop	{r4, r5, r6, pc}
1000a7ec:	680b      	ldr	r3, [r1, #0]
1000a7ee:	9301      	str	r3, [sp, #4]
1000a7f0:	a901      	add	r1, sp, #4
1000a7f2:	f7fd fa5f 	bl	10007cb4 <__wrap___aeabi_memcpy>
1000a7f6:	e7f7      	b.n	1000a7e8 <_ff_push_const_addr+0x30>

1000a7f8 <_ff_push_n>:
1000a7f8:	b5f0      	push	{r4, r5, r6, r7, lr}
1000a7fa:	46de      	mov	lr, fp
1000a7fc:	4657      	mov	r7, sl
1000a7fe:	464e      	mov	r6, r9
1000a800:	4645      	mov	r5, r8
1000a802:	b5e0      	push	{r5, r6, r7, lr}
1000a804:	b083      	sub	sp, #12
1000a806:	0005      	movs	r5, r0
1000a808:	468a      	mov	sl, r1
1000a80a:	a90c      	add	r1, sp, #48	; 0x30
1000a80c:	7808      	ldrb	r0, [r1, #0]
1000a80e:	88ac      	ldrh	r4, [r5, #4]
1000a810:	1ae1      	subs	r1, r4, r3
1000a812:	b289      	uxth	r1, r1
1000a814:	1b1c      	subs	r4, r3, r4
1000a816:	1914      	adds	r4, r2, r4
1000a818:	b2a4      	uxth	r4, r4
1000a81a:	88ee      	ldrh	r6, [r5, #6]
1000a81c:	000f      	movs	r7, r1
1000a81e:	4377      	muls	r7, r6
1000a820:	b2bf      	uxth	r7, r7
1000a822:	4374      	muls	r4, r6
1000a824:	b2a4      	uxth	r4, r4
1000a826:	46a3      	mov	fp, r4
1000a828:	4373      	muls	r3, r6
1000a82a:	682c      	ldr	r4, [r5, #0]
1000a82c:	46a0      	mov	r8, r4
1000a82e:	4498      	add	r8, r3
1000a830:	2800      	cmp	r0, #0
1000a832:	d008      	beq.n	1000a846 <_ff_push_n+0x4e>
1000a834:	2801      	cmp	r0, #1
1000a836:	d01a      	beq.n	1000a86e <_ff_push_n+0x76>
1000a838:	b003      	add	sp, #12
1000a83a:	bcf0      	pop	{r4, r5, r6, r7}
1000a83c:	46bb      	mov	fp, r7
1000a83e:	46b2      	mov	sl, r6
1000a840:	46a9      	mov	r9, r5
1000a842:	46a0      	mov	r8, r4
1000a844:	bdf0      	pop	{r4, r5, r6, r7, pc}
1000a846:	4291      	cmp	r1, r2
1000a848:	d305      	bcc.n	1000a856 <_ff_push_n+0x5e>
1000a84a:	4372      	muls	r2, r6
1000a84c:	4651      	mov	r1, sl
1000a84e:	4640      	mov	r0, r8
1000a850:	f7fd fa30 	bl	10007cb4 <__wrap___aeabi_memcpy>
1000a854:	e7f0      	b.n	1000a838 <_ff_push_n+0x40>
1000a856:	003a      	movs	r2, r7
1000a858:	4651      	mov	r1, sl
1000a85a:	4640      	mov	r0, r8
1000a85c:	f7fd fa2a 	bl	10007cb4 <__wrap___aeabi_memcpy>
1000a860:	6828      	ldr	r0, [r5, #0]
1000a862:	0039      	movs	r1, r7
1000a864:	4451      	add	r1, sl
1000a866:	465a      	mov	r2, fp
1000a868:	f7fd fa24 	bl	10007cb4 <__wrap___aeabi_memcpy>
1000a86c:	e7e4      	b.n	1000a838 <_ff_push_n+0x40>
1000a86e:	4291      	cmp	r1, r2
1000a870:	d306      	bcc.n	1000a880 <_ff_push_n+0x88>
1000a872:	4372      	muls	r2, r6
1000a874:	b292      	uxth	r2, r2
1000a876:	4651      	mov	r1, sl
1000a878:	4640      	mov	r0, r8
1000a87a:	f7ff ff9d 	bl	1000a7b8 <_ff_push_const_addr>
1000a87e:	e7db      	b.n	1000a838 <_ff_push_n+0x40>
1000a880:	2303      	movs	r3, #3
1000a882:	003a      	movs	r2, r7
1000a884:	439a      	bics	r2, r3
1000a886:	4691      	mov	r9, r2
1000a888:	4651      	mov	r1, sl
1000a88a:	4640      	mov	r0, r8
1000a88c:	f7ff ff94 	bl	1000a7b8 <_ff_push_const_addr>
1000a890:	4643      	mov	r3, r8
1000a892:	444b      	add	r3, r9
1000a894:	2103      	movs	r1, #3
1000a896:	003a      	movs	r2, r7
1000a898:	400a      	ands	r2, r1
1000a89a:	420f      	tst	r7, r1
1000a89c:	d02e      	beq.n	1000a8fc <_ff_push_n+0x104>
1000a89e:	2104      	movs	r1, #4
1000a8a0:	1a89      	subs	r1, r1, r2
1000a8a2:	b289      	uxth	r1, r1
1000a8a4:	1c08      	adds	r0, r1, #0
1000a8a6:	4559      	cmp	r1, fp
1000a8a8:	d900      	bls.n	1000a8ac <_ff_push_n+0xb4>
1000a8aa:	4658      	mov	r0, fp
1000a8ac:	b2c7      	uxtb	r7, r0
1000a8ae:	21ff      	movs	r1, #255	; 0xff
1000a8b0:	4001      	ands	r1, r0
1000a8b2:	4658      	mov	r0, fp
1000a8b4:	1a44      	subs	r4, r0, r1
1000a8b6:	b2a1      	uxth	r1, r4
1000a8b8:	468b      	mov	fp, r1
1000a8ba:	4651      	mov	r1, sl
1000a8bc:	6809      	ldr	r1, [r1, #0]
1000a8be:	9101      	str	r1, [sp, #4]
1000a8c0:	a901      	add	r1, sp, #4
1000a8c2:	e004      	b.n	1000a8ce <_ff_push_n+0xd6>
1000a8c4:	780a      	ldrb	r2, [r1, #0]
1000a8c6:	701a      	strb	r2, [r3, #0]
1000a8c8:	3101      	adds	r1, #1
1000a8ca:	0002      	movs	r2, r0
1000a8cc:	3301      	adds	r3, #1
1000a8ce:	1e50      	subs	r0, r2, #1
1000a8d0:	b2c0      	uxtb	r0, r0
1000a8d2:	2a00      	cmp	r2, #0
1000a8d4:	d1f6      	bne.n	1000a8c4 <_ff_push_n+0xcc>
1000a8d6:	6828      	ldr	r0, [r5, #0]
1000a8d8:	e004      	b.n	1000a8e4 <_ff_push_n+0xec>
1000a8da:	780a      	ldrb	r2, [r1, #0]
1000a8dc:	7002      	strb	r2, [r0, #0]
1000a8de:	3101      	adds	r1, #1
1000a8e0:	001f      	movs	r7, r3
1000a8e2:	3001      	adds	r0, #1
1000a8e4:	1e7b      	subs	r3, r7, #1
1000a8e6:	b2db      	uxtb	r3, r3
1000a8e8:	2f00      	cmp	r7, #0
1000a8ea:	d1f6      	bne.n	1000a8da <_ff_push_n+0xe2>
1000a8ec:	465b      	mov	r3, fp
1000a8ee:	2b00      	cmp	r3, #0
1000a8f0:	d0a2      	beq.n	1000a838 <_ff_push_n+0x40>
1000a8f2:	465a      	mov	r2, fp
1000a8f4:	4651      	mov	r1, sl
1000a8f6:	f7ff ff5f 	bl	1000a7b8 <_ff_push_const_addr>
1000a8fa:	e79d      	b.n	1000a838 <_ff_push_n+0x40>
1000a8fc:	6828      	ldr	r0, [r5, #0]
1000a8fe:	e7f5      	b.n	1000a8ec <_ff_push_n+0xf4>

1000a900 <_tu_fifo_write_n>:
1000a900:	b5f0      	push	{r4, r5, r6, r7, lr}
1000a902:	46ce      	mov	lr, r9
1000a904:	b500      	push	{lr}
1000a906:	b084      	sub	sp, #16
1000a908:	0004      	movs	r4, r0
1000a90a:	4689      	mov	r9, r1
1000a90c:	1e15      	subs	r5, r2, #0
1000a90e:	9303      	str	r3, [sp, #12]
1000a910:	d043      	beq.n	1000a99a <_tu_fifo_write_n+0x9a>
1000a912:	6940      	ldr	r0, [r0, #20]
1000a914:	2800      	cmp	r0, #0
1000a916:	d003      	beq.n	1000a920 <_tu_fifo_write_n+0x20>
1000a918:	2101      	movs	r1, #1
1000a91a:	4249      	negs	r1, r1
1000a91c:	f001 fc1c 	bl	1000c158 <__mutex_enter_timeout_ms_veneer>
1000a920:	89e7      	ldrh	r7, [r4, #14]
1000a922:	b2bf      	uxth	r7, r7
1000a924:	8a23      	ldrh	r3, [r4, #16]
1000a926:	b29b      	uxth	r3, r3
1000a928:	7a22      	ldrb	r2, [r4, #8]
1000a92a:	2a00      	cmp	r2, #0
1000a92c:	d12a      	bne.n	1000a984 <_tu_fifo_write_n+0x84>
1000a92e:	88a2      	ldrh	r2, [r4, #4]
1000a930:	1af9      	subs	r1, r7, r3
1000a932:	b289      	uxth	r1, r1
1000a934:	429f      	cmp	r7, r3
1000a936:	d202      	bcs.n	1000a93e <_tu_fifo_write_n+0x3e>
1000a938:	8963      	ldrh	r3, [r4, #10]
1000a93a:	1ac9      	subs	r1, r1, r3
1000a93c:	b289      	uxth	r1, r1
1000a93e:	1a53      	subs	r3, r2, r1
1000a940:	b29b      	uxth	r3, r3
1000a942:	1c2e      	adds	r6, r5, #0
1000a944:	429d      	cmp	r5, r3
1000a946:	d900      	bls.n	1000a94a <_tu_fifo_write_n+0x4a>
1000a948:	1c1e      	adds	r6, r3, #0
1000a94a:	b2b6      	uxth	r6, r6
1000a94c:	0039      	movs	r1, r7
1000a94e:	0020      	movs	r0, r4
1000a950:	f7ff fe00 	bl	1000a554 <get_relative_pointer>
1000a954:	0003      	movs	r3, r0
1000a956:	9a03      	ldr	r2, [sp, #12]
1000a958:	9200      	str	r2, [sp, #0]
1000a95a:	0032      	movs	r2, r6
1000a95c:	4649      	mov	r1, r9
1000a95e:	0020      	movs	r0, r4
1000a960:	f7ff ff4a 	bl	1000a7f8 <_ff_push_n>
1000a964:	0032      	movs	r2, r6
1000a966:	0039      	movs	r1, r7
1000a968:	0020      	movs	r0, r4
1000a96a:	f7ff fdd8 	bl	1000a51e <advance_pointer>
1000a96e:	81e0      	strh	r0, [r4, #14]
1000a970:	6960      	ldr	r0, [r4, #20]
1000a972:	2800      	cmp	r0, #0
1000a974:	d001      	beq.n	1000a97a <_tu_fifo_write_n+0x7a>
1000a976:	f001 fbcf 	bl	1000c118 <__mutex_exit_veneer>
1000a97a:	0030      	movs	r0, r6
1000a97c:	b004      	add	sp, #16
1000a97e:	bc80      	pop	{r7}
1000a980:	46b9      	mov	r9, r7
1000a982:	bdf0      	pop	{r4, r5, r6, r7, pc}
1000a984:	88a6      	ldrh	r6, [r4, #4]
1000a986:	42ae      	cmp	r6, r5
1000a988:	d805      	bhi.n	1000a996 <_tu_fifo_write_n+0x96>
1000a98a:	1baa      	subs	r2, r5, r6
1000a98c:	88e5      	ldrh	r5, [r4, #6]
1000a98e:	4355      	muls	r5, r2
1000a990:	44a9      	add	r9, r5
1000a992:	001f      	movs	r7, r3
1000a994:	e7da      	b.n	1000a94c <_tu_fifo_write_n+0x4c>
1000a996:	002e      	movs	r6, r5
1000a998:	e7d8      	b.n	1000a94c <_tu_fifo_write_n+0x4c>
1000a99a:	0016      	movs	r6, r2
1000a99c:	e7ed      	b.n	1000a97a <_tu_fifo_write_n+0x7a>

1000a99e <tu_fifo_config>:
1000a99e:	b5f0      	push	{r4, r5, r6, r7, lr}
1000a9a0:	b083      	sub	sp, #12
1000a9a2:	0005      	movs	r5, r0
1000a9a4:	000f      	movs	r7, r1
1000a9a6:	0014      	movs	r4, r2
1000a9a8:	9301      	str	r3, [sp, #4]
1000a9aa:	ab08      	add	r3, sp, #32
1000a9ac:	781e      	ldrb	r6, [r3, #0]
1000a9ae:	2380      	movs	r3, #128	; 0x80
1000a9b0:	021b      	lsls	r3, r3, #8
1000a9b2:	429a      	cmp	r2, r3
1000a9b4:	d828      	bhi.n	1000aa08 <tu_fifo_config+0x6a>
1000a9b6:	6940      	ldr	r0, [r0, #20]
1000a9b8:	2800      	cmp	r0, #0
1000a9ba:	d003      	beq.n	1000a9c4 <tu_fifo_config+0x26>
1000a9bc:	2101      	movs	r1, #1
1000a9be:	4249      	negs	r1, r1
1000a9c0:	f001 fbca 	bl	1000c158 <__mutex_enter_timeout_ms_veneer>
1000a9c4:	69a8      	ldr	r0, [r5, #24]
1000a9c6:	2800      	cmp	r0, #0
1000a9c8:	d003      	beq.n	1000a9d2 <tu_fifo_config+0x34>
1000a9ca:	2101      	movs	r1, #1
1000a9cc:	4249      	negs	r1, r1
1000a9ce:	f001 fbc3 	bl	1000c158 <__mutex_enter_timeout_ms_veneer>
1000a9d2:	602f      	str	r7, [r5, #0]
1000a9d4:	80ac      	strh	r4, [r5, #4]
1000a9d6:	9b01      	ldr	r3, [sp, #4]
1000a9d8:	80eb      	strh	r3, [r5, #6]
1000a9da:	722e      	strb	r6, [r5, #8]
1000a9dc:	0064      	lsls	r4, r4, #1
1000a9de:	3c01      	subs	r4, #1
1000a9e0:	b2a4      	uxth	r4, r4
1000a9e2:	81ac      	strh	r4, [r5, #12]
1000a9e4:	43e4      	mvns	r4, r4
1000a9e6:	816c      	strh	r4, [r5, #10]
1000a9e8:	2300      	movs	r3, #0
1000a9ea:	81eb      	strh	r3, [r5, #14]
1000a9ec:	822b      	strh	r3, [r5, #16]
1000a9ee:	6968      	ldr	r0, [r5, #20]
1000a9f0:	2800      	cmp	r0, #0
1000a9f2:	d001      	beq.n	1000a9f8 <tu_fifo_config+0x5a>
1000a9f4:	f001 fb90 	bl	1000c118 <__mutex_exit_veneer>
1000a9f8:	69a8      	ldr	r0, [r5, #24]
1000a9fa:	2800      	cmp	r0, #0
1000a9fc:	d006      	beq.n	1000aa0c <tu_fifo_config+0x6e>
1000a9fe:	f001 fb8b 	bl	1000c118 <__mutex_exit_veneer>
1000aa02:	2001      	movs	r0, #1
1000aa04:	b003      	add	sp, #12
1000aa06:	bdf0      	pop	{r4, r5, r6, r7, pc}
1000aa08:	2000      	movs	r0, #0
1000aa0a:	e7fb      	b.n	1000aa04 <tu_fifo_config+0x66>
1000aa0c:	2001      	movs	r0, #1
1000aa0e:	e7f9      	b.n	1000aa04 <tu_fifo_config+0x66>

1000aa10 <tu_fifo_count>:
1000aa10:	b510      	push	{r4, lr}
1000aa12:	89c3      	ldrh	r3, [r0, #14]
1000aa14:	b29c      	uxth	r4, r3
1000aa16:	8a02      	ldrh	r2, [r0, #16]
1000aa18:	b291      	uxth	r1, r2
1000aa1a:	1a9b      	subs	r3, r3, r2
1000aa1c:	b29b      	uxth	r3, r3
1000aa1e:	428c      	cmp	r4, r1
1000aa20:	d202      	bcs.n	1000aa28 <tu_fifo_count+0x18>
1000aa22:	8942      	ldrh	r2, [r0, #10]
1000aa24:	1a9b      	subs	r3, r3, r2
1000aa26:	b29b      	uxth	r3, r3
1000aa28:	8882      	ldrh	r2, [r0, #4]
1000aa2a:	1c10      	adds	r0, r2, #0
1000aa2c:	429a      	cmp	r2, r3
1000aa2e:	d900      	bls.n	1000aa32 <tu_fifo_count+0x22>
1000aa30:	1c18      	adds	r0, r3, #0
1000aa32:	b280      	uxth	r0, r0
1000aa34:	bd10      	pop	{r4, pc}

1000aa36 <tu_fifo_empty>:
1000aa36:	0003      	movs	r3, r0
1000aa38:	89c0      	ldrh	r0, [r0, #14]
1000aa3a:	8a1b      	ldrh	r3, [r3, #16]
1000aa3c:	1ac0      	subs	r0, r0, r3
1000aa3e:	4243      	negs	r3, r0
1000aa40:	4158      	adcs	r0, r3
1000aa42:	b2c0      	uxtb	r0, r0
1000aa44:	4770      	bx	lr

1000aa46 <tu_fifo_remaining>:
1000aa46:	b530      	push	{r4, r5, lr}
1000aa48:	89c3      	ldrh	r3, [r0, #14]
1000aa4a:	b29d      	uxth	r5, r3
1000aa4c:	8a01      	ldrh	r1, [r0, #16]
1000aa4e:	b28c      	uxth	r4, r1
1000aa50:	8882      	ldrh	r2, [r0, #4]
1000aa52:	1a5b      	subs	r3, r3, r1
1000aa54:	b29b      	uxth	r3, r3
1000aa56:	42a5      	cmp	r5, r4
1000aa58:	d202      	bcs.n	1000aa60 <tu_fifo_remaining+0x1a>
1000aa5a:	8940      	ldrh	r0, [r0, #10]
1000aa5c:	1a1b      	subs	r3, r3, r0
1000aa5e:	b29b      	uxth	r3, r3
1000aa60:	1ad0      	subs	r0, r2, r3
1000aa62:	b280      	uxth	r0, r0
1000aa64:	bd30      	pop	{r4, r5, pc}

1000aa66 <tu_fifo_read>:
1000aa66:	b570      	push	{r4, r5, r6, lr}
1000aa68:	0004      	movs	r4, r0
1000aa6a:	000d      	movs	r5, r1
1000aa6c:	6980      	ldr	r0, [r0, #24]
1000aa6e:	2800      	cmp	r0, #0
1000aa70:	d003      	beq.n	1000aa7a <tu_fifo_read+0x14>
1000aa72:	2101      	movs	r1, #1
1000aa74:	4249      	negs	r1, r1
1000aa76:	f001 fb6f 	bl	1000c158 <__mutex_enter_timeout_ms_veneer>
1000aa7a:	89e2      	ldrh	r2, [r4, #14]
1000aa7c:	b292      	uxth	r2, r2
1000aa7e:	8a23      	ldrh	r3, [r4, #16]
1000aa80:	b29b      	uxth	r3, r3
1000aa82:	0029      	movs	r1, r5
1000aa84:	0020      	movs	r0, r4
1000aa86:	f7ff fd6d 	bl	1000a564 <_tu_fifo_peek>
1000aa8a:	0005      	movs	r5, r0
1000aa8c:	8a21      	ldrh	r1, [r4, #16]
1000aa8e:	b289      	uxth	r1, r1
1000aa90:	b282      	uxth	r2, r0
1000aa92:	0020      	movs	r0, r4
1000aa94:	f7ff fd43 	bl	1000a51e <advance_pointer>
1000aa98:	8220      	strh	r0, [r4, #16]
1000aa9a:	69a0      	ldr	r0, [r4, #24]
1000aa9c:	2800      	cmp	r0, #0
1000aa9e:	d001      	beq.n	1000aaa4 <tu_fifo_read+0x3e>
1000aaa0:	f001 fb3a 	bl	1000c118 <__mutex_exit_veneer>
1000aaa4:	0028      	movs	r0, r5
1000aaa6:	bd70      	pop	{r4, r5, r6, pc}

1000aaa8 <tu_fifo_read_n>:
1000aaa8:	b510      	push	{r4, lr}
1000aaaa:	2300      	movs	r3, #0
1000aaac:	f7ff fe5d 	bl	1000a76a <_tu_fifo_read_n>
1000aab0:	bd10      	pop	{r4, pc}

1000aab2 <tu_fifo_write>:
1000aab2:	b570      	push	{r4, r5, r6, lr}
1000aab4:	0004      	movs	r4, r0
1000aab6:	000d      	movs	r5, r1
1000aab8:	6940      	ldr	r0, [r0, #20]
1000aaba:	2800      	cmp	r0, #0
1000aabc:	d003      	beq.n	1000aac6 <tu_fifo_write+0x14>
1000aabe:	2101      	movs	r1, #1
1000aac0:	4249      	negs	r1, r1
1000aac2:	f001 fb49 	bl	1000c158 <__mutex_enter_timeout_ms_veneer>
1000aac6:	89e3      	ldrh	r3, [r4, #14]
1000aac8:	b29e      	uxth	r6, r3
1000aaca:	8a22      	ldrh	r2, [r4, #16]
1000aacc:	b291      	uxth	r1, r2
1000aace:	1a9b      	subs	r3, r3, r2
1000aad0:	b29b      	uxth	r3, r3
1000aad2:	42b1      	cmp	r1, r6
1000aad4:	d902      	bls.n	1000aadc <tu_fifo_write+0x2a>
1000aad6:	8962      	ldrh	r2, [r4, #10]
1000aad8:	1a9b      	subs	r3, r3, r2
1000aada:	b29b      	uxth	r3, r3
1000aadc:	88a2      	ldrh	r2, [r4, #4]
1000aade:	429a      	cmp	r2, r3
1000aae0:	d102      	bne.n	1000aae8 <tu_fifo_write+0x36>
1000aae2:	7a20      	ldrb	r0, [r4, #8]
1000aae4:	2800      	cmp	r0, #0
1000aae6:	d017      	beq.n	1000ab18 <tu_fifo_write+0x66>
1000aae8:	0031      	movs	r1, r6
1000aaea:	0020      	movs	r0, r4
1000aaec:	f7ff fd32 	bl	1000a554 <get_relative_pointer>
1000aaf0:	88e2      	ldrh	r2, [r4, #6]
1000aaf2:	4350      	muls	r0, r2
1000aaf4:	6823      	ldr	r3, [r4, #0]
1000aaf6:	469c      	mov	ip, r3
1000aaf8:	4460      	add	r0, ip
1000aafa:	0029      	movs	r1, r5
1000aafc:	f7fd f8da 	bl	10007cb4 <__wrap___aeabi_memcpy>
1000ab00:	2201      	movs	r2, #1
1000ab02:	0031      	movs	r1, r6
1000ab04:	0020      	movs	r0, r4
1000ab06:	f7ff fd0a 	bl	1000a51e <advance_pointer>
1000ab0a:	81e0      	strh	r0, [r4, #14]
1000ab0c:	6960      	ldr	r0, [r4, #20]
1000ab0e:	2800      	cmp	r0, #0
1000ab10:	d003      	beq.n	1000ab1a <tu_fifo_write+0x68>
1000ab12:	f001 fb01 	bl	1000c118 <__mutex_exit_veneer>
1000ab16:	2001      	movs	r0, #1
1000ab18:	bd70      	pop	{r4, r5, r6, pc}
1000ab1a:	2001      	movs	r0, #1
1000ab1c:	e7fc      	b.n	1000ab18 <tu_fifo_write+0x66>

1000ab1e <tu_fifo_write_n>:
1000ab1e:	b510      	push	{r4, lr}
1000ab20:	2300      	movs	r3, #0
1000ab22:	f7ff feed 	bl	1000a900 <_tu_fifo_write_n>
1000ab26:	bd10      	pop	{r4, pc}

1000ab28 <tu_fifo_clear>:
1000ab28:	b510      	push	{r4, lr}
1000ab2a:	0004      	movs	r4, r0
1000ab2c:	6940      	ldr	r0, [r0, #20]
1000ab2e:	2800      	cmp	r0, #0
1000ab30:	d003      	beq.n	1000ab3a <tu_fifo_clear+0x12>
1000ab32:	2101      	movs	r1, #1
1000ab34:	4249      	negs	r1, r1
1000ab36:	f001 fb0f 	bl	1000c158 <__mutex_enter_timeout_ms_veneer>
1000ab3a:	69a0      	ldr	r0, [r4, #24]
1000ab3c:	2800      	cmp	r0, #0
1000ab3e:	d003      	beq.n	1000ab48 <tu_fifo_clear+0x20>
1000ab40:	2101      	movs	r1, #1
1000ab42:	4249      	negs	r1, r1
1000ab44:	f001 fb08 	bl	1000c158 <__mutex_enter_timeout_ms_veneer>
1000ab48:	2300      	movs	r3, #0
1000ab4a:	81e3      	strh	r3, [r4, #14]
1000ab4c:	8223      	strh	r3, [r4, #16]
1000ab4e:	88a3      	ldrh	r3, [r4, #4]
1000ab50:	005b      	lsls	r3, r3, #1
1000ab52:	3b01      	subs	r3, #1
1000ab54:	b29b      	uxth	r3, r3
1000ab56:	81a3      	strh	r3, [r4, #12]
1000ab58:	43db      	mvns	r3, r3
1000ab5a:	8163      	strh	r3, [r4, #10]
1000ab5c:	6960      	ldr	r0, [r4, #20]
1000ab5e:	2800      	cmp	r0, #0
1000ab60:	d001      	beq.n	1000ab66 <tu_fifo_clear+0x3e>
1000ab62:	f001 fad9 	bl	1000c118 <__mutex_exit_veneer>
1000ab66:	69a0      	ldr	r0, [r4, #24]
1000ab68:	2800      	cmp	r0, #0
1000ab6a:	d001      	beq.n	1000ab70 <tu_fifo_clear+0x48>
1000ab6c:	f001 fad4 	bl	1000c118 <__mutex_exit_veneer>
1000ab70:	2001      	movs	r0, #1
1000ab72:	bd10      	pop	{r4, pc}

1000ab74 <tu_fifo_set_overwritable>:
1000ab74:	b570      	push	{r4, r5, r6, lr}
1000ab76:	0004      	movs	r4, r0
1000ab78:	000d      	movs	r5, r1
1000ab7a:	6940      	ldr	r0, [r0, #20]
1000ab7c:	2800      	cmp	r0, #0
1000ab7e:	d003      	beq.n	1000ab88 <tu_fifo_set_overwritable+0x14>
1000ab80:	2101      	movs	r1, #1
1000ab82:	4249      	negs	r1, r1
1000ab84:	f001 fae8 	bl	1000c158 <__mutex_enter_timeout_ms_veneer>
1000ab88:	69a0      	ldr	r0, [r4, #24]
1000ab8a:	2800      	cmp	r0, #0
1000ab8c:	d003      	beq.n	1000ab96 <tu_fifo_set_overwritable+0x22>
1000ab8e:	2101      	movs	r1, #1
1000ab90:	4249      	negs	r1, r1
1000ab92:	f001 fae1 	bl	1000c158 <__mutex_enter_timeout_ms_veneer>
1000ab96:	7225      	strb	r5, [r4, #8]
1000ab98:	6960      	ldr	r0, [r4, #20]
1000ab9a:	2800      	cmp	r0, #0
1000ab9c:	d001      	beq.n	1000aba2 <tu_fifo_set_overwritable+0x2e>
1000ab9e:	f001 fabb 	bl	1000c118 <__mutex_exit_veneer>
1000aba2:	69a0      	ldr	r0, [r4, #24]
1000aba4:	2800      	cmp	r0, #0
1000aba6:	d001      	beq.n	1000abac <tu_fifo_set_overwritable+0x38>
1000aba8:	f001 fab6 	bl	1000c118 <__mutex_exit_veneer>
1000abac:	2001      	movs	r0, #1
1000abae:	bd70      	pop	{r4, r5, r6, pc}

1000abb0 <_retrieve_unique_id_on_boot>:
1000abb0:	b510      	push	{r4, lr}
1000abb2:	4802      	ldr	r0, [pc, #8]	; (1000abbc <_retrieve_unique_id_on_boot+0xc>)
1000abb4:	f000 f834 	bl	1000ac20 <flash_get_unique_id>
1000abb8:	bd10      	pop	{r4, pc}
1000abba:	46c0      	nop			; (mov r8, r8)
1000abbc:	200018e4 	.word	0x200018e4

1000abc0 <pico_get_unique_board_id_string>:
1000abc0:	b510      	push	{r4, lr}
1000abc2:	2900      	cmp	r1, #0
1000abc4:	d001      	beq.n	1000abca <pico_get_unique_board_id_string+0xa>
1000abc6:	2300      	movs	r3, #0
1000abc8:	e00a      	b.n	1000abe0 <pico_get_unique_board_id_string+0x20>
1000abca:	4b11      	ldr	r3, [pc, #68]	; (1000ac10 <pico_get_unique_board_id_string+0x50>)
1000abcc:	4a11      	ldr	r2, [pc, #68]	; (1000ac14 <pico_get_unique_board_id_string+0x54>)
1000abce:	311f      	adds	r1, #31
1000abd0:	4811      	ldr	r0, [pc, #68]	; (1000ac18 <pico_get_unique_board_id_string+0x58>)
1000abd2:	f7fa fd6d 	bl	100056b0 <__assert_func>
1000abd6:	2400      	movs	r4, #0
1000abd8:	e00d      	b.n	1000abf6 <pico_get_unique_board_id_string+0x36>
1000abda:	3237      	adds	r2, #55	; 0x37
1000abdc:	54c2      	strb	r2, [r0, r3]
1000abde:	3301      	adds	r3, #1
1000abe0:	1e4a      	subs	r2, r1, #1
1000abe2:	429a      	cmp	r2, r3
1000abe4:	d90f      	bls.n	1000ac06 <pico_get_unique_board_id_string+0x46>
1000abe6:	2b0f      	cmp	r3, #15
1000abe8:	d80d      	bhi.n	1000ac06 <pico_get_unique_board_id_string+0x46>
1000abea:	085a      	lsrs	r2, r3, #1
1000abec:	4c0b      	ldr	r4, [pc, #44]	; (1000ac1c <pico_get_unique_board_id_string+0x5c>)
1000abee:	5ca2      	ldrb	r2, [r4, r2]
1000abf0:	07dc      	lsls	r4, r3, #31
1000abf2:	d4f0      	bmi.n	1000abd6 <pico_get_unique_board_id_string+0x16>
1000abf4:	2404      	movs	r4, #4
1000abf6:	4122      	asrs	r2, r4
1000abf8:	0014      	movs	r4, r2
1000abfa:	220f      	movs	r2, #15
1000abfc:	4022      	ands	r2, r4
1000abfe:	2a09      	cmp	r2, #9
1000ac00:	dceb      	bgt.n	1000abda <pico_get_unique_board_id_string+0x1a>
1000ac02:	3230      	adds	r2, #48	; 0x30
1000ac04:	e7ea      	b.n	1000abdc <pico_get_unique_board_id_string+0x1c>
1000ac06:	18c0      	adds	r0, r0, r3
1000ac08:	2300      	movs	r3, #0
1000ac0a:	7003      	strb	r3, [r0, #0]
1000ac0c:	bd10      	pop	{r4, pc}
1000ac0e:	46c0      	nop			; (mov r8, r8)
1000ac10:	1000dc98 	.word	0x1000dc98
1000ac14:	1000dcf0 	.word	0x1000dcf0
1000ac18:	1000dca0 	.word	0x1000dca0
1000ac1c:	200018e4 	.word	0x200018e4

1000ac20 <flash_get_unique_id>:
1000ac20:	b570      	push	{r4, r5, r6, lr}
1000ac22:	b088      	sub	sp, #32
1000ac24:	0004      	movs	r4, r0
1000ac26:	ad04      	add	r5, sp, #16
1000ac28:	2600      	movs	r6, #0
1000ac2a:	9604      	str	r6, [sp, #16]
1000ac2c:	2209      	movs	r2, #9
1000ac2e:	2100      	movs	r1, #0
1000ac30:	a805      	add	r0, sp, #20
1000ac32:	f7fd f839 	bl	10007ca8 <__wrap_memset>
1000ac36:	9600      	str	r6, [sp, #0]
1000ac38:	2209      	movs	r2, #9
1000ac3a:	2100      	movs	r1, #0
1000ac3c:	a801      	add	r0, sp, #4
1000ac3e:	f7fd f833 	bl	10007ca8 <__wrap_memset>
1000ac42:	234b      	movs	r3, #75	; 0x4b
1000ac44:	702b      	strb	r3, [r5, #0]
1000ac46:	220d      	movs	r2, #13
1000ac48:	4669      	mov	r1, sp
1000ac4a:	0028      	movs	r0, r5
1000ac4c:	f001 fa5c 	bl	1000c108 <__flash_do_cmd_veneer>
1000ac50:	2300      	movs	r3, #0
1000ac52:	e004      	b.n	1000ac5e <flash_get_unique_id+0x3e>
1000ac54:	1d5a      	adds	r2, r3, #5
1000ac56:	4669      	mov	r1, sp
1000ac58:	5c8a      	ldrb	r2, [r1, r2]
1000ac5a:	54e2      	strb	r2, [r4, r3]
1000ac5c:	3301      	adds	r3, #1
1000ac5e:	2b07      	cmp	r3, #7
1000ac60:	ddf8      	ble.n	1000ac54 <flash_get_unique_id+0x34>
1000ac62:	b008      	add	sp, #32
1000ac64:	bd70      	pop	{r4, r5, r6, pc}
	...

1000ac68 <atoi>:
1000ac68:	b510      	push	{r4, lr}
1000ac6a:	220a      	movs	r2, #10
1000ac6c:	2100      	movs	r1, #0
1000ac6e:	f000 fca1 	bl	1000b5b4 <strtol>
1000ac72:	bd10      	pop	{r4, pc}

1000ac74 <calloc>:
1000ac74:	0003      	movs	r3, r0
1000ac76:	b510      	push	{r4, lr}
1000ac78:	000a      	movs	r2, r1
1000ac7a:	4903      	ldr	r1, [pc, #12]	; (1000ac88 <calloc+0x14>)
1000ac7c:	6808      	ldr	r0, [r1, #0]
1000ac7e:	0019      	movs	r1, r3
1000ac80:	f000 f804 	bl	1000ac8c <_calloc_r>
1000ac84:	bd10      	pop	{r4, pc}
1000ac86:	46c0      	nop			; (mov r8, r8)
1000ac88:	20000500 	.word	0x20000500

1000ac8c <_calloc_r>:
1000ac8c:	b570      	push	{r4, r5, r6, lr}
1000ac8e:	0c0b      	lsrs	r3, r1, #16
1000ac90:	2400      	movs	r4, #0
1000ac92:	0c15      	lsrs	r5, r2, #16
1000ac94:	2b00      	cmp	r3, #0
1000ac96:	d128      	bne.n	1000acea <_calloc_r+0x5e>
1000ac98:	2d00      	cmp	r5, #0
1000ac9a:	d137      	bne.n	1000ad0c <_calloc_r+0x80>
1000ac9c:	b28b      	uxth	r3, r1
1000ac9e:	b291      	uxth	r1, r2
1000aca0:	4359      	muls	r1, r3
1000aca2:	f000 f8af 	bl	1000ae04 <_malloc_r>
1000aca6:	1e05      	subs	r5, r0, #0
1000aca8:	d019      	beq.n	1000acde <_calloc_r+0x52>
1000acaa:	0003      	movs	r3, r0
1000acac:	3b08      	subs	r3, #8
1000acae:	685a      	ldr	r2, [r3, #4]
1000acb0:	2303      	movs	r3, #3
1000acb2:	439a      	bics	r2, r3
1000acb4:	3a04      	subs	r2, #4
1000acb6:	2a24      	cmp	r2, #36	; 0x24
1000acb8:	d813      	bhi.n	1000ace2 <_calloc_r+0x56>
1000acba:	0003      	movs	r3, r0
1000acbc:	2a13      	cmp	r2, #19
1000acbe:	d90a      	bls.n	1000acd6 <_calloc_r+0x4a>
1000acc0:	6004      	str	r4, [r0, #0]
1000acc2:	6044      	str	r4, [r0, #4]
1000acc4:	3308      	adds	r3, #8
1000acc6:	2a1b      	cmp	r2, #27
1000acc8:	d905      	bls.n	1000acd6 <_calloc_r+0x4a>
1000acca:	6084      	str	r4, [r0, #8]
1000accc:	60c4      	str	r4, [r0, #12]
1000acce:	2a24      	cmp	r2, #36	; 0x24
1000acd0:	d025      	beq.n	1000ad1e <_calloc_r+0x92>
1000acd2:	0003      	movs	r3, r0
1000acd4:	3310      	adds	r3, #16
1000acd6:	2200      	movs	r2, #0
1000acd8:	601a      	str	r2, [r3, #0]
1000acda:	605a      	str	r2, [r3, #4]
1000acdc:	609a      	str	r2, [r3, #8]
1000acde:	0028      	movs	r0, r5
1000ace0:	bd70      	pop	{r4, r5, r6, pc}
1000ace2:	2100      	movs	r1, #0
1000ace4:	f7fc ffe0 	bl	10007ca8 <__wrap_memset>
1000ace8:	e7f9      	b.n	1000acde <_calloc_r+0x52>
1000acea:	2d00      	cmp	r5, #0
1000acec:	d111      	bne.n	1000ad12 <_calloc_r+0x86>
1000acee:	1c15      	adds	r5, r2, #0
1000acf0:	b289      	uxth	r1, r1
1000acf2:	b292      	uxth	r2, r2
1000acf4:	434a      	muls	r2, r1
1000acf6:	b2ad      	uxth	r5, r5
1000acf8:	b29b      	uxth	r3, r3
1000acfa:	436b      	muls	r3, r5
1000acfc:	0c11      	lsrs	r1, r2, #16
1000acfe:	185b      	adds	r3, r3, r1
1000ad00:	0c19      	lsrs	r1, r3, #16
1000ad02:	d106      	bne.n	1000ad12 <_calloc_r+0x86>
1000ad04:	0419      	lsls	r1, r3, #16
1000ad06:	b292      	uxth	r2, r2
1000ad08:	4311      	orrs	r1, r2
1000ad0a:	e7ca      	b.n	1000aca2 <_calloc_r+0x16>
1000ad0c:	1c2b      	adds	r3, r5, #0
1000ad0e:	1c0d      	adds	r5, r1, #0
1000ad10:	e7ee      	b.n	1000acf0 <_calloc_r+0x64>
1000ad12:	f000 f809 	bl	1000ad28 <__errno>
1000ad16:	230c      	movs	r3, #12
1000ad18:	2500      	movs	r5, #0
1000ad1a:	6003      	str	r3, [r0, #0]
1000ad1c:	e7df      	b.n	1000acde <_calloc_r+0x52>
1000ad1e:	0003      	movs	r3, r0
1000ad20:	6104      	str	r4, [r0, #16]
1000ad22:	3318      	adds	r3, #24
1000ad24:	6144      	str	r4, [r0, #20]
1000ad26:	e7d6      	b.n	1000acd6 <_calloc_r+0x4a>

1000ad28 <__errno>:
1000ad28:	4b01      	ldr	r3, [pc, #4]	; (1000ad30 <__errno+0x8>)
1000ad2a:	6818      	ldr	r0, [r3, #0]
1000ad2c:	4770      	bx	lr
1000ad2e:	46c0      	nop			; (mov r8, r8)
1000ad30:	20000500 	.word	0x20000500

1000ad34 <_gets_r>:
1000ad34:	b5f8      	push	{r3, r4, r5, r6, r7, lr}
1000ad36:	6b83      	ldr	r3, [r0, #56]	; 0x38
1000ad38:	0006      	movs	r6, r0
1000ad3a:	000f      	movs	r7, r1
1000ad3c:	6844      	ldr	r4, [r0, #4]
1000ad3e:	2b00      	cmp	r3, #0
1000ad40:	d02a      	beq.n	1000ad98 <_gets_r+0x64>
1000ad42:	6e63      	ldr	r3, [r4, #100]	; 0x64
1000ad44:	07db      	lsls	r3, r3, #31
1000ad46:	d402      	bmi.n	1000ad4e <_gets_r+0x1a>
1000ad48:	89a3      	ldrh	r3, [r4, #12]
1000ad4a:	059b      	lsls	r3, r3, #22
1000ad4c:	d52b      	bpl.n	1000ada6 <_gets_r+0x72>
1000ad4e:	003d      	movs	r5, r7
1000ad50:	e007      	b.n	1000ad62 <_gets_r+0x2e>
1000ad52:	6823      	ldr	r3, [r4, #0]
1000ad54:	1c5a      	adds	r2, r3, #1
1000ad56:	6022      	str	r2, [r4, #0]
1000ad58:	7818      	ldrb	r0, [r3, #0]
1000ad5a:	280a      	cmp	r0, #10
1000ad5c:	d012      	beq.n	1000ad84 <_gets_r+0x50>
1000ad5e:	7028      	strb	r0, [r5, #0]
1000ad60:	3501      	adds	r5, #1
1000ad62:	6863      	ldr	r3, [r4, #4]
1000ad64:	3b01      	subs	r3, #1
1000ad66:	6063      	str	r3, [r4, #4]
1000ad68:	2b00      	cmp	r3, #0
1000ad6a:	daf2      	bge.n	1000ad52 <_gets_r+0x1e>
1000ad6c:	0021      	movs	r1, r4
1000ad6e:	0030      	movs	r0, r6
1000ad70:	f000 fb1a 	bl	1000b3a8 <__srget_r>
1000ad74:	280a      	cmp	r0, #10
1000ad76:	d005      	beq.n	1000ad84 <_gets_r+0x50>
1000ad78:	1c43      	adds	r3, r0, #1
1000ad7a:	d001      	beq.n	1000ad80 <_gets_r+0x4c>
1000ad7c:	b2c0      	uxtb	r0, r0
1000ad7e:	e7ee      	b.n	1000ad5e <_gets_r+0x2a>
1000ad80:	42bd      	cmp	r5, r7
1000ad82:	d014      	beq.n	1000adae <_gets_r+0x7a>
1000ad84:	2300      	movs	r3, #0
1000ad86:	702b      	strb	r3, [r5, #0]
1000ad88:	6e63      	ldr	r3, [r4, #100]	; 0x64
1000ad8a:	07db      	lsls	r3, r3, #31
1000ad8c:	d402      	bmi.n	1000ad94 <_gets_r+0x60>
1000ad8e:	89a3      	ldrh	r3, [r4, #12]
1000ad90:	059b      	lsls	r3, r3, #22
1000ad92:	d504      	bpl.n	1000ad9e <_gets_r+0x6a>
1000ad94:	0038      	movs	r0, r7
1000ad96:	bdf8      	pop	{r3, r4, r5, r6, r7, pc}
1000ad98:	f000 fc2a 	bl	1000b5f0 <__sinit>
1000ad9c:	e7d1      	b.n	1000ad42 <_gets_r+0xe>
1000ad9e:	6da0      	ldr	r0, [r4, #88]	; 0x58
1000ada0:	f000 f81a 	bl	1000add8 <__retarget_lock_release_recursive>
1000ada4:	e7f6      	b.n	1000ad94 <_gets_r+0x60>
1000ada6:	6da0      	ldr	r0, [r4, #88]	; 0x58
1000ada8:	f000 f814 	bl	1000add4 <__retarget_lock_acquire_recursive>
1000adac:	e7cf      	b.n	1000ad4e <_gets_r+0x1a>
1000adae:	6e63      	ldr	r3, [r4, #100]	; 0x64
1000adb0:	2700      	movs	r7, #0
1000adb2:	07db      	lsls	r3, r3, #31
1000adb4:	d4ee      	bmi.n	1000ad94 <_gets_r+0x60>
1000adb6:	e7ea      	b.n	1000ad8e <_gets_r+0x5a>

1000adb8 <gets>:
1000adb8:	b510      	push	{r4, lr}
1000adba:	4b03      	ldr	r3, [pc, #12]	; (1000adc8 <gets+0x10>)
1000adbc:	0001      	movs	r1, r0
1000adbe:	6818      	ldr	r0, [r3, #0]
1000adc0:	f7ff ffb8 	bl	1000ad34 <_gets_r>
1000adc4:	bd10      	pop	{r4, pc}
1000adc6:	46c0      	nop			; (mov r8, r8)
1000adc8:	20000500 	.word	0x20000500

1000adcc <__retarget_lock_init_recursive>:
1000adcc:	4770      	bx	lr
1000adce:	46c0      	nop			; (mov r8, r8)

1000add0 <__retarget_lock_close_recursive>:
1000add0:	4770      	bx	lr
1000add2:	46c0      	nop			; (mov r8, r8)

1000add4 <__retarget_lock_acquire_recursive>:
1000add4:	4770      	bx	lr
1000add6:	46c0      	nop			; (mov r8, r8)

1000add8 <__retarget_lock_release_recursive>:
1000add8:	4770      	bx	lr
1000adda:	46c0      	nop			; (mov r8, r8)

1000addc <malloc>:
1000addc:	b510      	push	{r4, lr}
1000adde:	4b03      	ldr	r3, [pc, #12]	; (1000adec <malloc+0x10>)
1000ade0:	0001      	movs	r1, r0
1000ade2:	6818      	ldr	r0, [r3, #0]
1000ade4:	f000 f80e 	bl	1000ae04 <_malloc_r>
1000ade8:	bd10      	pop	{r4, pc}
1000adea:	46c0      	nop			; (mov r8, r8)
1000adec:	20000500 	.word	0x20000500

1000adf0 <free>:
1000adf0:	b510      	push	{r4, lr}
1000adf2:	4b03      	ldr	r3, [pc, #12]	; (1000ae00 <free+0x10>)
1000adf4:	0001      	movs	r1, r0
1000adf6:	6818      	ldr	r0, [r3, #0]
1000adf8:	f000 fce8 	bl	1000b7cc <_free_r>
1000adfc:	bd10      	pop	{r4, pc}
1000adfe:	46c0      	nop			; (mov r8, r8)
1000ae00:	20000500 	.word	0x20000500

1000ae04 <_malloc_r>:
1000ae04:	b5f0      	push	{r4, r5, r6, r7, lr}
1000ae06:	464e      	mov	r6, r9
1000ae08:	4645      	mov	r5, r8
1000ae0a:	46de      	mov	lr, fp
1000ae0c:	4657      	mov	r7, sl
1000ae0e:	b5e0      	push	{r5, r6, r7, lr}
1000ae10:	000d      	movs	r5, r1
1000ae12:	350b      	adds	r5, #11
1000ae14:	0006      	movs	r6, r0
1000ae16:	b083      	sub	sp, #12
1000ae18:	2d16      	cmp	r5, #22
1000ae1a:	d822      	bhi.n	1000ae62 <_malloc_r+0x5e>
1000ae1c:	2910      	cmp	r1, #16
1000ae1e:	d900      	bls.n	1000ae22 <_malloc_r+0x1e>
1000ae20:	e0b2      	b.n	1000af88 <_malloc_r+0x184>
1000ae22:	f000 fab1 	bl	1000b388 <__malloc_lock>
1000ae26:	2510      	movs	r5, #16
1000ae28:	2318      	movs	r3, #24
1000ae2a:	2002      	movs	r0, #2
1000ae2c:	4fcc      	ldr	r7, [pc, #816]	; (1000b160 <_malloc_r+0x35c>)
1000ae2e:	18fb      	adds	r3, r7, r3
1000ae30:	001a      	movs	r2, r3
1000ae32:	685c      	ldr	r4, [r3, #4]
1000ae34:	3a08      	subs	r2, #8
1000ae36:	4294      	cmp	r4, r2
1000ae38:	d100      	bne.n	1000ae3c <_malloc_r+0x38>
1000ae3a:	e0b5      	b.n	1000afa8 <_malloc_r+0x1a4>
1000ae3c:	2303      	movs	r3, #3
1000ae3e:	6862      	ldr	r2, [r4, #4]
1000ae40:	439a      	bics	r2, r3
1000ae42:	0013      	movs	r3, r2
1000ae44:	68e2      	ldr	r2, [r4, #12]
1000ae46:	68a1      	ldr	r1, [r4, #8]
1000ae48:	60ca      	str	r2, [r1, #12]
1000ae4a:	6091      	str	r1, [r2, #8]
1000ae4c:	2201      	movs	r2, #1
1000ae4e:	18e3      	adds	r3, r4, r3
1000ae50:	6859      	ldr	r1, [r3, #4]
1000ae52:	0030      	movs	r0, r6
1000ae54:	430a      	orrs	r2, r1
1000ae56:	605a      	str	r2, [r3, #4]
1000ae58:	f000 fa9e 	bl	1000b398 <__malloc_unlock>
1000ae5c:	0020      	movs	r0, r4
1000ae5e:	3008      	adds	r0, #8
1000ae60:	e095      	b.n	1000af8e <_malloc_r+0x18a>
1000ae62:	2307      	movs	r3, #7
1000ae64:	439d      	bics	r5, r3
1000ae66:	d500      	bpl.n	1000ae6a <_malloc_r+0x66>
1000ae68:	e08e      	b.n	1000af88 <_malloc_r+0x184>
1000ae6a:	42a9      	cmp	r1, r5
1000ae6c:	d900      	bls.n	1000ae70 <_malloc_r+0x6c>
1000ae6e:	e08b      	b.n	1000af88 <_malloc_r+0x184>
1000ae70:	f000 fa8a 	bl	1000b388 <__malloc_lock>
1000ae74:	23fc      	movs	r3, #252	; 0xfc
1000ae76:	005b      	lsls	r3, r3, #1
1000ae78:	429d      	cmp	r5, r3
1000ae7a:	d200      	bcs.n	1000ae7e <_malloc_r+0x7a>
1000ae7c:	e1a7      	b.n	1000b1ce <_malloc_r+0x3ca>
1000ae7e:	0a68      	lsrs	r0, r5, #9
1000ae80:	d100      	bne.n	1000ae84 <_malloc_r+0x80>
1000ae82:	e08b      	b.n	1000af9c <_malloc_r+0x198>
1000ae84:	2804      	cmp	r0, #4
1000ae86:	d900      	bls.n	1000ae8a <_malloc_r+0x86>
1000ae88:	e17a      	b.n	1000b180 <_malloc_r+0x37c>
1000ae8a:	2338      	movs	r3, #56	; 0x38
1000ae8c:	4698      	mov	r8, r3
1000ae8e:	09a8      	lsrs	r0, r5, #6
1000ae90:	4480      	add	r8, r0
1000ae92:	3039      	adds	r0, #57	; 0x39
1000ae94:	00c1      	lsls	r1, r0, #3
1000ae96:	4fb2      	ldr	r7, [pc, #712]	; (1000b160 <_malloc_r+0x35c>)
1000ae98:	1879      	adds	r1, r7, r1
1000ae9a:	684c      	ldr	r4, [r1, #4]
1000ae9c:	3908      	subs	r1, #8
1000ae9e:	42a1      	cmp	r1, r4
1000aea0:	d00e      	beq.n	1000aec0 <_malloc_r+0xbc>
1000aea2:	2303      	movs	r3, #3
1000aea4:	469c      	mov	ip, r3
1000aea6:	e004      	b.n	1000aeb2 <_malloc_r+0xae>
1000aea8:	2a00      	cmp	r2, #0
1000aeaa:	dacb      	bge.n	1000ae44 <_malloc_r+0x40>
1000aeac:	68e4      	ldr	r4, [r4, #12]
1000aeae:	42a1      	cmp	r1, r4
1000aeb0:	d006      	beq.n	1000aec0 <_malloc_r+0xbc>
1000aeb2:	4662      	mov	r2, ip
1000aeb4:	6863      	ldr	r3, [r4, #4]
1000aeb6:	4393      	bics	r3, r2
1000aeb8:	1b5a      	subs	r2, r3, r5
1000aeba:	2a0f      	cmp	r2, #15
1000aebc:	ddf4      	ble.n	1000aea8 <_malloc_r+0xa4>
1000aebe:	4640      	mov	r0, r8
1000aec0:	003a      	movs	r2, r7
1000aec2:	693c      	ldr	r4, [r7, #16]
1000aec4:	3208      	adds	r2, #8
1000aec6:	4294      	cmp	r4, r2
1000aec8:	d100      	bne.n	1000aecc <_malloc_r+0xc8>
1000aeca:	e078      	b.n	1000afbe <_malloc_r+0x1ba>
1000aecc:	2303      	movs	r3, #3
1000aece:	6861      	ldr	r1, [r4, #4]
1000aed0:	4399      	bics	r1, r3
1000aed2:	4689      	mov	r9, r1
1000aed4:	000b      	movs	r3, r1
1000aed6:	1b49      	subs	r1, r1, r5
1000aed8:	290f      	cmp	r1, #15
1000aeda:	dd00      	ble.n	1000aede <_malloc_r+0xda>
1000aedc:	e17b      	b.n	1000b1d6 <_malloc_r+0x3d2>
1000aede:	617a      	str	r2, [r7, #20]
1000aee0:	613a      	str	r2, [r7, #16]
1000aee2:	2900      	cmp	r1, #0
1000aee4:	dab2      	bge.n	1000ae4c <_malloc_r+0x48>
1000aee6:	2280      	movs	r2, #128	; 0x80
1000aee8:	0092      	lsls	r2, r2, #2
1000aeea:	4591      	cmp	r9, r2
1000aeec:	d300      	bcc.n	1000aef0 <_malloc_r+0xec>
1000aeee:	e10f      	b.n	1000b110 <_malloc_r+0x30c>
1000aef0:	0959      	lsrs	r1, r3, #5
1000aef2:	08da      	lsrs	r2, r3, #3
1000aef4:	2301      	movs	r3, #1
1000aef6:	408b      	lsls	r3, r1
1000aef8:	00d2      	lsls	r2, r2, #3
1000aefa:	6879      	ldr	r1, [r7, #4]
1000aefc:	19d2      	adds	r2, r2, r7
1000aefe:	430b      	orrs	r3, r1
1000af00:	6891      	ldr	r1, [r2, #8]
1000af02:	607b      	str	r3, [r7, #4]
1000af04:	60e2      	str	r2, [r4, #12]
1000af06:	60a1      	str	r1, [r4, #8]
1000af08:	6094      	str	r4, [r2, #8]
1000af0a:	60cc      	str	r4, [r1, #12]
1000af0c:	2101      	movs	r1, #1
1000af0e:	1082      	asrs	r2, r0, #2
1000af10:	4091      	lsls	r1, r2
1000af12:	4299      	cmp	r1, r3
1000af14:	d859      	bhi.n	1000afca <_malloc_r+0x1c6>
1000af16:	420b      	tst	r3, r1
1000af18:	d105      	bne.n	1000af26 <_malloc_r+0x122>
1000af1a:	2203      	movs	r2, #3
1000af1c:	4390      	bics	r0, r2
1000af1e:	0049      	lsls	r1, r1, #1
1000af20:	3004      	adds	r0, #4
1000af22:	420b      	tst	r3, r1
1000af24:	d0fb      	beq.n	1000af1e <_malloc_r+0x11a>
1000af26:	2303      	movs	r3, #3
1000af28:	4698      	mov	r8, r3
1000af2a:	00c3      	lsls	r3, r0, #3
1000af2c:	4699      	mov	r9, r3
1000af2e:	44b9      	add	r9, r7
1000af30:	46cc      	mov	ip, r9
1000af32:	4682      	mov	sl, r0
1000af34:	4663      	mov	r3, ip
1000af36:	68dc      	ldr	r4, [r3, #12]
1000af38:	45a4      	cmp	ip, r4
1000af3a:	d107      	bne.n	1000af4c <_malloc_r+0x148>
1000af3c:	e12c      	b.n	1000b198 <_malloc_r+0x394>
1000af3e:	2a00      	cmp	r2, #0
1000af40:	db00      	blt.n	1000af44 <_malloc_r+0x140>
1000af42:	e135      	b.n	1000b1b0 <_malloc_r+0x3ac>
1000af44:	68e4      	ldr	r4, [r4, #12]
1000af46:	45a4      	cmp	ip, r4
1000af48:	d100      	bne.n	1000af4c <_malloc_r+0x148>
1000af4a:	e125      	b.n	1000b198 <_malloc_r+0x394>
1000af4c:	4642      	mov	r2, r8
1000af4e:	6863      	ldr	r3, [r4, #4]
1000af50:	4393      	bics	r3, r2
1000af52:	1b5a      	subs	r2, r3, r5
1000af54:	2a0f      	cmp	r2, #15
1000af56:	ddf2      	ble.n	1000af3e <_malloc_r+0x13a>
1000af58:	2001      	movs	r0, #1
1000af5a:	4680      	mov	r8, r0
1000af5c:	1961      	adds	r1, r4, r5
1000af5e:	4305      	orrs	r5, r0
1000af60:	6065      	str	r5, [r4, #4]
1000af62:	68a0      	ldr	r0, [r4, #8]
1000af64:	68e5      	ldr	r5, [r4, #12]
1000af66:	3708      	adds	r7, #8
1000af68:	60c5      	str	r5, [r0, #12]
1000af6a:	60a8      	str	r0, [r5, #8]
1000af6c:	4640      	mov	r0, r8
1000af6e:	4310      	orrs	r0, r2
1000af70:	60f9      	str	r1, [r7, #12]
1000af72:	60b9      	str	r1, [r7, #8]
1000af74:	6048      	str	r0, [r1, #4]
1000af76:	60cf      	str	r7, [r1, #12]
1000af78:	0030      	movs	r0, r6
1000af7a:	608f      	str	r7, [r1, #8]
1000af7c:	50e2      	str	r2, [r4, r3]
1000af7e:	f000 fa0b 	bl	1000b398 <__malloc_unlock>
1000af82:	0020      	movs	r0, r4
1000af84:	3008      	adds	r0, #8
1000af86:	e002      	b.n	1000af8e <_malloc_r+0x18a>
1000af88:	230c      	movs	r3, #12
1000af8a:	2000      	movs	r0, #0
1000af8c:	6033      	str	r3, [r6, #0]
1000af8e:	b003      	add	sp, #12
1000af90:	bcf0      	pop	{r4, r5, r6, r7}
1000af92:	46bb      	mov	fp, r7
1000af94:	46b2      	mov	sl, r6
1000af96:	46a9      	mov	r9, r5
1000af98:	46a0      	mov	r8, r4
1000af9a:	bdf0      	pop	{r4, r5, r6, r7, pc}
1000af9c:	2180      	movs	r1, #128	; 0x80
1000af9e:	233f      	movs	r3, #63	; 0x3f
1000afa0:	2040      	movs	r0, #64	; 0x40
1000afa2:	4698      	mov	r8, r3
1000afa4:	0089      	lsls	r1, r1, #2
1000afa6:	e776      	b.n	1000ae96 <_malloc_r+0x92>
1000afa8:	68dc      	ldr	r4, [r3, #12]
1000afaa:	3002      	adds	r0, #2
1000afac:	42a3      	cmp	r3, r4
1000afae:	d000      	beq.n	1000afb2 <_malloc_r+0x1ae>
1000afb0:	e744      	b.n	1000ae3c <_malloc_r+0x38>
1000afb2:	003a      	movs	r2, r7
1000afb4:	693c      	ldr	r4, [r7, #16]
1000afb6:	3208      	adds	r2, #8
1000afb8:	4294      	cmp	r4, r2
1000afba:	d000      	beq.n	1000afbe <_malloc_r+0x1ba>
1000afbc:	e786      	b.n	1000aecc <_malloc_r+0xc8>
1000afbe:	2101      	movs	r1, #1
1000afc0:	687b      	ldr	r3, [r7, #4]
1000afc2:	1082      	asrs	r2, r0, #2
1000afc4:	4091      	lsls	r1, r2
1000afc6:	4299      	cmp	r1, r3
1000afc8:	d9a5      	bls.n	1000af16 <_malloc_r+0x112>
1000afca:	2303      	movs	r3, #3
1000afcc:	68bc      	ldr	r4, [r7, #8]
1000afce:	6862      	ldr	r2, [r4, #4]
1000afd0:	439a      	bics	r2, r3
1000afd2:	4691      	mov	r9, r2
1000afd4:	4295      	cmp	r5, r2
1000afd6:	d803      	bhi.n	1000afe0 <_malloc_r+0x1dc>
1000afd8:	1b53      	subs	r3, r2, r5
1000afda:	2b0f      	cmp	r3, #15
1000afdc:	dd00      	ble.n	1000afe0 <_malloc_r+0x1dc>
1000afde:	e089      	b.n	1000b0f4 <_malloc_r+0x2f0>
1000afe0:	0023      	movs	r3, r4
1000afe2:	444b      	add	r3, r9
1000afe4:	4a5f      	ldr	r2, [pc, #380]	; (1000b164 <_malloc_r+0x360>)
1000afe6:	9301      	str	r3, [sp, #4]
1000afe8:	4b5f      	ldr	r3, [pc, #380]	; (1000b168 <_malloc_r+0x364>)
1000afea:	4693      	mov	fp, r2
1000afec:	681b      	ldr	r3, [r3, #0]
1000afee:	6812      	ldr	r2, [r2, #0]
1000aff0:	18eb      	adds	r3, r5, r3
1000aff2:	3201      	adds	r2, #1
1000aff4:	d100      	bne.n	1000aff8 <_malloc_r+0x1f4>
1000aff6:	e13d      	b.n	1000b274 <_malloc_r+0x470>
1000aff8:	4a5c      	ldr	r2, [pc, #368]	; (1000b16c <_malloc_r+0x368>)
1000affa:	4694      	mov	ip, r2
1000affc:	4463      	add	r3, ip
1000affe:	0b1b      	lsrs	r3, r3, #12
1000b000:	031b      	lsls	r3, r3, #12
1000b002:	9300      	str	r3, [sp, #0]
1000b004:	0030      	movs	r0, r6
1000b006:	9900      	ldr	r1, [sp, #0]
1000b008:	f000 f9ea 	bl	1000b3e0 <_sbrk_r>
1000b00c:	0003      	movs	r3, r0
1000b00e:	4680      	mov	r8, r0
1000b010:	3301      	adds	r3, #1
1000b012:	d100      	bne.n	1000b016 <_malloc_r+0x212>
1000b014:	e0fa      	b.n	1000b20c <_malloc_r+0x408>
1000b016:	9b01      	ldr	r3, [sp, #4]
1000b018:	4283      	cmp	r3, r0
1000b01a:	d900      	bls.n	1000b01e <_malloc_r+0x21a>
1000b01c:	e0f4      	b.n	1000b208 <_malloc_r+0x404>
1000b01e:	4b54      	ldr	r3, [pc, #336]	; (1000b170 <_malloc_r+0x36c>)
1000b020:	9800      	ldr	r0, [sp, #0]
1000b022:	001a      	movs	r2, r3
1000b024:	469a      	mov	sl, r3
1000b026:	6812      	ldr	r2, [r2, #0]
1000b028:	0003      	movs	r3, r0
1000b02a:	4694      	mov	ip, r2
1000b02c:	4651      	mov	r1, sl
1000b02e:	4463      	add	r3, ip
1000b030:	600b      	str	r3, [r1, #0]
1000b032:	9901      	ldr	r1, [sp, #4]
1000b034:	001a      	movs	r2, r3
1000b036:	4541      	cmp	r1, r8
1000b038:	d100      	bne.n	1000b03c <_malloc_r+0x238>
1000b03a:	e151      	b.n	1000b2e0 <_malloc_r+0x4dc>
1000b03c:	465b      	mov	r3, fp
1000b03e:	681b      	ldr	r3, [r3, #0]
1000b040:	3301      	adds	r3, #1
1000b042:	d100      	bne.n	1000b046 <_malloc_r+0x242>
1000b044:	e156      	b.n	1000b2f4 <_malloc_r+0x4f0>
1000b046:	4643      	mov	r3, r8
1000b048:	9901      	ldr	r1, [sp, #4]
1000b04a:	1a5b      	subs	r3, r3, r1
1000b04c:	189a      	adds	r2, r3, r2
1000b04e:	4653      	mov	r3, sl
1000b050:	601a      	str	r2, [r3, #0]
1000b052:	2307      	movs	r3, #7
1000b054:	4642      	mov	r2, r8
1000b056:	4641      	mov	r1, r8
1000b058:	401a      	ands	r2, r3
1000b05a:	9201      	str	r2, [sp, #4]
1000b05c:	4219      	tst	r1, r3
1000b05e:	d100      	bne.n	1000b062 <_malloc_r+0x25e>
1000b060:	e112      	b.n	1000b288 <_malloc_r+0x484>
1000b062:	2308      	movs	r3, #8
1000b064:	4698      	mov	r8, r3
1000b066:	1a88      	subs	r0, r1, r2
1000b068:	4b42      	ldr	r3, [pc, #264]	; (1000b174 <_malloc_r+0x370>)
1000b06a:	9900      	ldr	r1, [sp, #0]
1000b06c:	4480      	add	r8, r0
1000b06e:	4441      	add	r1, r8
1000b070:	1a9b      	subs	r3, r3, r2
1000b072:	1a5b      	subs	r3, r3, r1
1000b074:	051b      	lsls	r3, r3, #20
1000b076:	0d1b      	lsrs	r3, r3, #20
1000b078:	9100      	str	r1, [sp, #0]
1000b07a:	0030      	movs	r0, r6
1000b07c:	0019      	movs	r1, r3
1000b07e:	469b      	mov	fp, r3
1000b080:	f000 f9ae 	bl	1000b3e0 <_sbrk_r>
1000b084:	1c43      	adds	r3, r0, #1
1000b086:	d100      	bne.n	1000b08a <_malloc_r+0x286>
1000b088:	e150      	b.n	1000b32c <_malloc_r+0x528>
1000b08a:	4643      	mov	r3, r8
1000b08c:	1ac0      	subs	r0, r0, r3
1000b08e:	0003      	movs	r3, r0
1000b090:	445b      	add	r3, fp
1000b092:	9300      	str	r3, [sp, #0]
1000b094:	4653      	mov	r3, sl
1000b096:	4652      	mov	r2, sl
1000b098:	681b      	ldr	r3, [r3, #0]
1000b09a:	2101      	movs	r1, #1
1000b09c:	445b      	add	r3, fp
1000b09e:	6013      	str	r3, [r2, #0]
1000b0a0:	4642      	mov	r2, r8
1000b0a2:	4640      	mov	r0, r8
1000b0a4:	60ba      	str	r2, [r7, #8]
1000b0a6:	9a00      	ldr	r2, [sp, #0]
1000b0a8:	430a      	orrs	r2, r1
1000b0aa:	6042      	str	r2, [r0, #4]
1000b0ac:	42bc      	cmp	r4, r7
1000b0ae:	d100      	bne.n	1000b0b2 <_malloc_r+0x2ae>
1000b0b0:	e124      	b.n	1000b2fc <_malloc_r+0x4f8>
1000b0b2:	464a      	mov	r2, r9
1000b0b4:	2a0f      	cmp	r2, #15
1000b0b6:	d800      	bhi.n	1000b0ba <_malloc_r+0x2b6>
1000b0b8:	e122      	b.n	1000b300 <_malloc_r+0x4fc>
1000b0ba:	2007      	movs	r0, #7
1000b0bc:	3a0c      	subs	r2, #12
1000b0be:	4382      	bics	r2, r0
1000b0c0:	6860      	ldr	r0, [r4, #4]
1000b0c2:	4001      	ands	r1, r0
1000b0c4:	2005      	movs	r0, #5
1000b0c6:	4311      	orrs	r1, r2
1000b0c8:	6061      	str	r1, [r4, #4]
1000b0ca:	18a1      	adds	r1, r4, r2
1000b0cc:	6048      	str	r0, [r1, #4]
1000b0ce:	6088      	str	r0, [r1, #8]
1000b0d0:	2a0f      	cmp	r2, #15
1000b0d2:	d900      	bls.n	1000b0d6 <_malloc_r+0x2d2>
1000b0d4:	e135      	b.n	1000b342 <_malloc_r+0x53e>
1000b0d6:	4642      	mov	r2, r8
1000b0d8:	4644      	mov	r4, r8
1000b0da:	6852      	ldr	r2, [r2, #4]
1000b0dc:	4926      	ldr	r1, [pc, #152]	; (1000b178 <_malloc_r+0x374>)
1000b0de:	6808      	ldr	r0, [r1, #0]
1000b0e0:	4298      	cmp	r0, r3
1000b0e2:	d200      	bcs.n	1000b0e6 <_malloc_r+0x2e2>
1000b0e4:	600b      	str	r3, [r1, #0]
1000b0e6:	4925      	ldr	r1, [pc, #148]	; (1000b17c <_malloc_r+0x378>)
1000b0e8:	6808      	ldr	r0, [r1, #0]
1000b0ea:	4298      	cmp	r0, r3
1000b0ec:	d300      	bcc.n	1000b0f0 <_malloc_r+0x2ec>
1000b0ee:	e08f      	b.n	1000b210 <_malloc_r+0x40c>
1000b0f0:	600b      	str	r3, [r1, #0]
1000b0f2:	e08d      	b.n	1000b210 <_malloc_r+0x40c>
1000b0f4:	2201      	movs	r2, #1
1000b0f6:	0029      	movs	r1, r5
1000b0f8:	4313      	orrs	r3, r2
1000b0fa:	4311      	orrs	r1, r2
1000b0fc:	1965      	adds	r5, r4, r5
1000b0fe:	6061      	str	r1, [r4, #4]
1000b100:	0030      	movs	r0, r6
1000b102:	60bd      	str	r5, [r7, #8]
1000b104:	606b      	str	r3, [r5, #4]
1000b106:	f000 f947 	bl	1000b398 <__malloc_unlock>
1000b10a:	0020      	movs	r0, r4
1000b10c:	3008      	adds	r0, #8
1000b10e:	e73e      	b.n	1000af8e <_malloc_r+0x18a>
1000b110:	0a5a      	lsrs	r2, r3, #9
1000b112:	2a04      	cmp	r2, #4
1000b114:	d972      	bls.n	1000b1fc <_malloc_r+0x3f8>
1000b116:	2a14      	cmp	r2, #20
1000b118:	d900      	bls.n	1000b11c <_malloc_r+0x318>
1000b11a:	e0c5      	b.n	1000b2a8 <_malloc_r+0x4a4>
1000b11c:	0011      	movs	r1, r2
1000b11e:	325c      	adds	r2, #92	; 0x5c
1000b120:	315b      	adds	r1, #91	; 0x5b
1000b122:	00d2      	lsls	r2, r2, #3
1000b124:	2308      	movs	r3, #8
1000b126:	425b      	negs	r3, r3
1000b128:	469c      	mov	ip, r3
1000b12a:	18ba      	adds	r2, r7, r2
1000b12c:	4494      	add	ip, r2
1000b12e:	4663      	mov	r3, ip
1000b130:	689a      	ldr	r2, [r3, #8]
1000b132:	2303      	movs	r3, #3
1000b134:	4698      	mov	r8, r3
1000b136:	4594      	cmp	ip, r2
1000b138:	d100      	bne.n	1000b13c <_malloc_r+0x338>
1000b13a:	e09e      	b.n	1000b27a <_malloc_r+0x476>
1000b13c:	4643      	mov	r3, r8
1000b13e:	6851      	ldr	r1, [r2, #4]
1000b140:	4399      	bics	r1, r3
1000b142:	4549      	cmp	r1, r9
1000b144:	d902      	bls.n	1000b14c <_malloc_r+0x348>
1000b146:	6892      	ldr	r2, [r2, #8]
1000b148:	4594      	cmp	ip, r2
1000b14a:	d1f7      	bne.n	1000b13c <_malloc_r+0x338>
1000b14c:	68d3      	ldr	r3, [r2, #12]
1000b14e:	469c      	mov	ip, r3
1000b150:	687b      	ldr	r3, [r7, #4]
1000b152:	4661      	mov	r1, ip
1000b154:	60a2      	str	r2, [r4, #8]
1000b156:	60e1      	str	r1, [r4, #12]
1000b158:	608c      	str	r4, [r1, #8]
1000b15a:	60d4      	str	r4, [r2, #12]
1000b15c:	e6d6      	b.n	1000af0c <_malloc_r+0x108>
1000b15e:	46c0      	nop			; (mov r8, r8)
1000b160:	20000930 	.word	0x20000930
1000b164:	20000d38 	.word	0x20000d38
1000b168:	20000ec0 	.word	0x20000ec0
1000b16c:	0000100f 	.word	0x0000100f
1000b170:	20000e90 	.word	0x20000e90
1000b174:	00001008 	.word	0x00001008
1000b178:	20000eb8 	.word	0x20000eb8
1000b17c:	20000ebc 	.word	0x20000ebc
1000b180:	2814      	cmp	r0, #20
1000b182:	d952      	bls.n	1000b22a <_malloc_r+0x426>
1000b184:	2854      	cmp	r0, #84	; 0x54
1000b186:	d900      	bls.n	1000b18a <_malloc_r+0x386>
1000b188:	e096      	b.n	1000b2b8 <_malloc_r+0x4b4>
1000b18a:	236e      	movs	r3, #110	; 0x6e
1000b18c:	4698      	mov	r8, r3
1000b18e:	0b28      	lsrs	r0, r5, #12
1000b190:	4480      	add	r8, r0
1000b192:	306f      	adds	r0, #111	; 0x6f
1000b194:	00c1      	lsls	r1, r0, #3
1000b196:	e67e      	b.n	1000ae96 <_malloc_r+0x92>
1000b198:	2308      	movs	r3, #8
1000b19a:	469b      	mov	fp, r3
1000b19c:	3b07      	subs	r3, #7
1000b19e:	44dc      	add	ip, fp
1000b1a0:	469b      	mov	fp, r3
1000b1a2:	44da      	add	sl, fp
1000b1a4:	4643      	mov	r3, r8
1000b1a6:	4652      	mov	r2, sl
1000b1a8:	4213      	tst	r3, r2
1000b1aa:	d000      	beq.n	1000b1ae <_malloc_r+0x3aa>
1000b1ac:	e6c2      	b.n	1000af34 <_malloc_r+0x130>
1000b1ae:	e04c      	b.n	1000b24a <_malloc_r+0x446>
1000b1b0:	2201      	movs	r2, #1
1000b1b2:	18e3      	adds	r3, r4, r3
1000b1b4:	6859      	ldr	r1, [r3, #4]
1000b1b6:	0030      	movs	r0, r6
1000b1b8:	430a      	orrs	r2, r1
1000b1ba:	605a      	str	r2, [r3, #4]
1000b1bc:	68e3      	ldr	r3, [r4, #12]
1000b1be:	68a2      	ldr	r2, [r4, #8]
1000b1c0:	60d3      	str	r3, [r2, #12]
1000b1c2:	609a      	str	r2, [r3, #8]
1000b1c4:	f000 f8e8 	bl	1000b398 <__malloc_unlock>
1000b1c8:	0020      	movs	r0, r4
1000b1ca:	3008      	adds	r0, #8
1000b1cc:	e6df      	b.n	1000af8e <_malloc_r+0x18a>
1000b1ce:	002b      	movs	r3, r5
1000b1d0:	08e8      	lsrs	r0, r5, #3
1000b1d2:	3308      	adds	r3, #8
1000b1d4:	e62a      	b.n	1000ae2c <_malloc_r+0x28>
1000b1d6:	2301      	movs	r3, #1
1000b1d8:	1960      	adds	r0, r4, r5
1000b1da:	431d      	orrs	r5, r3
1000b1dc:	6065      	str	r5, [r4, #4]
1000b1de:	6178      	str	r0, [r7, #20]
1000b1e0:	6138      	str	r0, [r7, #16]
1000b1e2:	60c2      	str	r2, [r0, #12]
1000b1e4:	6082      	str	r2, [r0, #8]
1000b1e6:	001a      	movs	r2, r3
1000b1e8:	464b      	mov	r3, r9
1000b1ea:	430a      	orrs	r2, r1
1000b1ec:	6042      	str	r2, [r0, #4]
1000b1ee:	0030      	movs	r0, r6
1000b1f0:	50e1      	str	r1, [r4, r3]
1000b1f2:	f000 f8d1 	bl	1000b398 <__malloc_unlock>
1000b1f6:	0020      	movs	r0, r4
1000b1f8:	3008      	adds	r0, #8
1000b1fa:	e6c8      	b.n	1000af8e <_malloc_r+0x18a>
1000b1fc:	099a      	lsrs	r2, r3, #6
1000b1fe:	0011      	movs	r1, r2
1000b200:	3239      	adds	r2, #57	; 0x39
1000b202:	3138      	adds	r1, #56	; 0x38
1000b204:	00d2      	lsls	r2, r2, #3
1000b206:	e78d      	b.n	1000b124 <_malloc_r+0x320>
1000b208:	42bc      	cmp	r4, r7
1000b20a:	d060      	beq.n	1000b2ce <_malloc_r+0x4ca>
1000b20c:	68bc      	ldr	r4, [r7, #8]
1000b20e:	6862      	ldr	r2, [r4, #4]
1000b210:	2303      	movs	r3, #3
1000b212:	439a      	bics	r2, r3
1000b214:	1b53      	subs	r3, r2, r5
1000b216:	4295      	cmp	r5, r2
1000b218:	d802      	bhi.n	1000b220 <_malloc_r+0x41c>
1000b21a:	2b0f      	cmp	r3, #15
1000b21c:	dd00      	ble.n	1000b220 <_malloc_r+0x41c>
1000b21e:	e769      	b.n	1000b0f4 <_malloc_r+0x2f0>
1000b220:	0030      	movs	r0, r6
1000b222:	f000 f8b9 	bl	1000b398 <__malloc_unlock>
1000b226:	2000      	movs	r0, #0
1000b228:	e6b1      	b.n	1000af8e <_malloc_r+0x18a>
1000b22a:	235b      	movs	r3, #91	; 0x5b
1000b22c:	4698      	mov	r8, r3
1000b22e:	4480      	add	r8, r0
1000b230:	305c      	adds	r0, #92	; 0x5c
1000b232:	00c1      	lsls	r1, r0, #3
1000b234:	e62f      	b.n	1000ae96 <_malloc_r+0x92>
1000b236:	2308      	movs	r3, #8
1000b238:	425b      	negs	r3, r3
1000b23a:	469c      	mov	ip, r3
1000b23c:	44e1      	add	r9, ip
1000b23e:	464b      	mov	r3, r9
1000b240:	689b      	ldr	r3, [r3, #8]
1000b242:	3801      	subs	r0, #1
1000b244:	454b      	cmp	r3, r9
1000b246:	d000      	beq.n	1000b24a <_malloc_r+0x446>
1000b248:	e098      	b.n	1000b37c <_malloc_r+0x578>
1000b24a:	4643      	mov	r3, r8
1000b24c:	4203      	tst	r3, r0
1000b24e:	d1f2      	bne.n	1000b236 <_malloc_r+0x432>
1000b250:	687b      	ldr	r3, [r7, #4]
1000b252:	438b      	bics	r3, r1
1000b254:	607b      	str	r3, [r7, #4]
1000b256:	0049      	lsls	r1, r1, #1
1000b258:	4299      	cmp	r1, r3
1000b25a:	d900      	bls.n	1000b25e <_malloc_r+0x45a>
1000b25c:	e6b5      	b.n	1000afca <_malloc_r+0x1c6>
1000b25e:	2900      	cmp	r1, #0
1000b260:	d104      	bne.n	1000b26c <_malloc_r+0x468>
1000b262:	e6b2      	b.n	1000afca <_malloc_r+0x1c6>
1000b264:	2204      	movs	r2, #4
1000b266:	4694      	mov	ip, r2
1000b268:	0049      	lsls	r1, r1, #1
1000b26a:	44e2      	add	sl, ip
1000b26c:	420b      	tst	r3, r1
1000b26e:	d0f9      	beq.n	1000b264 <_malloc_r+0x460>
1000b270:	4650      	mov	r0, sl
1000b272:	e65a      	b.n	1000af2a <_malloc_r+0x126>
1000b274:	3310      	adds	r3, #16
1000b276:	9300      	str	r3, [sp, #0]
1000b278:	e6c4      	b.n	1000b004 <_malloc_r+0x200>
1000b27a:	1089      	asrs	r1, r1, #2
1000b27c:	3b02      	subs	r3, #2
1000b27e:	408b      	lsls	r3, r1
1000b280:	6879      	ldr	r1, [r7, #4]
1000b282:	430b      	orrs	r3, r1
1000b284:	607b      	str	r3, [r7, #4]
1000b286:	e764      	b.n	1000b152 <_malloc_r+0x34e>
1000b288:	9b00      	ldr	r3, [sp, #0]
1000b28a:	0030      	movs	r0, r6
1000b28c:	4443      	add	r3, r8
1000b28e:	425b      	negs	r3, r3
1000b290:	051b      	lsls	r3, r3, #20
1000b292:	0d1b      	lsrs	r3, r3, #20
1000b294:	0019      	movs	r1, r3
1000b296:	469b      	mov	fp, r3
1000b298:	f000 f8a2 	bl	1000b3e0 <_sbrk_r>
1000b29c:	1c43      	adds	r3, r0, #1
1000b29e:	d000      	beq.n	1000b2a2 <_malloc_r+0x49e>
1000b2a0:	e6f3      	b.n	1000b08a <_malloc_r+0x286>
1000b2a2:	2300      	movs	r3, #0
1000b2a4:	469b      	mov	fp, r3
1000b2a6:	e6f5      	b.n	1000b094 <_malloc_r+0x290>
1000b2a8:	2a54      	cmp	r2, #84	; 0x54
1000b2aa:	d82b      	bhi.n	1000b304 <_malloc_r+0x500>
1000b2ac:	0b1a      	lsrs	r2, r3, #12
1000b2ae:	0011      	movs	r1, r2
1000b2b0:	326f      	adds	r2, #111	; 0x6f
1000b2b2:	316e      	adds	r1, #110	; 0x6e
1000b2b4:	00d2      	lsls	r2, r2, #3
1000b2b6:	e735      	b.n	1000b124 <_malloc_r+0x320>
1000b2b8:	23aa      	movs	r3, #170	; 0xaa
1000b2ba:	005b      	lsls	r3, r3, #1
1000b2bc:	4298      	cmp	r0, r3
1000b2be:	d82b      	bhi.n	1000b318 <_malloc_r+0x514>
1000b2c0:	3bdd      	subs	r3, #221	; 0xdd
1000b2c2:	4698      	mov	r8, r3
1000b2c4:	0be8      	lsrs	r0, r5, #15
1000b2c6:	4480      	add	r8, r0
1000b2c8:	3078      	adds	r0, #120	; 0x78
1000b2ca:	00c1      	lsls	r1, r0, #3
1000b2cc:	e5e3      	b.n	1000ae96 <_malloc_r+0x92>
1000b2ce:	4b2c      	ldr	r3, [pc, #176]	; (1000b380 <_malloc_r+0x57c>)
1000b2d0:	9a00      	ldr	r2, [sp, #0]
1000b2d2:	469a      	mov	sl, r3
1000b2d4:	681b      	ldr	r3, [r3, #0]
1000b2d6:	469c      	mov	ip, r3
1000b2d8:	4653      	mov	r3, sl
1000b2da:	4462      	add	r2, ip
1000b2dc:	601a      	str	r2, [r3, #0]
1000b2de:	e6ad      	b.n	1000b03c <_malloc_r+0x238>
1000b2e0:	0509      	lsls	r1, r1, #20
1000b2e2:	d000      	beq.n	1000b2e6 <_malloc_r+0x4e2>
1000b2e4:	e6aa      	b.n	1000b03c <_malloc_r+0x238>
1000b2e6:	0002      	movs	r2, r0
1000b2e8:	68bc      	ldr	r4, [r7, #8]
1000b2ea:	444a      	add	r2, r9
1000b2ec:	3101      	adds	r1, #1
1000b2ee:	430a      	orrs	r2, r1
1000b2f0:	6062      	str	r2, [r4, #4]
1000b2f2:	e6f3      	b.n	1000b0dc <_malloc_r+0x2d8>
1000b2f4:	465b      	mov	r3, fp
1000b2f6:	4642      	mov	r2, r8
1000b2f8:	601a      	str	r2, [r3, #0]
1000b2fa:	e6aa      	b.n	1000b052 <_malloc_r+0x24e>
1000b2fc:	4644      	mov	r4, r8
1000b2fe:	e6ed      	b.n	1000b0dc <_malloc_r+0x2d8>
1000b300:	6041      	str	r1, [r0, #4]
1000b302:	e78d      	b.n	1000b220 <_malloc_r+0x41c>
1000b304:	21aa      	movs	r1, #170	; 0xaa
1000b306:	0049      	lsls	r1, r1, #1
1000b308:	428a      	cmp	r2, r1
1000b30a:	d824      	bhi.n	1000b356 <_malloc_r+0x552>
1000b30c:	0bda      	lsrs	r2, r3, #15
1000b30e:	0011      	movs	r1, r2
1000b310:	3278      	adds	r2, #120	; 0x78
1000b312:	3177      	adds	r1, #119	; 0x77
1000b314:	00d2      	lsls	r2, r2, #3
1000b316:	e705      	b.n	1000b124 <_malloc_r+0x320>
1000b318:	4b1a      	ldr	r3, [pc, #104]	; (1000b384 <_malloc_r+0x580>)
1000b31a:	4298      	cmp	r0, r3
1000b31c:	d824      	bhi.n	1000b368 <_malloc_r+0x564>
1000b31e:	237c      	movs	r3, #124	; 0x7c
1000b320:	4698      	mov	r8, r3
1000b322:	0ca8      	lsrs	r0, r5, #18
1000b324:	4480      	add	r8, r0
1000b326:	307d      	adds	r0, #125	; 0x7d
1000b328:	00c1      	lsls	r1, r0, #3
1000b32a:	e5b4      	b.n	1000ae96 <_malloc_r+0x92>
1000b32c:	9a00      	ldr	r2, [sp, #0]
1000b32e:	9b01      	ldr	r3, [sp, #4]
1000b330:	4694      	mov	ip, r2
1000b332:	4642      	mov	r2, r8
1000b334:	3b08      	subs	r3, #8
1000b336:	4463      	add	r3, ip
1000b338:	1a9b      	subs	r3, r3, r2
1000b33a:	9300      	str	r3, [sp, #0]
1000b33c:	2300      	movs	r3, #0
1000b33e:	469b      	mov	fp, r3
1000b340:	e6a8      	b.n	1000b094 <_malloc_r+0x290>
1000b342:	0021      	movs	r1, r4
1000b344:	0030      	movs	r0, r6
1000b346:	3108      	adds	r1, #8
1000b348:	f000 fa40 	bl	1000b7cc <_free_r>
1000b34c:	4653      	mov	r3, sl
1000b34e:	68bc      	ldr	r4, [r7, #8]
1000b350:	681b      	ldr	r3, [r3, #0]
1000b352:	6862      	ldr	r2, [r4, #4]
1000b354:	e6c2      	b.n	1000b0dc <_malloc_r+0x2d8>
1000b356:	490b      	ldr	r1, [pc, #44]	; (1000b384 <_malloc_r+0x580>)
1000b358:	428a      	cmp	r2, r1
1000b35a:	d80b      	bhi.n	1000b374 <_malloc_r+0x570>
1000b35c:	0c9a      	lsrs	r2, r3, #18
1000b35e:	0011      	movs	r1, r2
1000b360:	327d      	adds	r2, #125	; 0x7d
1000b362:	317c      	adds	r1, #124	; 0x7c
1000b364:	00d2      	lsls	r2, r2, #3
1000b366:	e6dd      	b.n	1000b124 <_malloc_r+0x320>
1000b368:	21fe      	movs	r1, #254	; 0xfe
1000b36a:	237e      	movs	r3, #126	; 0x7e
1000b36c:	207f      	movs	r0, #127	; 0x7f
1000b36e:	4698      	mov	r8, r3
1000b370:	0089      	lsls	r1, r1, #2
1000b372:	e590      	b.n	1000ae96 <_malloc_r+0x92>
1000b374:	22fe      	movs	r2, #254	; 0xfe
1000b376:	217e      	movs	r1, #126	; 0x7e
1000b378:	0092      	lsls	r2, r2, #2
1000b37a:	e6d3      	b.n	1000b124 <_malloc_r+0x320>
1000b37c:	687b      	ldr	r3, [r7, #4]
1000b37e:	e76a      	b.n	1000b256 <_malloc_r+0x452>
1000b380:	20000e90 	.word	0x20000e90
1000b384:	00000554 	.word	0x00000554

1000b388 <__malloc_lock>:
1000b388:	b510      	push	{r4, lr}
1000b38a:	4802      	ldr	r0, [pc, #8]	; (1000b394 <__malloc_lock+0xc>)
1000b38c:	f7ff fd22 	bl	1000add4 <__retarget_lock_acquire_recursive>
1000b390:	bd10      	pop	{r4, pc}
1000b392:	46c0      	nop			; (mov r8, r8)
1000b394:	20000e84 	.word	0x20000e84

1000b398 <__malloc_unlock>:
1000b398:	b510      	push	{r4, lr}
1000b39a:	4802      	ldr	r0, [pc, #8]	; (1000b3a4 <__malloc_unlock+0xc>)
1000b39c:	f7ff fd1c 	bl	1000add8 <__retarget_lock_release_recursive>
1000b3a0:	bd10      	pop	{r4, pc}
1000b3a2:	46c0      	nop			; (mov r8, r8)
1000b3a4:	20000e84 	.word	0x20000e84

1000b3a8 <__srget_r>:
1000b3a8:	b570      	push	{r4, r5, r6, lr}
1000b3aa:	0005      	movs	r5, r0
1000b3ac:	000c      	movs	r4, r1
1000b3ae:	2800      	cmp	r0, #0
1000b3b0:	d002      	beq.n	1000b3b8 <__srget_r+0x10>
1000b3b2:	6b83      	ldr	r3, [r0, #56]	; 0x38
1000b3b4:	2b00      	cmp	r3, #0
1000b3b6:	d00d      	beq.n	1000b3d4 <__srget_r+0x2c>
1000b3b8:	0021      	movs	r1, r4
1000b3ba:	0028      	movs	r0, r5
1000b3bc:	f000 fb3a 	bl	1000ba34 <__srefill_r>
1000b3c0:	2800      	cmp	r0, #0
1000b3c2:	d10a      	bne.n	1000b3da <__srget_r+0x32>
1000b3c4:	6863      	ldr	r3, [r4, #4]
1000b3c6:	3b01      	subs	r3, #1
1000b3c8:	6063      	str	r3, [r4, #4]
1000b3ca:	6823      	ldr	r3, [r4, #0]
1000b3cc:	1c5a      	adds	r2, r3, #1
1000b3ce:	6022      	str	r2, [r4, #0]
1000b3d0:	7818      	ldrb	r0, [r3, #0]
1000b3d2:	bd70      	pop	{r4, r5, r6, pc}
1000b3d4:	f000 f90c 	bl	1000b5f0 <__sinit>
1000b3d8:	e7ee      	b.n	1000b3b8 <__srget_r+0x10>
1000b3da:	2001      	movs	r0, #1
1000b3dc:	4240      	negs	r0, r0
1000b3de:	e7f8      	b.n	1000b3d2 <__srget_r+0x2a>

1000b3e0 <_sbrk_r>:
1000b3e0:	2300      	movs	r3, #0
1000b3e2:	b570      	push	{r4, r5, r6, lr}
1000b3e4:	4d06      	ldr	r5, [pc, #24]	; (1000b400 <_sbrk_r+0x20>)
1000b3e6:	0004      	movs	r4, r0
1000b3e8:	0008      	movs	r0, r1
1000b3ea:	602b      	str	r3, [r5, #0]
1000b3ec:	f7fa f940 	bl	10005670 <_sbrk>
1000b3f0:	1c43      	adds	r3, r0, #1
1000b3f2:	d000      	beq.n	1000b3f6 <_sbrk_r+0x16>
1000b3f4:	bd70      	pop	{r4, r5, r6, pc}
1000b3f6:	682b      	ldr	r3, [r5, #0]
1000b3f8:	2b00      	cmp	r3, #0
1000b3fa:	d0fb      	beq.n	1000b3f4 <_sbrk_r+0x14>
1000b3fc:	6023      	str	r3, [r4, #0]
1000b3fe:	e7f9      	b.n	1000b3f4 <_sbrk_r+0x14>
1000b400:	200014c0 	.word	0x200014c0

1000b404 <strcpy>:
1000b404:	0003      	movs	r3, r0
1000b406:	780a      	ldrb	r2, [r1, #0]
1000b408:	3101      	adds	r1, #1
1000b40a:	701a      	strb	r2, [r3, #0]
1000b40c:	3301      	adds	r3, #1
1000b40e:	2a00      	cmp	r2, #0
1000b410:	d1f9      	bne.n	1000b406 <strcpy+0x2>
1000b412:	4770      	bx	lr

1000b414 <strlen>:
1000b414:	b510      	push	{r4, lr}
1000b416:	0783      	lsls	r3, r0, #30
1000b418:	d00a      	beq.n	1000b430 <strlen+0x1c>
1000b41a:	0003      	movs	r3, r0
1000b41c:	2103      	movs	r1, #3
1000b41e:	e002      	b.n	1000b426 <strlen+0x12>
1000b420:	3301      	adds	r3, #1
1000b422:	420b      	tst	r3, r1
1000b424:	d005      	beq.n	1000b432 <strlen+0x1e>
1000b426:	781a      	ldrb	r2, [r3, #0]
1000b428:	2a00      	cmp	r2, #0
1000b42a:	d1f9      	bne.n	1000b420 <strlen+0xc>
1000b42c:	1a18      	subs	r0, r3, r0
1000b42e:	bd10      	pop	{r4, pc}
1000b430:	0003      	movs	r3, r0
1000b432:	6819      	ldr	r1, [r3, #0]
1000b434:	4a0c      	ldr	r2, [pc, #48]	; (1000b468 <strlen+0x54>)
1000b436:	4c0d      	ldr	r4, [pc, #52]	; (1000b46c <strlen+0x58>)
1000b438:	188a      	adds	r2, r1, r2
1000b43a:	438a      	bics	r2, r1
1000b43c:	4222      	tst	r2, r4
1000b43e:	d10f      	bne.n	1000b460 <strlen+0x4c>
1000b440:	6859      	ldr	r1, [r3, #4]
1000b442:	4a09      	ldr	r2, [pc, #36]	; (1000b468 <strlen+0x54>)
1000b444:	3304      	adds	r3, #4
1000b446:	188a      	adds	r2, r1, r2
1000b448:	438a      	bics	r2, r1
1000b44a:	4222      	tst	r2, r4
1000b44c:	d108      	bne.n	1000b460 <strlen+0x4c>
1000b44e:	6859      	ldr	r1, [r3, #4]
1000b450:	4a05      	ldr	r2, [pc, #20]	; (1000b468 <strlen+0x54>)
1000b452:	3304      	adds	r3, #4
1000b454:	188a      	adds	r2, r1, r2
1000b456:	438a      	bics	r2, r1
1000b458:	4222      	tst	r2, r4
1000b45a:	d0f1      	beq.n	1000b440 <strlen+0x2c>
1000b45c:	e000      	b.n	1000b460 <strlen+0x4c>
1000b45e:	3301      	adds	r3, #1
1000b460:	781a      	ldrb	r2, [r3, #0]
1000b462:	2a00      	cmp	r2, #0
1000b464:	d1fb      	bne.n	1000b45e <strlen+0x4a>
1000b466:	e7e1      	b.n	1000b42c <strlen+0x18>
1000b468:	fefefeff 	.word	0xfefefeff
1000b46c:	80808080 	.word	0x80808080

1000b470 <_strtol_l.part.0>:
1000b470:	b5f0      	push	{r4, r5, r6, r7, lr}
1000b472:	4657      	mov	r7, sl
1000b474:	464e      	mov	r6, r9
1000b476:	4645      	mov	r5, r8
1000b478:	46de      	mov	lr, fp
1000b47a:	4682      	mov	sl, r0
1000b47c:	b5e0      	push	{r5, r6, r7, lr}
1000b47e:	4691      	mov	r9, r2
1000b480:	4688      	mov	r8, r1
1000b482:	001e      	movs	r6, r3
1000b484:	000a      	movs	r2, r1
1000b486:	2008      	movs	r0, #8
1000b488:	4f48      	ldr	r7, [pc, #288]	; (1000b5ac <_strtol_l.part.0+0x13c>)
1000b48a:	b083      	sub	sp, #12
1000b48c:	0013      	movs	r3, r2
1000b48e:	781c      	ldrb	r4, [r3, #0]
1000b490:	1c55      	adds	r5, r2, #1
1000b492:	5d39      	ldrb	r1, [r7, r4]
1000b494:	002a      	movs	r2, r5
1000b496:	4208      	tst	r0, r1
1000b498:	d1f8      	bne.n	1000b48c <_strtol_l.part.0+0x1c>
1000b49a:	2c2d      	cmp	r4, #45	; 0x2d
1000b49c:	d066      	beq.n	1000b56c <_strtol_l.part.0+0xfc>
1000b49e:	2c2b      	cmp	r4, #43	; 0x2b
1000b4a0:	d029      	beq.n	1000b4f6 <_strtol_l.part.0+0x86>
1000b4a2:	4b43      	ldr	r3, [pc, #268]	; (1000b5b0 <_strtol_l.part.0+0x140>)
1000b4a4:	469b      	mov	fp, r3
1000b4a6:	2300      	movs	r3, #0
1000b4a8:	9301      	str	r3, [sp, #4]
1000b4aa:	2e00      	cmp	r6, #0
1000b4ac:	d02b      	beq.n	1000b506 <_strtol_l.part.0+0x96>
1000b4ae:	2e10      	cmp	r6, #16
1000b4b0:	d064      	beq.n	1000b57c <_strtol_l.part.0+0x10c>
1000b4b2:	0037      	movs	r7, r6
1000b4b4:	0039      	movs	r1, r7
1000b4b6:	4658      	mov	r0, fp
1000b4b8:	f7fb fcd0 	bl	10006e5c <__wrap___aeabi_uidiv>
1000b4bc:	002b      	movs	r3, r5
1000b4be:	468c      	mov	ip, r1
1000b4c0:	2200      	movs	r2, #0
1000b4c2:	2100      	movs	r1, #0
1000b4c4:	e007      	b.n	1000b4d6 <_strtol_l.part.0+0x66>
1000b4c6:	4288      	cmp	r0, r1
1000b4c8:	d312      	bcc.n	1000b4f0 <_strtol_l.part.0+0x80>
1000b4ca:	d03f      	beq.n	1000b54c <_strtol_l.part.0+0xdc>
1000b4cc:	2201      	movs	r2, #1
1000b4ce:	4379      	muls	r1, r7
1000b4d0:	1869      	adds	r1, r5, r1
1000b4d2:	781c      	ldrb	r4, [r3, #0]
1000b4d4:	3301      	adds	r3, #1
1000b4d6:	0025      	movs	r5, r4
1000b4d8:	3d30      	subs	r5, #48	; 0x30
1000b4da:	2d09      	cmp	r5, #9
1000b4dc:	d904      	bls.n	1000b4e8 <_strtol_l.part.0+0x78>
1000b4de:	3d11      	subs	r5, #17
1000b4e0:	2d19      	cmp	r5, #25
1000b4e2:	d815      	bhi.n	1000b510 <_strtol_l.part.0+0xa0>
1000b4e4:	3c37      	subs	r4, #55	; 0x37
1000b4e6:	0025      	movs	r5, r4
1000b4e8:	42ae      	cmp	r6, r5
1000b4ea:	dd19      	ble.n	1000b520 <_strtol_l.part.0+0xb0>
1000b4ec:	2a00      	cmp	r2, #0
1000b4ee:	daea      	bge.n	1000b4c6 <_strtol_l.part.0+0x56>
1000b4f0:	2201      	movs	r2, #1
1000b4f2:	4252      	negs	r2, r2
1000b4f4:	e7ed      	b.n	1000b4d2 <_strtol_l.part.0+0x62>
1000b4f6:	782c      	ldrb	r4, [r5, #0]
1000b4f8:	1c9d      	adds	r5, r3, #2
1000b4fa:	4b2d      	ldr	r3, [pc, #180]	; (1000b5b0 <_strtol_l.part.0+0x140>)
1000b4fc:	469b      	mov	fp, r3
1000b4fe:	2300      	movs	r3, #0
1000b500:	9301      	str	r3, [sp, #4]
1000b502:	2e00      	cmp	r6, #0
1000b504:	d1d3      	bne.n	1000b4ae <_strtol_l.part.0+0x3e>
1000b506:	2c30      	cmp	r4, #48	; 0x30
1000b508:	d046      	beq.n	1000b598 <_strtol_l.part.0+0x128>
1000b50a:	270a      	movs	r7, #10
1000b50c:	260a      	movs	r6, #10
1000b50e:	e7d1      	b.n	1000b4b4 <_strtol_l.part.0+0x44>
1000b510:	0025      	movs	r5, r4
1000b512:	3d61      	subs	r5, #97	; 0x61
1000b514:	2d19      	cmp	r5, #25
1000b516:	d803      	bhi.n	1000b520 <_strtol_l.part.0+0xb0>
1000b518:	3c57      	subs	r4, #87	; 0x57
1000b51a:	0025      	movs	r5, r4
1000b51c:	42ae      	cmp	r6, r5
1000b51e:	dce5      	bgt.n	1000b4ec <_strtol_l.part.0+0x7c>
1000b520:	2a00      	cmp	r2, #0
1000b522:	db18      	blt.n	1000b556 <_strtol_l.part.0+0xe6>
1000b524:	9801      	ldr	r0, [sp, #4]
1000b526:	2800      	cmp	r0, #0
1000b528:	d000      	beq.n	1000b52c <_strtol_l.part.0+0xbc>
1000b52a:	4249      	negs	r1, r1
1000b52c:	4648      	mov	r0, r9
1000b52e:	2800      	cmp	r0, #0
1000b530:	d004      	beq.n	1000b53c <_strtol_l.part.0+0xcc>
1000b532:	2a00      	cmp	r2, #0
1000b534:	d138      	bne.n	1000b5a8 <_strtol_l.part.0+0x138>
1000b536:	464b      	mov	r3, r9
1000b538:	4642      	mov	r2, r8
1000b53a:	601a      	str	r2, [r3, #0]
1000b53c:	0008      	movs	r0, r1
1000b53e:	b003      	add	sp, #12
1000b540:	bcf0      	pop	{r4, r5, r6, r7}
1000b542:	46bb      	mov	fp, r7
1000b544:	46b2      	mov	sl, r6
1000b546:	46a9      	mov	r9, r5
1000b548:	46a0      	mov	r8, r4
1000b54a:	bdf0      	pop	{r4, r5, r6, r7, pc}
1000b54c:	45ac      	cmp	ip, r5
1000b54e:	dabd      	bge.n	1000b4cc <_strtol_l.part.0+0x5c>
1000b550:	2201      	movs	r2, #1
1000b552:	4252      	negs	r2, r2
1000b554:	e7bd      	b.n	1000b4d2 <_strtol_l.part.0+0x62>
1000b556:	2222      	movs	r2, #34	; 0x22
1000b558:	4651      	mov	r1, sl
1000b55a:	600a      	str	r2, [r1, #0]
1000b55c:	464a      	mov	r2, r9
1000b55e:	4659      	mov	r1, fp
1000b560:	2a00      	cmp	r2, #0
1000b562:	d0eb      	beq.n	1000b53c <_strtol_l.part.0+0xcc>
1000b564:	3b01      	subs	r3, #1
1000b566:	4698      	mov	r8, r3
1000b568:	4659      	mov	r1, fp
1000b56a:	e7e4      	b.n	1000b536 <_strtol_l.part.0+0xc6>
1000b56c:	782c      	ldrb	r4, [r5, #0]
1000b56e:	1c9d      	adds	r5, r3, #2
1000b570:	2380      	movs	r3, #128	; 0x80
1000b572:	061b      	lsls	r3, r3, #24
1000b574:	469b      	mov	fp, r3
1000b576:	2301      	movs	r3, #1
1000b578:	9301      	str	r3, [sp, #4]
1000b57a:	e796      	b.n	1000b4aa <_strtol_l.part.0+0x3a>
1000b57c:	2c30      	cmp	r4, #48	; 0x30
1000b57e:	d104      	bne.n	1000b58a <_strtol_l.part.0+0x11a>
1000b580:	2220      	movs	r2, #32
1000b582:	782b      	ldrb	r3, [r5, #0]
1000b584:	4393      	bics	r3, r2
1000b586:	2b58      	cmp	r3, #88	; 0x58
1000b588:	d001      	beq.n	1000b58e <_strtol_l.part.0+0x11e>
1000b58a:	2710      	movs	r7, #16
1000b58c:	e792      	b.n	1000b4b4 <_strtol_l.part.0+0x44>
1000b58e:	786c      	ldrb	r4, [r5, #1]
1000b590:	2710      	movs	r7, #16
1000b592:	2610      	movs	r6, #16
1000b594:	3502      	adds	r5, #2
1000b596:	e78d      	b.n	1000b4b4 <_strtol_l.part.0+0x44>
1000b598:	2220      	movs	r2, #32
1000b59a:	782b      	ldrb	r3, [r5, #0]
1000b59c:	4393      	bics	r3, r2
1000b59e:	2b58      	cmp	r3, #88	; 0x58
1000b5a0:	d0f5      	beq.n	1000b58e <_strtol_l.part.0+0x11e>
1000b5a2:	2708      	movs	r7, #8
1000b5a4:	2608      	movs	r6, #8
1000b5a6:	e785      	b.n	1000b4b4 <_strtol_l.part.0+0x44>
1000b5a8:	468b      	mov	fp, r1
1000b5aa:	e7db      	b.n	1000b564 <_strtol_l.part.0+0xf4>
1000b5ac:	1000de85 	.word	0x1000de85
1000b5b0:	7fffffff 	.word	0x7fffffff

1000b5b4 <strtol>:
1000b5b4:	0013      	movs	r3, r2
1000b5b6:	b510      	push	{r4, lr}
1000b5b8:	2a01      	cmp	r2, #1
1000b5ba:	d009      	beq.n	1000b5d0 <strtol+0x1c>
1000b5bc:	2a24      	cmp	r2, #36	; 0x24
1000b5be:	d807      	bhi.n	1000b5d0 <strtol+0x1c>
1000b5c0:	4a06      	ldr	r2, [pc, #24]	; (1000b5dc <strtol+0x28>)
1000b5c2:	6814      	ldr	r4, [r2, #0]
1000b5c4:	000a      	movs	r2, r1
1000b5c6:	0001      	movs	r1, r0
1000b5c8:	0020      	movs	r0, r4
1000b5ca:	f7ff ff51 	bl	1000b470 <_strtol_l.part.0>
1000b5ce:	e004      	b.n	1000b5da <strtol+0x26>
1000b5d0:	f7ff fbaa 	bl	1000ad28 <__errno>
1000b5d4:	2316      	movs	r3, #22
1000b5d6:	6003      	str	r3, [r0, #0]
1000b5d8:	2000      	movs	r0, #0
1000b5da:	bd10      	pop	{r4, pc}
1000b5dc:	20000500 	.word	0x20000500

1000b5e0 <_cleanup_r>:
1000b5e0:	b510      	push	{r4, lr}
1000b5e2:	4902      	ldr	r1, [pc, #8]	; (1000b5ec <_cleanup_r+0xc>)
1000b5e4:	f000 f9f4 	bl	1000b9d0 <_fwalk_reent>
1000b5e8:	bd10      	pop	{r4, pc}
1000b5ea:	46c0      	nop			; (mov r8, r8)
1000b5ec:	1000bc45 	.word	0x1000bc45

1000b5f0 <__sinit>:
1000b5f0:	b5f8      	push	{r3, r4, r5, r6, r7, lr}
1000b5f2:	46de      	mov	lr, fp
1000b5f4:	4657      	mov	r7, sl
1000b5f6:	464e      	mov	r6, r9
1000b5f8:	4645      	mov	r5, r8
1000b5fa:	b5e0      	push	{r5, r6, r7, lr}
1000b5fc:	0006      	movs	r6, r0
1000b5fe:	4f3c      	ldr	r7, [pc, #240]	; (1000b6f0 <__sinit+0x100>)
1000b600:	0038      	movs	r0, r7
1000b602:	f7ff fbe7 	bl	1000add4 <__retarget_lock_acquire_recursive>
1000b606:	6bb4      	ldr	r4, [r6, #56]	; 0x38
1000b608:	2c00      	cmp	r4, #0
1000b60a:	d168      	bne.n	1000b6de <__sinit+0xee>
1000b60c:	4b39      	ldr	r3, [pc, #228]	; (1000b6f4 <__sinit+0x104>)
1000b60e:	2203      	movs	r2, #3
1000b610:	63f3      	str	r3, [r6, #60]	; 0x3c
1000b612:	23b8      	movs	r3, #184	; 0xb8
1000b614:	009b      	lsls	r3, r3, #2
1000b616:	50f4      	str	r4, [r6, r3]
1000b618:	3304      	adds	r3, #4
1000b61a:	6875      	ldr	r5, [r6, #4]
1000b61c:	50f2      	str	r2, [r6, r3]
1000b61e:	3308      	adds	r3, #8
1000b620:	18f2      	adds	r2, r6, r3
1000b622:	3b04      	subs	r3, #4
1000b624:	50f2      	str	r2, [r6, r3]
1000b626:	0028      	movs	r0, r5
1000b628:	2304      	movs	r3, #4
1000b62a:	2208      	movs	r2, #8
1000b62c:	2100      	movs	r1, #0
1000b62e:	60eb      	str	r3, [r5, #12]
1000b630:	666c      	str	r4, [r5, #100]	; 0x64
1000b632:	602c      	str	r4, [r5, #0]
1000b634:	606c      	str	r4, [r5, #4]
1000b636:	60ac      	str	r4, [r5, #8]
1000b638:	612c      	str	r4, [r5, #16]
1000b63a:	616c      	str	r4, [r5, #20]
1000b63c:	61ac      	str	r4, [r5, #24]
1000b63e:	305c      	adds	r0, #92	; 0x5c
1000b640:	f7fc fb32 	bl	10007ca8 <__wrap_memset>
1000b644:	0028      	movs	r0, r5
1000b646:	4b2c      	ldr	r3, [pc, #176]	; (1000b6f8 <__sinit+0x108>)
1000b648:	61ed      	str	r5, [r5, #28]
1000b64a:	469b      	mov	fp, r3
1000b64c:	622b      	str	r3, [r5, #32]
1000b64e:	4b2b      	ldr	r3, [pc, #172]	; (1000b6fc <__sinit+0x10c>)
1000b650:	3058      	adds	r0, #88	; 0x58
1000b652:	469a      	mov	sl, r3
1000b654:	626b      	str	r3, [r5, #36]	; 0x24
1000b656:	4b2a      	ldr	r3, [pc, #168]	; (1000b700 <__sinit+0x110>)
1000b658:	4699      	mov	r9, r3
1000b65a:	62ab      	str	r3, [r5, #40]	; 0x28
1000b65c:	4b29      	ldr	r3, [pc, #164]	; (1000b704 <__sinit+0x114>)
1000b65e:	62eb      	str	r3, [r5, #44]	; 0x2c
1000b660:	4698      	mov	r8, r3
1000b662:	f7ff fbb3 	bl	1000adcc <__retarget_lock_init_recursive>
1000b666:	68b5      	ldr	r5, [r6, #8]
1000b668:	4b27      	ldr	r3, [pc, #156]	; (1000b708 <__sinit+0x118>)
1000b66a:	0028      	movs	r0, r5
1000b66c:	2208      	movs	r2, #8
1000b66e:	2100      	movs	r1, #0
1000b670:	60eb      	str	r3, [r5, #12]
1000b672:	666c      	str	r4, [r5, #100]	; 0x64
1000b674:	602c      	str	r4, [r5, #0]
1000b676:	606c      	str	r4, [r5, #4]
1000b678:	60ac      	str	r4, [r5, #8]
1000b67a:	612c      	str	r4, [r5, #16]
1000b67c:	616c      	str	r4, [r5, #20]
1000b67e:	61ac      	str	r4, [r5, #24]
1000b680:	305c      	adds	r0, #92	; 0x5c
1000b682:	f7fc fb11 	bl	10007ca8 <__wrap_memset>
1000b686:	465b      	mov	r3, fp
1000b688:	622b      	str	r3, [r5, #32]
1000b68a:	4653      	mov	r3, sl
1000b68c:	626b      	str	r3, [r5, #36]	; 0x24
1000b68e:	464b      	mov	r3, r9
1000b690:	0028      	movs	r0, r5
1000b692:	62ab      	str	r3, [r5, #40]	; 0x28
1000b694:	4643      	mov	r3, r8
1000b696:	61ed      	str	r5, [r5, #28]
1000b698:	62eb      	str	r3, [r5, #44]	; 0x2c
1000b69a:	3058      	adds	r0, #88	; 0x58
1000b69c:	f7ff fb96 	bl	1000adcc <__retarget_lock_init_recursive>
1000b6a0:	68f5      	ldr	r5, [r6, #12]
1000b6a2:	4b1a      	ldr	r3, [pc, #104]	; (1000b70c <__sinit+0x11c>)
1000b6a4:	0028      	movs	r0, r5
1000b6a6:	2208      	movs	r2, #8
1000b6a8:	2100      	movs	r1, #0
1000b6aa:	60eb      	str	r3, [r5, #12]
1000b6ac:	666c      	str	r4, [r5, #100]	; 0x64
1000b6ae:	602c      	str	r4, [r5, #0]
1000b6b0:	606c      	str	r4, [r5, #4]
1000b6b2:	60ac      	str	r4, [r5, #8]
1000b6b4:	612c      	str	r4, [r5, #16]
1000b6b6:	616c      	str	r4, [r5, #20]
1000b6b8:	61ac      	str	r4, [r5, #24]
1000b6ba:	305c      	adds	r0, #92	; 0x5c
1000b6bc:	f7fc faf4 	bl	10007ca8 <__wrap_memset>
1000b6c0:	465b      	mov	r3, fp
1000b6c2:	622b      	str	r3, [r5, #32]
1000b6c4:	4653      	mov	r3, sl
1000b6c6:	626b      	str	r3, [r5, #36]	; 0x24
1000b6c8:	464b      	mov	r3, r9
1000b6ca:	0028      	movs	r0, r5
1000b6cc:	62ab      	str	r3, [r5, #40]	; 0x28
1000b6ce:	4643      	mov	r3, r8
1000b6d0:	61ed      	str	r5, [r5, #28]
1000b6d2:	62eb      	str	r3, [r5, #44]	; 0x2c
1000b6d4:	3058      	adds	r0, #88	; 0x58
1000b6d6:	f7ff fb79 	bl	1000adcc <__retarget_lock_init_recursive>
1000b6da:	2301      	movs	r3, #1
1000b6dc:	63b3      	str	r3, [r6, #56]	; 0x38
1000b6de:	0038      	movs	r0, r7
1000b6e0:	f7ff fb7a 	bl	1000add8 <__retarget_lock_release_recursive>
1000b6e4:	bcf0      	pop	{r4, r5, r6, r7}
1000b6e6:	46bb      	mov	fp, r7
1000b6e8:	46b2      	mov	sl, r6
1000b6ea:	46a9      	mov	r9, r5
1000b6ec:	46a0      	mov	r8, r4
1000b6ee:	bdf8      	pop	{r3, r4, r5, r6, r7, pc}
1000b6f0:	20000e8c 	.word	0x20000e8c
1000b6f4:	1000b5e1 	.word	0x1000b5e1
1000b6f8:	1000bb59 	.word	0x1000bb59
1000b6fc:	1000bb81 	.word	0x1000bb81
1000b700:	1000bbc1 	.word	0x1000bbc1
1000b704:	1000bbed 	.word	0x1000bbed
1000b708:	00010009 	.word	0x00010009
1000b70c:	00020012 	.word	0x00020012

1000b710 <__sfp_lock_acquire>:
1000b710:	b510      	push	{r4, lr}
1000b712:	4802      	ldr	r0, [pc, #8]	; (1000b71c <__sfp_lock_acquire+0xc>)
1000b714:	f7ff fb5e 	bl	1000add4 <__retarget_lock_acquire_recursive>
1000b718:	bd10      	pop	{r4, pc}
1000b71a:	46c0      	nop			; (mov r8, r8)
1000b71c:	20000e88 	.word	0x20000e88

1000b720 <__sfp_lock_release>:
1000b720:	b510      	push	{r4, lr}
1000b722:	4802      	ldr	r0, [pc, #8]	; (1000b72c <__sfp_lock_release+0xc>)
1000b724:	f7ff fb58 	bl	1000add8 <__retarget_lock_release_recursive>
1000b728:	bd10      	pop	{r4, pc}
1000b72a:	46c0      	nop			; (mov r8, r8)
1000b72c:	20000e88 	.word	0x20000e88

1000b730 <_malloc_trim_r>:
1000b730:	b5f8      	push	{r3, r4, r5, r6, r7, lr}
1000b732:	000c      	movs	r4, r1
1000b734:	0005      	movs	r5, r0
1000b736:	f7ff fe27 	bl	1000b388 <__malloc_lock>
1000b73a:	4f20      	ldr	r7, [pc, #128]	; (1000b7bc <_malloc_trim_r+0x8c>)
1000b73c:	68bb      	ldr	r3, [r7, #8]
1000b73e:	685e      	ldr	r6, [r3, #4]
1000b740:	2303      	movs	r3, #3
1000b742:	439e      	bics	r6, r3
1000b744:	4b1e      	ldr	r3, [pc, #120]	; (1000b7c0 <_malloc_trim_r+0x90>)
1000b746:	1b34      	subs	r4, r6, r4
1000b748:	469c      	mov	ip, r3
1000b74a:	4464      	add	r4, ip
1000b74c:	0b24      	lsrs	r4, r4, #12
1000b74e:	3c01      	subs	r4, #1
1000b750:	3311      	adds	r3, #17
1000b752:	0324      	lsls	r4, r4, #12
1000b754:	429c      	cmp	r4, r3
1000b756:	db07      	blt.n	1000b768 <_malloc_trim_r+0x38>
1000b758:	2100      	movs	r1, #0
1000b75a:	0028      	movs	r0, r5
1000b75c:	f7ff fe40 	bl	1000b3e0 <_sbrk_r>
1000b760:	68bb      	ldr	r3, [r7, #8]
1000b762:	199b      	adds	r3, r3, r6
1000b764:	4298      	cmp	r0, r3
1000b766:	d004      	beq.n	1000b772 <_malloc_trim_r+0x42>
1000b768:	0028      	movs	r0, r5
1000b76a:	f7ff fe15 	bl	1000b398 <__malloc_unlock>
1000b76e:	2000      	movs	r0, #0
1000b770:	bdf8      	pop	{r3, r4, r5, r6, r7, pc}
1000b772:	0028      	movs	r0, r5
1000b774:	4261      	negs	r1, r4
1000b776:	f7ff fe33 	bl	1000b3e0 <_sbrk_r>
1000b77a:	1c43      	adds	r3, r0, #1
1000b77c:	d00d      	beq.n	1000b79a <_malloc_trim_r+0x6a>
1000b77e:	2201      	movs	r2, #1
1000b780:	68bb      	ldr	r3, [r7, #8]
1000b782:	1b36      	subs	r6, r6, r4
1000b784:	4316      	orrs	r6, r2
1000b786:	605e      	str	r6, [r3, #4]
1000b788:	4b0e      	ldr	r3, [pc, #56]	; (1000b7c4 <_malloc_trim_r+0x94>)
1000b78a:	0028      	movs	r0, r5
1000b78c:	681a      	ldr	r2, [r3, #0]
1000b78e:	1b14      	subs	r4, r2, r4
1000b790:	601c      	str	r4, [r3, #0]
1000b792:	f7ff fe01 	bl	1000b398 <__malloc_unlock>
1000b796:	2001      	movs	r0, #1
1000b798:	e7ea      	b.n	1000b770 <_malloc_trim_r+0x40>
1000b79a:	2100      	movs	r1, #0
1000b79c:	0028      	movs	r0, r5
1000b79e:	f7ff fe1f 	bl	1000b3e0 <_sbrk_r>
1000b7a2:	68ba      	ldr	r2, [r7, #8]
1000b7a4:	1a83      	subs	r3, r0, r2
1000b7a6:	2b0f      	cmp	r3, #15
1000b7a8:	ddde      	ble.n	1000b768 <_malloc_trim_r+0x38>
1000b7aa:	4907      	ldr	r1, [pc, #28]	; (1000b7c8 <_malloc_trim_r+0x98>)
1000b7ac:	6809      	ldr	r1, [r1, #0]
1000b7ae:	1a40      	subs	r0, r0, r1
1000b7b0:	4904      	ldr	r1, [pc, #16]	; (1000b7c4 <_malloc_trim_r+0x94>)
1000b7b2:	6008      	str	r0, [r1, #0]
1000b7b4:	2101      	movs	r1, #1
1000b7b6:	430b      	orrs	r3, r1
1000b7b8:	6053      	str	r3, [r2, #4]
1000b7ba:	e7d5      	b.n	1000b768 <_malloc_trim_r+0x38>
1000b7bc:	20000930 	.word	0x20000930
1000b7c0:	00000fef 	.word	0x00000fef
1000b7c4:	20000e90 	.word	0x20000e90
1000b7c8:	20000d38 	.word	0x20000d38

1000b7cc <_free_r>:
1000b7cc:	b5f0      	push	{r4, r5, r6, r7, lr}
1000b7ce:	46c6      	mov	lr, r8
1000b7d0:	0005      	movs	r5, r0
1000b7d2:	000c      	movs	r4, r1
1000b7d4:	b500      	push	{lr}
1000b7d6:	2900      	cmp	r1, #0
1000b7d8:	d04f      	beq.n	1000b87a <_free_r+0xae>
1000b7da:	f7ff fdd5 	bl	1000b388 <__malloc_lock>
1000b7de:	0021      	movs	r1, r4
1000b7e0:	3908      	subs	r1, #8
1000b7e2:	684c      	ldr	r4, [r1, #4]
1000b7e4:	2601      	movs	r6, #1
1000b7e6:	0022      	movs	r2, r4
1000b7e8:	2003      	movs	r0, #3
1000b7ea:	43b2      	bics	r2, r6
1000b7ec:	188f      	adds	r7, r1, r2
1000b7ee:	687b      	ldr	r3, [r7, #4]
1000b7f0:	4383      	bics	r3, r0
1000b7f2:	4862      	ldr	r0, [pc, #392]	; (1000b97c <_free_r+0x1b0>)
1000b7f4:	4698      	mov	r8, r3
1000b7f6:	6883      	ldr	r3, [r0, #8]
1000b7f8:	42bb      	cmp	r3, r7
1000b7fa:	d06a      	beq.n	1000b8d2 <_free_r+0x106>
1000b7fc:	4643      	mov	r3, r8
1000b7fe:	607b      	str	r3, [r7, #4]
1000b800:	4226      	tst	r6, r4
1000b802:	d11e      	bne.n	1000b842 <_free_r+0x76>
1000b804:	2308      	movs	r3, #8
1000b806:	469c      	mov	ip, r3
1000b808:	680c      	ldr	r4, [r1, #0]
1000b80a:	4484      	add	ip, r0
1000b80c:	1b09      	subs	r1, r1, r4
1000b80e:	1912      	adds	r2, r2, r4
1000b810:	688c      	ldr	r4, [r1, #8]
1000b812:	4564      	cmp	r4, ip
1000b814:	d04f      	beq.n	1000b8b6 <_free_r+0xea>
1000b816:	68cb      	ldr	r3, [r1, #12]
1000b818:	60e3      	str	r3, [r4, #12]
1000b81a:	609c      	str	r4, [r3, #8]
1000b81c:	4643      	mov	r3, r8
1000b81e:	18fc      	adds	r4, r7, r3
1000b820:	6864      	ldr	r4, [r4, #4]
1000b822:	4234      	tst	r4, r6
1000b824:	d111      	bne.n	1000b84a <_free_r+0x7e>
1000b826:	68bb      	ldr	r3, [r7, #8]
1000b828:	4c55      	ldr	r4, [pc, #340]	; (1000b980 <_free_r+0x1b4>)
1000b82a:	4442      	add	r2, r8
1000b82c:	42a3      	cmp	r3, r4
1000b82e:	d100      	bne.n	1000b832 <_free_r+0x66>
1000b830:	e07e      	b.n	1000b930 <_free_r+0x164>
1000b832:	68fc      	ldr	r4, [r7, #12]
1000b834:	60dc      	str	r4, [r3, #12]
1000b836:	60a3      	str	r3, [r4, #8]
1000b838:	2301      	movs	r3, #1
1000b83a:	4313      	orrs	r3, r2
1000b83c:	604b      	str	r3, [r1, #4]
1000b83e:	508a      	str	r2, [r1, r2]
1000b840:	e006      	b.n	1000b850 <_free_r+0x84>
1000b842:	18fc      	adds	r4, r7, r3
1000b844:	6864      	ldr	r4, [r4, #4]
1000b846:	4234      	tst	r4, r6
1000b848:	d0ed      	beq.n	1000b826 <_free_r+0x5a>
1000b84a:	4316      	orrs	r6, r2
1000b84c:	604e      	str	r6, [r1, #4]
1000b84e:	603a      	str	r2, [r7, #0]
1000b850:	2380      	movs	r3, #128	; 0x80
1000b852:	009b      	lsls	r3, r3, #2
1000b854:	429a      	cmp	r2, r3
1000b856:	d213      	bcs.n	1000b880 <_free_r+0xb4>
1000b858:	0954      	lsrs	r4, r2, #5
1000b85a:	08d3      	lsrs	r3, r2, #3
1000b85c:	2201      	movs	r2, #1
1000b85e:	40a2      	lsls	r2, r4
1000b860:	6844      	ldr	r4, [r0, #4]
1000b862:	00db      	lsls	r3, r3, #3
1000b864:	4322      	orrs	r2, r4
1000b866:	6042      	str	r2, [r0, #4]
1000b868:	1818      	adds	r0, r3, r0
1000b86a:	6883      	ldr	r3, [r0, #8]
1000b86c:	60c8      	str	r0, [r1, #12]
1000b86e:	608b      	str	r3, [r1, #8]
1000b870:	6081      	str	r1, [r0, #8]
1000b872:	60d9      	str	r1, [r3, #12]
1000b874:	0028      	movs	r0, r5
1000b876:	f7ff fd8f 	bl	1000b398 <__malloc_unlock>
1000b87a:	bc80      	pop	{r7}
1000b87c:	46b8      	mov	r8, r7
1000b87e:	bdf0      	pop	{r4, r5, r6, r7, pc}
1000b880:	0a53      	lsrs	r3, r2, #9
1000b882:	2b04      	cmp	r3, #4
1000b884:	d83e      	bhi.n	1000b904 <_free_r+0x138>
1000b886:	0994      	lsrs	r4, r2, #6
1000b888:	0026      	movs	r6, r4
1000b88a:	3439      	adds	r4, #57	; 0x39
1000b88c:	3638      	adds	r6, #56	; 0x38
1000b88e:	00e4      	lsls	r4, r4, #3
1000b890:	1904      	adds	r4, r0, r4
1000b892:	6823      	ldr	r3, [r4, #0]
1000b894:	3c08      	subs	r4, #8
1000b896:	2703      	movs	r7, #3
1000b898:	429c      	cmp	r4, r3
1000b89a:	d042      	beq.n	1000b922 <_free_r+0x156>
1000b89c:	6858      	ldr	r0, [r3, #4]
1000b89e:	43b8      	bics	r0, r7
1000b8a0:	4290      	cmp	r0, r2
1000b8a2:	d902      	bls.n	1000b8aa <_free_r+0xde>
1000b8a4:	689b      	ldr	r3, [r3, #8]
1000b8a6:	429c      	cmp	r4, r3
1000b8a8:	d1f8      	bne.n	1000b89c <_free_r+0xd0>
1000b8aa:	68dc      	ldr	r4, [r3, #12]
1000b8ac:	60cc      	str	r4, [r1, #12]
1000b8ae:	608b      	str	r3, [r1, #8]
1000b8b0:	60a1      	str	r1, [r4, #8]
1000b8b2:	60d9      	str	r1, [r3, #12]
1000b8b4:	e7de      	b.n	1000b874 <_free_r+0xa8>
1000b8b6:	4643      	mov	r3, r8
1000b8b8:	18f8      	adds	r0, r7, r3
1000b8ba:	6840      	ldr	r0, [r0, #4]
1000b8bc:	4230      	tst	r0, r6
1000b8be:	d157      	bne.n	1000b970 <_free_r+0x1a4>
1000b8c0:	68fb      	ldr	r3, [r7, #12]
1000b8c2:	68b8      	ldr	r0, [r7, #8]
1000b8c4:	4442      	add	r2, r8
1000b8c6:	4316      	orrs	r6, r2
1000b8c8:	60c3      	str	r3, [r0, #12]
1000b8ca:	6098      	str	r0, [r3, #8]
1000b8cc:	604e      	str	r6, [r1, #4]
1000b8ce:	508a      	str	r2, [r1, r2]
1000b8d0:	e7d0      	b.n	1000b874 <_free_r+0xa8>
1000b8d2:	0013      	movs	r3, r2
1000b8d4:	4443      	add	r3, r8
1000b8d6:	4226      	tst	r6, r4
1000b8d8:	d106      	bne.n	1000b8e8 <_free_r+0x11c>
1000b8da:	680a      	ldr	r2, [r1, #0]
1000b8dc:	1a89      	subs	r1, r1, r2
1000b8de:	688c      	ldr	r4, [r1, #8]
1000b8e0:	189b      	adds	r3, r3, r2
1000b8e2:	68ca      	ldr	r2, [r1, #12]
1000b8e4:	60e2      	str	r2, [r4, #12]
1000b8e6:	6094      	str	r4, [r2, #8]
1000b8e8:	2201      	movs	r2, #1
1000b8ea:	431a      	orrs	r2, r3
1000b8ec:	604a      	str	r2, [r1, #4]
1000b8ee:	4a25      	ldr	r2, [pc, #148]	; (1000b984 <_free_r+0x1b8>)
1000b8f0:	6081      	str	r1, [r0, #8]
1000b8f2:	6812      	ldr	r2, [r2, #0]
1000b8f4:	429a      	cmp	r2, r3
1000b8f6:	d8bd      	bhi.n	1000b874 <_free_r+0xa8>
1000b8f8:	4b23      	ldr	r3, [pc, #140]	; (1000b988 <_free_r+0x1bc>)
1000b8fa:	0028      	movs	r0, r5
1000b8fc:	6819      	ldr	r1, [r3, #0]
1000b8fe:	f7ff ff17 	bl	1000b730 <_malloc_trim_r>
1000b902:	e7b7      	b.n	1000b874 <_free_r+0xa8>
1000b904:	2b14      	cmp	r3, #20
1000b906:	d907      	bls.n	1000b918 <_free_r+0x14c>
1000b908:	2b54      	cmp	r3, #84	; 0x54
1000b90a:	d81a      	bhi.n	1000b942 <_free_r+0x176>
1000b90c:	0b14      	lsrs	r4, r2, #12
1000b90e:	0026      	movs	r6, r4
1000b910:	346f      	adds	r4, #111	; 0x6f
1000b912:	366e      	adds	r6, #110	; 0x6e
1000b914:	00e4      	lsls	r4, r4, #3
1000b916:	e7bb      	b.n	1000b890 <_free_r+0xc4>
1000b918:	001e      	movs	r6, r3
1000b91a:	335c      	adds	r3, #92	; 0x5c
1000b91c:	365b      	adds	r6, #91	; 0x5b
1000b91e:	00dc      	lsls	r4, r3, #3
1000b920:	e7b6      	b.n	1000b890 <_free_r+0xc4>
1000b922:	2201      	movs	r2, #1
1000b924:	10b6      	asrs	r6, r6, #2
1000b926:	40b2      	lsls	r2, r6
1000b928:	6846      	ldr	r6, [r0, #4]
1000b92a:	4332      	orrs	r2, r6
1000b92c:	6042      	str	r2, [r0, #4]
1000b92e:	e7bd      	b.n	1000b8ac <_free_r+0xe0>
1000b930:	60d9      	str	r1, [r3, #12]
1000b932:	6099      	str	r1, [r3, #8]
1000b934:	60cb      	str	r3, [r1, #12]
1000b936:	608b      	str	r3, [r1, #8]
1000b938:	2301      	movs	r3, #1
1000b93a:	4313      	orrs	r3, r2
1000b93c:	604b      	str	r3, [r1, #4]
1000b93e:	508a      	str	r2, [r1, r2]
1000b940:	e798      	b.n	1000b874 <_free_r+0xa8>
1000b942:	24aa      	movs	r4, #170	; 0xaa
1000b944:	0064      	lsls	r4, r4, #1
1000b946:	42a3      	cmp	r3, r4
1000b948:	d805      	bhi.n	1000b956 <_free_r+0x18a>
1000b94a:	0bd4      	lsrs	r4, r2, #15
1000b94c:	0026      	movs	r6, r4
1000b94e:	3478      	adds	r4, #120	; 0x78
1000b950:	3677      	adds	r6, #119	; 0x77
1000b952:	00e4      	lsls	r4, r4, #3
1000b954:	e79c      	b.n	1000b890 <_free_r+0xc4>
1000b956:	4c0d      	ldr	r4, [pc, #52]	; (1000b98c <_free_r+0x1c0>)
1000b958:	42a3      	cmp	r3, r4
1000b95a:	d805      	bhi.n	1000b968 <_free_r+0x19c>
1000b95c:	0c94      	lsrs	r4, r2, #18
1000b95e:	0026      	movs	r6, r4
1000b960:	347d      	adds	r4, #125	; 0x7d
1000b962:	367c      	adds	r6, #124	; 0x7c
1000b964:	00e4      	lsls	r4, r4, #3
1000b966:	e793      	b.n	1000b890 <_free_r+0xc4>
1000b968:	24fe      	movs	r4, #254	; 0xfe
1000b96a:	267e      	movs	r6, #126	; 0x7e
1000b96c:	00a4      	lsls	r4, r4, #2
1000b96e:	e78f      	b.n	1000b890 <_free_r+0xc4>
1000b970:	0033      	movs	r3, r6
1000b972:	4313      	orrs	r3, r2
1000b974:	604b      	str	r3, [r1, #4]
1000b976:	603a      	str	r2, [r7, #0]
1000b978:	e77c      	b.n	1000b874 <_free_r+0xa8>
1000b97a:	46c0      	nop			; (mov r8, r8)
1000b97c:	20000930 	.word	0x20000930
1000b980:	20000938 	.word	0x20000938
1000b984:	20000d3c 	.word	0x20000d3c
1000b988:	20000ec0 	.word	0x20000ec0
1000b98c:	00000554 	.word	0x00000554

1000b990 <_fwalk>:
1000b990:	b5f0      	push	{r4, r5, r6, r7, lr}
1000b992:	46c6      	mov	lr, r8
1000b994:	23b8      	movs	r3, #184	; 0xb8
1000b996:	4688      	mov	r8, r1
1000b998:	2600      	movs	r6, #0
1000b99a:	b500      	push	{lr}
1000b99c:	009b      	lsls	r3, r3, #2
1000b99e:	18c7      	adds	r7, r0, r3
1000b9a0:	687b      	ldr	r3, [r7, #4]
1000b9a2:	68bc      	ldr	r4, [r7, #8]
1000b9a4:	1e5d      	subs	r5, r3, #1
1000b9a6:	d40c      	bmi.n	1000b9c2 <_fwalk+0x32>
1000b9a8:	89a3      	ldrh	r3, [r4, #12]
1000b9aa:	2b01      	cmp	r3, #1
1000b9ac:	d906      	bls.n	1000b9bc <_fwalk+0x2c>
1000b9ae:	220e      	movs	r2, #14
1000b9b0:	5ea3      	ldrsh	r3, [r4, r2]
1000b9b2:	3301      	adds	r3, #1
1000b9b4:	d002      	beq.n	1000b9bc <_fwalk+0x2c>
1000b9b6:	0020      	movs	r0, r4
1000b9b8:	47c0      	blx	r8
1000b9ba:	4306      	orrs	r6, r0
1000b9bc:	3468      	adds	r4, #104	; 0x68
1000b9be:	3d01      	subs	r5, #1
1000b9c0:	d2f2      	bcs.n	1000b9a8 <_fwalk+0x18>
1000b9c2:	683f      	ldr	r7, [r7, #0]
1000b9c4:	2f00      	cmp	r7, #0
1000b9c6:	d1eb      	bne.n	1000b9a0 <_fwalk+0x10>
1000b9c8:	0030      	movs	r0, r6
1000b9ca:	bc80      	pop	{r7}
1000b9cc:	46b8      	mov	r8, r7
1000b9ce:	bdf0      	pop	{r4, r5, r6, r7, pc}

1000b9d0 <_fwalk_reent>:
1000b9d0:	b5f8      	push	{r3, r4, r5, r6, r7, lr}
1000b9d2:	4647      	mov	r7, r8
1000b9d4:	46ce      	mov	lr, r9
1000b9d6:	b580      	push	{r7, lr}
1000b9d8:	27b8      	movs	r7, #184	; 0xb8
1000b9da:	4680      	mov	r8, r0
1000b9dc:	4689      	mov	r9, r1
1000b9de:	2600      	movs	r6, #0
1000b9e0:	00bf      	lsls	r7, r7, #2
1000b9e2:	4447      	add	r7, r8
1000b9e4:	687b      	ldr	r3, [r7, #4]
1000b9e6:	68bc      	ldr	r4, [r7, #8]
1000b9e8:	1e5d      	subs	r5, r3, #1
1000b9ea:	d40d      	bmi.n	1000ba08 <_fwalk_reent+0x38>
1000b9ec:	89a3      	ldrh	r3, [r4, #12]
1000b9ee:	2b01      	cmp	r3, #1
1000b9f0:	d907      	bls.n	1000ba02 <_fwalk_reent+0x32>
1000b9f2:	220e      	movs	r2, #14
1000b9f4:	5ea3      	ldrsh	r3, [r4, r2]
1000b9f6:	3301      	adds	r3, #1
1000b9f8:	d003      	beq.n	1000ba02 <_fwalk_reent+0x32>
1000b9fa:	0021      	movs	r1, r4
1000b9fc:	4640      	mov	r0, r8
1000b9fe:	47c8      	blx	r9
1000ba00:	4306      	orrs	r6, r0
1000ba02:	3468      	adds	r4, #104	; 0x68
1000ba04:	3d01      	subs	r5, #1
1000ba06:	d2f1      	bcs.n	1000b9ec <_fwalk_reent+0x1c>
1000ba08:	683f      	ldr	r7, [r7, #0]
1000ba0a:	2f00      	cmp	r7, #0
1000ba0c:	d1ea      	bne.n	1000b9e4 <_fwalk_reent+0x14>
1000ba0e:	0030      	movs	r0, r6
1000ba10:	bcc0      	pop	{r6, r7}
1000ba12:	46b9      	mov	r9, r7
1000ba14:	46b0      	mov	r8, r6
1000ba16:	bdf8      	pop	{r3, r4, r5, r6, r7, pc}

1000ba18 <lflush>:
1000ba18:	2209      	movs	r2, #9
1000ba1a:	b510      	push	{r4, lr}
1000ba1c:	8981      	ldrh	r1, [r0, #12]
1000ba1e:	0003      	movs	r3, r0
1000ba20:	400a      	ands	r2, r1
1000ba22:	2000      	movs	r0, #0
1000ba24:	2a09      	cmp	r2, #9
1000ba26:	d000      	beq.n	1000ba2a <lflush+0x12>
1000ba28:	bd10      	pop	{r4, pc}
1000ba2a:	0018      	movs	r0, r3
1000ba2c:	f000 fa4e 	bl	1000becc <fflush>
1000ba30:	e7fa      	b.n	1000ba28 <lflush+0x10>
1000ba32:	46c0      	nop			; (mov r8, r8)

1000ba34 <__srefill_r>:
1000ba34:	b5f8      	push	{r3, r4, r5, r6, r7, lr}
1000ba36:	0005      	movs	r5, r0
1000ba38:	000c      	movs	r4, r1
1000ba3a:	2800      	cmp	r0, #0
1000ba3c:	d002      	beq.n	1000ba44 <__srefill_r+0x10>
1000ba3e:	6b83      	ldr	r3, [r0, #56]	; 0x38
1000ba40:	2b00      	cmp	r3, #0
1000ba42:	d045      	beq.n	1000bad0 <__srefill_r+0x9c>
1000ba44:	2180      	movs	r1, #128	; 0x80
1000ba46:	230c      	movs	r3, #12
1000ba48:	5ee2      	ldrsh	r2, [r4, r3]
1000ba4a:	89a3      	ldrh	r3, [r4, #12]
1000ba4c:	0189      	lsls	r1, r1, #6
1000ba4e:	420b      	tst	r3, r1
1000ba50:	d106      	bne.n	1000ba60 <__srefill_r+0x2c>
1000ba52:	430a      	orrs	r2, r1
1000ba54:	4b3d      	ldr	r3, [pc, #244]	; (1000bb4c <__srefill_r+0x118>)
1000ba56:	6e61      	ldr	r1, [r4, #100]	; 0x64
1000ba58:	81a2      	strh	r2, [r4, #12]
1000ba5a:	400b      	ands	r3, r1
1000ba5c:	6663      	str	r3, [r4, #100]	; 0x64
1000ba5e:	b293      	uxth	r3, r2
1000ba60:	2100      	movs	r1, #0
1000ba62:	6061      	str	r1, [r4, #4]
1000ba64:	0699      	lsls	r1, r3, #26
1000ba66:	d45d      	bmi.n	1000bb24 <__srefill_r+0xf0>
1000ba68:	0759      	lsls	r1, r3, #29
1000ba6a:	d41d      	bmi.n	1000baa8 <__srefill_r+0x74>
1000ba6c:	06d9      	lsls	r1, r3, #27
1000ba6e:	d564      	bpl.n	1000bb3a <__srefill_r+0x106>
1000ba70:	2608      	movs	r6, #8
1000ba72:	421e      	tst	r6, r3
1000ba74:	d140      	bne.n	1000baf8 <__srefill_r+0xc4>
1000ba76:	2304      	movs	r3, #4
1000ba78:	431a      	orrs	r2, r3
1000ba7a:	81a2      	strh	r2, [r4, #12]
1000ba7c:	6923      	ldr	r3, [r4, #16]
1000ba7e:	2b00      	cmp	r3, #0
1000ba80:	d046      	beq.n	1000bb10 <__srefill_r+0xdc>
1000ba82:	89a6      	ldrh	r6, [r4, #12]
1000ba84:	230c      	movs	r3, #12
1000ba86:	5ee7      	ldrsh	r7, [r4, r3]
1000ba88:	07b3      	lsls	r3, r6, #30
1000ba8a:	d124      	bne.n	1000bad6 <__srefill_r+0xa2>
1000ba8c:	6923      	ldr	r3, [r4, #16]
1000ba8e:	0028      	movs	r0, r5
1000ba90:	6023      	str	r3, [r4, #0]
1000ba92:	6922      	ldr	r2, [r4, #16]
1000ba94:	6963      	ldr	r3, [r4, #20]
1000ba96:	69e1      	ldr	r1, [r4, #28]
1000ba98:	6a25      	ldr	r5, [r4, #32]
1000ba9a:	47a8      	blx	r5
1000ba9c:	0003      	movs	r3, r0
1000ba9e:	6060      	str	r0, [r4, #4]
1000baa0:	2000      	movs	r0, #0
1000baa2:	2b00      	cmp	r3, #0
1000baa4:	dd41      	ble.n	1000bb2a <__srefill_r+0xf6>
1000baa6:	bdf8      	pop	{r3, r4, r5, r6, r7, pc}
1000baa8:	6b21      	ldr	r1, [r4, #48]	; 0x30
1000baaa:	2900      	cmp	r1, #0
1000baac:	d0e6      	beq.n	1000ba7c <__srefill_r+0x48>
1000baae:	0023      	movs	r3, r4
1000bab0:	3340      	adds	r3, #64	; 0x40
1000bab2:	4299      	cmp	r1, r3
1000bab4:	d002      	beq.n	1000babc <__srefill_r+0x88>
1000bab6:	0028      	movs	r0, r5
1000bab8:	f7ff fe88 	bl	1000b7cc <_free_r>
1000babc:	2300      	movs	r3, #0
1000babe:	6323      	str	r3, [r4, #48]	; 0x30
1000bac0:	6be3      	ldr	r3, [r4, #60]	; 0x3c
1000bac2:	6063      	str	r3, [r4, #4]
1000bac4:	2b00      	cmp	r3, #0
1000bac6:	d0d9      	beq.n	1000ba7c <__srefill_r+0x48>
1000bac8:	6ba3      	ldr	r3, [r4, #56]	; 0x38
1000baca:	2000      	movs	r0, #0
1000bacc:	6023      	str	r3, [r4, #0]
1000bace:	e7ea      	b.n	1000baa6 <__srefill_r+0x72>
1000bad0:	f7ff fd8e 	bl	1000b5f0 <__sinit>
1000bad4:	e7b6      	b.n	1000ba44 <__srefill_r+0x10>
1000bad6:	2301      	movs	r3, #1
1000bad8:	81a3      	strh	r3, [r4, #12]
1000bada:	4b1d      	ldr	r3, [pc, #116]	; (1000bb50 <__srefill_r+0x11c>)
1000badc:	491d      	ldr	r1, [pc, #116]	; (1000bb54 <__srefill_r+0x120>)
1000bade:	6818      	ldr	r0, [r3, #0]
1000bae0:	f7ff ff56 	bl	1000b990 <_fwalk>
1000bae4:	2309      	movs	r3, #9
1000bae6:	81a7      	strh	r7, [r4, #12]
1000bae8:	401e      	ands	r6, r3
1000baea:	2e09      	cmp	r6, #9
1000baec:	d1ce      	bne.n	1000ba8c <__srefill_r+0x58>
1000baee:	0021      	movs	r1, r4
1000baf0:	0028      	movs	r0, r5
1000baf2:	f000 f915 	bl	1000bd20 <__sflush_r>
1000baf6:	e7c9      	b.n	1000ba8c <__srefill_r+0x58>
1000baf8:	0021      	movs	r1, r4
1000bafa:	0028      	movs	r0, r5
1000bafc:	f000 f9b0 	bl	1000be60 <_fflush_r>
1000bb00:	2800      	cmp	r0, #0
1000bb02:	d10f      	bne.n	1000bb24 <__srefill_r+0xf0>
1000bb04:	89a2      	ldrh	r2, [r4, #12]
1000bb06:	60a0      	str	r0, [r4, #8]
1000bb08:	43b2      	bics	r2, r6
1000bb0a:	b212      	sxth	r2, r2
1000bb0c:	61a0      	str	r0, [r4, #24]
1000bb0e:	e7b2      	b.n	1000ba76 <__srefill_r+0x42>
1000bb10:	0021      	movs	r1, r4
1000bb12:	0028      	movs	r0, r5
1000bb14:	f000 fa2a 	bl	1000bf6c <__smakebuf_r>
1000bb18:	e7b3      	b.n	1000ba82 <__srefill_r+0x4e>
1000bb1a:	2240      	movs	r2, #64	; 0x40
1000bb1c:	89a3      	ldrh	r3, [r4, #12]
1000bb1e:	6060      	str	r0, [r4, #4]
1000bb20:	4313      	orrs	r3, r2
1000bb22:	81a3      	strh	r3, [r4, #12]
1000bb24:	2001      	movs	r0, #1
1000bb26:	4240      	negs	r0, r0
1000bb28:	e7bd      	b.n	1000baa6 <__srefill_r+0x72>
1000bb2a:	2b00      	cmp	r3, #0
1000bb2c:	d1f5      	bne.n	1000bb1a <__srefill_r+0xe6>
1000bb2e:	2220      	movs	r2, #32
1000bb30:	89a3      	ldrh	r3, [r4, #12]
1000bb32:	3801      	subs	r0, #1
1000bb34:	4313      	orrs	r3, r2
1000bb36:	81a3      	strh	r3, [r4, #12]
1000bb38:	e7b5      	b.n	1000baa6 <__srefill_r+0x72>
1000bb3a:	2309      	movs	r3, #9
1000bb3c:	602b      	str	r3, [r5, #0]
1000bb3e:	2340      	movs	r3, #64	; 0x40
1000bb40:	2001      	movs	r0, #1
1000bb42:	431a      	orrs	r2, r3
1000bb44:	81a2      	strh	r2, [r4, #12]
1000bb46:	4240      	negs	r0, r0
1000bb48:	e7ad      	b.n	1000baa6 <__srefill_r+0x72>
1000bb4a:	46c0      	nop			; (mov r8, r8)
1000bb4c:	ffffdfff 	.word	0xffffdfff
1000bb50:	1000df88 	.word	0x1000df88
1000bb54:	1000ba19 	.word	0x1000ba19

1000bb58 <__sread>:
1000bb58:	b570      	push	{r4, r5, r6, lr}
1000bb5a:	000c      	movs	r4, r1
1000bb5c:	250e      	movs	r5, #14
1000bb5e:	5f49      	ldrsh	r1, [r1, r5]
1000bb60:	f000 fa76 	bl	1000c050 <_read_r>
1000bb64:	2800      	cmp	r0, #0
1000bb66:	db03      	blt.n	1000bb70 <__sread+0x18>
1000bb68:	6d23      	ldr	r3, [r4, #80]	; 0x50
1000bb6a:	181b      	adds	r3, r3, r0
1000bb6c:	6523      	str	r3, [r4, #80]	; 0x50
1000bb6e:	bd70      	pop	{r4, r5, r6, pc}
1000bb70:	89a3      	ldrh	r3, [r4, #12]
1000bb72:	4a02      	ldr	r2, [pc, #8]	; (1000bb7c <__sread+0x24>)
1000bb74:	4013      	ands	r3, r2
1000bb76:	81a3      	strh	r3, [r4, #12]
1000bb78:	e7f9      	b.n	1000bb6e <__sread+0x16>
1000bb7a:	46c0      	nop			; (mov r8, r8)
1000bb7c:	ffffefff 	.word	0xffffefff

1000bb80 <__swrite>:
1000bb80:	b5f8      	push	{r3, r4, r5, r6, r7, lr}
1000bb82:	000c      	movs	r4, r1
1000bb84:	001f      	movs	r7, r3
1000bb86:	230c      	movs	r3, #12
1000bb88:	5ec9      	ldrsh	r1, [r1, r3]
1000bb8a:	0005      	movs	r5, r0
1000bb8c:	0016      	movs	r6, r2
1000bb8e:	05cb      	lsls	r3, r1, #23
1000bb90:	d40a      	bmi.n	1000bba8 <__swrite+0x28>
1000bb92:	4b0a      	ldr	r3, [pc, #40]	; (1000bbbc <__swrite+0x3c>)
1000bb94:	0032      	movs	r2, r6
1000bb96:	4019      	ands	r1, r3
1000bb98:	0028      	movs	r0, r5
1000bb9a:	81a1      	strh	r1, [r4, #12]
1000bb9c:	230e      	movs	r3, #14
1000bb9e:	5ee1      	ldrsh	r1, [r4, r3]
1000bba0:	003b      	movs	r3, r7
1000bba2:	f000 f829 	bl	1000bbf8 <_write_r>
1000bba6:	bdf8      	pop	{r3, r4, r5, r6, r7, pc}
1000bba8:	230e      	movs	r3, #14
1000bbaa:	5ee1      	ldrsh	r1, [r4, r3]
1000bbac:	2200      	movs	r2, #0
1000bbae:	2302      	movs	r3, #2
1000bbb0:	f000 f9c8 	bl	1000bf44 <_lseek_r>
1000bbb4:	230c      	movs	r3, #12
1000bbb6:	5ee1      	ldrsh	r1, [r4, r3]
1000bbb8:	e7eb      	b.n	1000bb92 <__swrite+0x12>
1000bbba:	46c0      	nop			; (mov r8, r8)
1000bbbc:	ffffefff 	.word	0xffffefff

1000bbc0 <__sseek>:
1000bbc0:	b570      	push	{r4, r5, r6, lr}
1000bbc2:	000c      	movs	r4, r1
1000bbc4:	250e      	movs	r5, #14
1000bbc6:	5f49      	ldrsh	r1, [r1, r5]
1000bbc8:	f000 f9bc 	bl	1000bf44 <_lseek_r>
1000bbcc:	1c43      	adds	r3, r0, #1
1000bbce:	d006      	beq.n	1000bbde <__sseek+0x1e>
1000bbd0:	2380      	movs	r3, #128	; 0x80
1000bbd2:	89a2      	ldrh	r2, [r4, #12]
1000bbd4:	015b      	lsls	r3, r3, #5
1000bbd6:	4313      	orrs	r3, r2
1000bbd8:	81a3      	strh	r3, [r4, #12]
1000bbda:	6520      	str	r0, [r4, #80]	; 0x50
1000bbdc:	bd70      	pop	{r4, r5, r6, pc}
1000bbde:	89a3      	ldrh	r3, [r4, #12]
1000bbe0:	4a01      	ldr	r2, [pc, #4]	; (1000bbe8 <__sseek+0x28>)
1000bbe2:	4013      	ands	r3, r2
1000bbe4:	81a3      	strh	r3, [r4, #12]
1000bbe6:	e7f9      	b.n	1000bbdc <__sseek+0x1c>
1000bbe8:	ffffefff 	.word	0xffffefff

1000bbec <__sclose>:
1000bbec:	b510      	push	{r4, lr}
1000bbee:	230e      	movs	r3, #14
1000bbf0:	5ec9      	ldrsh	r1, [r1, r3]
1000bbf2:	f000 f815 	bl	1000bc20 <_close_r>
1000bbf6:	bd10      	pop	{r4, pc}

1000bbf8 <_write_r>:
1000bbf8:	b570      	push	{r4, r5, r6, lr}
1000bbfa:	0004      	movs	r4, r0
1000bbfc:	0008      	movs	r0, r1
1000bbfe:	0011      	movs	r1, r2
1000bc00:	001a      	movs	r2, r3
1000bc02:	2300      	movs	r3, #0
1000bc04:	4d05      	ldr	r5, [pc, #20]	; (1000bc1c <_write_r+0x24>)
1000bc06:	602b      	str	r3, [r5, #0]
1000bc08:	f7fc f9a0 	bl	10007f4c <_write>
1000bc0c:	1c43      	adds	r3, r0, #1
1000bc0e:	d000      	beq.n	1000bc12 <_write_r+0x1a>
1000bc10:	bd70      	pop	{r4, r5, r6, pc}
1000bc12:	682b      	ldr	r3, [r5, #0]
1000bc14:	2b00      	cmp	r3, #0
1000bc16:	d0fb      	beq.n	1000bc10 <_write_r+0x18>
1000bc18:	6023      	str	r3, [r4, #0]
1000bc1a:	e7f9      	b.n	1000bc10 <_write_r+0x18>
1000bc1c:	200014c0 	.word	0x200014c0

1000bc20 <_close_r>:
1000bc20:	2300      	movs	r3, #0
1000bc22:	b570      	push	{r4, r5, r6, lr}
1000bc24:	4d06      	ldr	r5, [pc, #24]	; (1000bc40 <_close_r+0x20>)
1000bc26:	0004      	movs	r4, r0
1000bc28:	0008      	movs	r0, r1
1000bc2a:	602b      	str	r3, [r5, #0]
1000bc2c:	f000 fa4a 	bl	1000c0c4 <_close>
1000bc30:	1c43      	adds	r3, r0, #1
1000bc32:	d000      	beq.n	1000bc36 <_close_r+0x16>
1000bc34:	bd70      	pop	{r4, r5, r6, pc}
1000bc36:	682b      	ldr	r3, [r5, #0]
1000bc38:	2b00      	cmp	r3, #0
1000bc3a:	d0fb      	beq.n	1000bc34 <_close_r+0x14>
1000bc3c:	6023      	str	r3, [r4, #0]
1000bc3e:	e7f9      	b.n	1000bc34 <_close_r+0x14>
1000bc40:	200014c0 	.word	0x200014c0

1000bc44 <_fclose_r>:
1000bc44:	b5f8      	push	{r3, r4, r5, r6, r7, lr}
1000bc46:	0006      	movs	r6, r0
1000bc48:	1e0c      	subs	r4, r1, #0
1000bc4a:	d04d      	beq.n	1000bce8 <_fclose_r+0xa4>
1000bc4c:	2800      	cmp	r0, #0
1000bc4e:	d002      	beq.n	1000bc56 <_fclose_r+0x12>
1000bc50:	6b83      	ldr	r3, [r0, #56]	; 0x38
1000bc52:	2b00      	cmp	r3, #0
1000bc54:	d04a      	beq.n	1000bcec <_fclose_r+0xa8>
1000bc56:	2701      	movs	r7, #1
1000bc58:	6e63      	ldr	r3, [r4, #100]	; 0x64
1000bc5a:	423b      	tst	r3, r7
1000bc5c:	d035      	beq.n	1000bcca <_fclose_r+0x86>
1000bc5e:	220c      	movs	r2, #12
1000bc60:	5ea3      	ldrsh	r3, [r4, r2]
1000bc62:	2b00      	cmp	r3, #0
1000bc64:	d040      	beq.n	1000bce8 <_fclose_r+0xa4>
1000bc66:	0021      	movs	r1, r4
1000bc68:	0030      	movs	r0, r6
1000bc6a:	f000 f859 	bl	1000bd20 <__sflush_r>
1000bc6e:	6ae3      	ldr	r3, [r4, #44]	; 0x2c
1000bc70:	0005      	movs	r5, r0
1000bc72:	2b00      	cmp	r3, #0
1000bc74:	d004      	beq.n	1000bc80 <_fclose_r+0x3c>
1000bc76:	0030      	movs	r0, r6
1000bc78:	69e1      	ldr	r1, [r4, #28]
1000bc7a:	4798      	blx	r3
1000bc7c:	2800      	cmp	r0, #0
1000bc7e:	db3c      	blt.n	1000bcfa <_fclose_r+0xb6>
1000bc80:	89a3      	ldrh	r3, [r4, #12]
1000bc82:	061b      	lsls	r3, r3, #24
1000bc84:	d43e      	bmi.n	1000bd04 <_fclose_r+0xc0>
1000bc86:	6b21      	ldr	r1, [r4, #48]	; 0x30
1000bc88:	2900      	cmp	r1, #0
1000bc8a:	d008      	beq.n	1000bc9e <_fclose_r+0x5a>
1000bc8c:	0023      	movs	r3, r4
1000bc8e:	3340      	adds	r3, #64	; 0x40
1000bc90:	4299      	cmp	r1, r3
1000bc92:	d002      	beq.n	1000bc9a <_fclose_r+0x56>
1000bc94:	0030      	movs	r0, r6
1000bc96:	f7ff fd99 	bl	1000b7cc <_free_r>
1000bc9a:	2300      	movs	r3, #0
1000bc9c:	6323      	str	r3, [r4, #48]	; 0x30
1000bc9e:	6c61      	ldr	r1, [r4, #68]	; 0x44
1000bca0:	2900      	cmp	r1, #0
1000bca2:	d004      	beq.n	1000bcae <_fclose_r+0x6a>
1000bca4:	0030      	movs	r0, r6
1000bca6:	f7ff fd91 	bl	1000b7cc <_free_r>
1000bcaa:	2300      	movs	r3, #0
1000bcac:	6463      	str	r3, [r4, #68]	; 0x44
1000bcae:	f7ff fd2f 	bl	1000b710 <__sfp_lock_acquire>
1000bcb2:	2300      	movs	r3, #0
1000bcb4:	81a3      	strh	r3, [r4, #12]
1000bcb6:	6e63      	ldr	r3, [r4, #100]	; 0x64
1000bcb8:	07db      	lsls	r3, r3, #31
1000bcba:	d52c      	bpl.n	1000bd16 <_fclose_r+0xd2>
1000bcbc:	6da0      	ldr	r0, [r4, #88]	; 0x58
1000bcbe:	f7ff f887 	bl	1000add0 <__retarget_lock_close_recursive>
1000bcc2:	f7ff fd2d 	bl	1000b720 <__sfp_lock_release>
1000bcc6:	0028      	movs	r0, r5
1000bcc8:	bdf8      	pop	{r3, r4, r5, r6, r7, pc}
1000bcca:	89a3      	ldrh	r3, [r4, #12]
1000bccc:	059b      	lsls	r3, r3, #22
1000bcce:	d4ca      	bmi.n	1000bc66 <_fclose_r+0x22>
1000bcd0:	6da0      	ldr	r0, [r4, #88]	; 0x58
1000bcd2:	f7ff f87f 	bl	1000add4 <__retarget_lock_acquire_recursive>
1000bcd6:	220c      	movs	r2, #12
1000bcd8:	5ea3      	ldrsh	r3, [r4, r2]
1000bcda:	2b00      	cmp	r3, #0
1000bcdc:	d1c3      	bne.n	1000bc66 <_fclose_r+0x22>
1000bcde:	6e63      	ldr	r3, [r4, #100]	; 0x64
1000bce0:	001d      	movs	r5, r3
1000bce2:	403d      	ands	r5, r7
1000bce4:	423b      	tst	r3, r7
1000bce6:	d012      	beq.n	1000bd0e <_fclose_r+0xca>
1000bce8:	2500      	movs	r5, #0
1000bcea:	e7ec      	b.n	1000bcc6 <_fclose_r+0x82>
1000bcec:	2701      	movs	r7, #1
1000bcee:	f7ff fc7f 	bl	1000b5f0 <__sinit>
1000bcf2:	6e63      	ldr	r3, [r4, #100]	; 0x64
1000bcf4:	423b      	tst	r3, r7
1000bcf6:	d1b2      	bne.n	1000bc5e <_fclose_r+0x1a>
1000bcf8:	e7e7      	b.n	1000bcca <_fclose_r+0x86>
1000bcfa:	2501      	movs	r5, #1
1000bcfc:	89a3      	ldrh	r3, [r4, #12]
1000bcfe:	426d      	negs	r5, r5
1000bd00:	061b      	lsls	r3, r3, #24
1000bd02:	d5c0      	bpl.n	1000bc86 <_fclose_r+0x42>
1000bd04:	0030      	movs	r0, r6
1000bd06:	6921      	ldr	r1, [r4, #16]
1000bd08:	f7ff fd60 	bl	1000b7cc <_free_r>
1000bd0c:	e7bb      	b.n	1000bc86 <_fclose_r+0x42>
1000bd0e:	6da0      	ldr	r0, [r4, #88]	; 0x58
1000bd10:	f7ff f862 	bl	1000add8 <__retarget_lock_release_recursive>
1000bd14:	e7d7      	b.n	1000bcc6 <_fclose_r+0x82>
1000bd16:	6da0      	ldr	r0, [r4, #88]	; 0x58
1000bd18:	f7ff f85e 	bl	1000add8 <__retarget_lock_release_recursive>
1000bd1c:	e7ce      	b.n	1000bcbc <_fclose_r+0x78>
1000bd1e:	46c0      	nop			; (mov r8, r8)

1000bd20 <__sflush_r>:
1000bd20:	b5f0      	push	{r4, r5, r6, r7, lr}
1000bd22:	46c6      	mov	lr, r8
1000bd24:	000c      	movs	r4, r1
1000bd26:	b500      	push	{lr}
1000bd28:	89a2      	ldrh	r2, [r4, #12]
1000bd2a:	4680      	mov	r8, r0
1000bd2c:	230c      	movs	r3, #12
1000bd2e:	5ec9      	ldrsh	r1, [r1, r3]
1000bd30:	0713      	lsls	r3, r2, #28
1000bd32:	d44c      	bmi.n	1000bdce <__sflush_r+0xae>
1000bd34:	2380      	movs	r3, #128	; 0x80
1000bd36:	6862      	ldr	r2, [r4, #4]
1000bd38:	011b      	lsls	r3, r3, #4
1000bd3a:	430b      	orrs	r3, r1
1000bd3c:	81a3      	strh	r3, [r4, #12]
1000bd3e:	2a00      	cmp	r2, #0
1000bd40:	dd66      	ble.n	1000be10 <__sflush_r+0xf0>
1000bd42:	6aa6      	ldr	r6, [r4, #40]	; 0x28
1000bd44:	2e00      	cmp	r6, #0
1000bd46:	d03e      	beq.n	1000bdc6 <__sflush_r+0xa6>
1000bd48:	4642      	mov	r2, r8
1000bd4a:	4641      	mov	r1, r8
1000bd4c:	6815      	ldr	r5, [r2, #0]
1000bd4e:	2200      	movs	r2, #0
1000bd50:	600a      	str	r2, [r1, #0]
1000bd52:	b29a      	uxth	r2, r3
1000bd54:	04db      	lsls	r3, r3, #19
1000bd56:	d460      	bmi.n	1000be1a <__sflush_r+0xfa>
1000bd58:	2301      	movs	r3, #1
1000bd5a:	2200      	movs	r2, #0
1000bd5c:	4640      	mov	r0, r8
1000bd5e:	69e1      	ldr	r1, [r4, #28]
1000bd60:	47b0      	blx	r6
1000bd62:	1c43      	adds	r3, r0, #1
1000bd64:	d068      	beq.n	1000be38 <__sflush_r+0x118>
1000bd66:	89a2      	ldrh	r2, [r4, #12]
1000bd68:	6aa6      	ldr	r6, [r4, #40]	; 0x28
1000bd6a:	0753      	lsls	r3, r2, #29
1000bd6c:	d506      	bpl.n	1000bd7c <__sflush_r+0x5c>
1000bd6e:	6863      	ldr	r3, [r4, #4]
1000bd70:	1ac0      	subs	r0, r0, r3
1000bd72:	6b23      	ldr	r3, [r4, #48]	; 0x30
1000bd74:	2b00      	cmp	r3, #0
1000bd76:	d001      	beq.n	1000bd7c <__sflush_r+0x5c>
1000bd78:	6be3      	ldr	r3, [r4, #60]	; 0x3c
1000bd7a:	1ac0      	subs	r0, r0, r3
1000bd7c:	2300      	movs	r3, #0
1000bd7e:	0002      	movs	r2, r0
1000bd80:	69e1      	ldr	r1, [r4, #28]
1000bd82:	4640      	mov	r0, r8
1000bd84:	47b0      	blx	r6
1000bd86:	1c43      	adds	r3, r0, #1
1000bd88:	d149      	bne.n	1000be1e <__sflush_r+0xfe>
1000bd8a:	4643      	mov	r3, r8
1000bd8c:	681b      	ldr	r3, [r3, #0]
1000bd8e:	2b00      	cmp	r3, #0
1000bd90:	d045      	beq.n	1000be1e <__sflush_r+0xfe>
1000bd92:	2b1d      	cmp	r3, #29
1000bd94:	d001      	beq.n	1000bd9a <__sflush_r+0x7a>
1000bd96:	2b16      	cmp	r3, #22
1000bd98:	d157      	bne.n	1000be4a <__sflush_r+0x12a>
1000bd9a:	89a3      	ldrh	r3, [r4, #12]
1000bd9c:	4a2f      	ldr	r2, [pc, #188]	; (1000be5c <__sflush_r+0x13c>)
1000bd9e:	4013      	ands	r3, r2
1000bda0:	81a3      	strh	r3, [r4, #12]
1000bda2:	2300      	movs	r3, #0
1000bda4:	6063      	str	r3, [r4, #4]
1000bda6:	6923      	ldr	r3, [r4, #16]
1000bda8:	6023      	str	r3, [r4, #0]
1000bdaa:	4643      	mov	r3, r8
1000bdac:	6b21      	ldr	r1, [r4, #48]	; 0x30
1000bdae:	601d      	str	r5, [r3, #0]
1000bdb0:	2900      	cmp	r1, #0
1000bdb2:	d008      	beq.n	1000bdc6 <__sflush_r+0xa6>
1000bdb4:	0023      	movs	r3, r4
1000bdb6:	3340      	adds	r3, #64	; 0x40
1000bdb8:	4299      	cmp	r1, r3
1000bdba:	d002      	beq.n	1000bdc2 <__sflush_r+0xa2>
1000bdbc:	4640      	mov	r0, r8
1000bdbe:	f7ff fd05 	bl	1000b7cc <_free_r>
1000bdc2:	2300      	movs	r3, #0
1000bdc4:	6323      	str	r3, [r4, #48]	; 0x30
1000bdc6:	2000      	movs	r0, #0
1000bdc8:	bc80      	pop	{r7}
1000bdca:	46b8      	mov	r8, r7
1000bdcc:	bdf0      	pop	{r4, r5, r6, r7, pc}
1000bdce:	6926      	ldr	r6, [r4, #16]
1000bdd0:	2e00      	cmp	r6, #0
1000bdd2:	d0f8      	beq.n	1000bdc6 <__sflush_r+0xa6>
1000bdd4:	6823      	ldr	r3, [r4, #0]
1000bdd6:	6026      	str	r6, [r4, #0]
1000bdd8:	1b9d      	subs	r5, r3, r6
1000bdda:	2300      	movs	r3, #0
1000bddc:	0792      	lsls	r2, r2, #30
1000bdde:	d100      	bne.n	1000bde2 <__sflush_r+0xc2>
1000bde0:	6963      	ldr	r3, [r4, #20]
1000bde2:	60a3      	str	r3, [r4, #8]
1000bde4:	2d00      	cmp	r5, #0
1000bde6:	dc04      	bgt.n	1000bdf2 <__sflush_r+0xd2>
1000bde8:	e7ed      	b.n	1000bdc6 <__sflush_r+0xa6>
1000bdea:	1836      	adds	r6, r6, r0
1000bdec:	1a2d      	subs	r5, r5, r0
1000bdee:	2d00      	cmp	r5, #0
1000bdf0:	dde9      	ble.n	1000bdc6 <__sflush_r+0xa6>
1000bdf2:	002b      	movs	r3, r5
1000bdf4:	0032      	movs	r2, r6
1000bdf6:	4640      	mov	r0, r8
1000bdf8:	69e1      	ldr	r1, [r4, #28]
1000bdfa:	6a67      	ldr	r7, [r4, #36]	; 0x24
1000bdfc:	47b8      	blx	r7
1000bdfe:	2800      	cmp	r0, #0
1000be00:	dcf3      	bgt.n	1000bdea <__sflush_r+0xca>
1000be02:	2240      	movs	r2, #64	; 0x40
1000be04:	2001      	movs	r0, #1
1000be06:	89a3      	ldrh	r3, [r4, #12]
1000be08:	4240      	negs	r0, r0
1000be0a:	4313      	orrs	r3, r2
1000be0c:	81a3      	strh	r3, [r4, #12]
1000be0e:	e7db      	b.n	1000bdc8 <__sflush_r+0xa8>
1000be10:	6be2      	ldr	r2, [r4, #60]	; 0x3c
1000be12:	2a00      	cmp	r2, #0
1000be14:	dd00      	ble.n	1000be18 <__sflush_r+0xf8>
1000be16:	e794      	b.n	1000bd42 <__sflush_r+0x22>
1000be18:	e7d5      	b.n	1000bdc6 <__sflush_r+0xa6>
1000be1a:	6d20      	ldr	r0, [r4, #80]	; 0x50
1000be1c:	e7a5      	b.n	1000bd6a <__sflush_r+0x4a>
1000be1e:	89a3      	ldrh	r3, [r4, #12]
1000be20:	4a0e      	ldr	r2, [pc, #56]	; (1000be5c <__sflush_r+0x13c>)
1000be22:	4013      	ands	r3, r2
1000be24:	2200      	movs	r2, #0
1000be26:	6062      	str	r2, [r4, #4]
1000be28:	6922      	ldr	r2, [r4, #16]
1000be2a:	b21b      	sxth	r3, r3
1000be2c:	81a3      	strh	r3, [r4, #12]
1000be2e:	6022      	str	r2, [r4, #0]
1000be30:	04db      	lsls	r3, r3, #19
1000be32:	d5ba      	bpl.n	1000bdaa <__sflush_r+0x8a>
1000be34:	6520      	str	r0, [r4, #80]	; 0x50
1000be36:	e7b8      	b.n	1000bdaa <__sflush_r+0x8a>
1000be38:	4643      	mov	r3, r8
1000be3a:	681b      	ldr	r3, [r3, #0]
1000be3c:	2b00      	cmp	r3, #0
1000be3e:	d100      	bne.n	1000be42 <__sflush_r+0x122>
1000be40:	e791      	b.n	1000bd66 <__sflush_r+0x46>
1000be42:	2b1d      	cmp	r3, #29
1000be44:	d006      	beq.n	1000be54 <__sflush_r+0x134>
1000be46:	2b16      	cmp	r3, #22
1000be48:	d004      	beq.n	1000be54 <__sflush_r+0x134>
1000be4a:	2240      	movs	r2, #64	; 0x40
1000be4c:	89a3      	ldrh	r3, [r4, #12]
1000be4e:	4313      	orrs	r3, r2
1000be50:	81a3      	strh	r3, [r4, #12]
1000be52:	e7b9      	b.n	1000bdc8 <__sflush_r+0xa8>
1000be54:	4643      	mov	r3, r8
1000be56:	2000      	movs	r0, #0
1000be58:	601d      	str	r5, [r3, #0]
1000be5a:	e7b5      	b.n	1000bdc8 <__sflush_r+0xa8>
1000be5c:	fffff7ff 	.word	0xfffff7ff

1000be60 <_fflush_r>:
1000be60:	b570      	push	{r4, r5, r6, lr}
1000be62:	0005      	movs	r5, r0
1000be64:	000c      	movs	r4, r1
1000be66:	2800      	cmp	r0, #0
1000be68:	d002      	beq.n	1000be70 <_fflush_r+0x10>
1000be6a:	6b83      	ldr	r3, [r0, #56]	; 0x38
1000be6c:	2b00      	cmp	r3, #0
1000be6e:	d015      	beq.n	1000be9c <_fflush_r+0x3c>
1000be70:	220c      	movs	r2, #12
1000be72:	5ea3      	ldrsh	r3, [r4, r2]
1000be74:	2b00      	cmp	r3, #0
1000be76:	d017      	beq.n	1000bea8 <_fflush_r+0x48>
1000be78:	6e62      	ldr	r2, [r4, #100]	; 0x64
1000be7a:	07d2      	lsls	r2, r2, #31
1000be7c:	d401      	bmi.n	1000be82 <_fflush_r+0x22>
1000be7e:	059b      	lsls	r3, r3, #22
1000be80:	d514      	bpl.n	1000beac <_fflush_r+0x4c>
1000be82:	0028      	movs	r0, r5
1000be84:	0021      	movs	r1, r4
1000be86:	f7ff ff4b 	bl	1000bd20 <__sflush_r>
1000be8a:	6e63      	ldr	r3, [r4, #100]	; 0x64
1000be8c:	0005      	movs	r5, r0
1000be8e:	07db      	lsls	r3, r3, #31
1000be90:	d402      	bmi.n	1000be98 <_fflush_r+0x38>
1000be92:	89a3      	ldrh	r3, [r4, #12]
1000be94:	059b      	lsls	r3, r3, #22
1000be96:	d515      	bpl.n	1000bec4 <_fflush_r+0x64>
1000be98:	0028      	movs	r0, r5
1000be9a:	bd70      	pop	{r4, r5, r6, pc}
1000be9c:	f7ff fba8 	bl	1000b5f0 <__sinit>
1000bea0:	220c      	movs	r2, #12
1000bea2:	5ea3      	ldrsh	r3, [r4, r2]
1000bea4:	2b00      	cmp	r3, #0
1000bea6:	d1e7      	bne.n	1000be78 <_fflush_r+0x18>
1000bea8:	2500      	movs	r5, #0
1000beaa:	e7f5      	b.n	1000be98 <_fflush_r+0x38>
1000beac:	6da0      	ldr	r0, [r4, #88]	; 0x58
1000beae:	f7fe ff91 	bl	1000add4 <__retarget_lock_acquire_recursive>
1000beb2:	0028      	movs	r0, r5
1000beb4:	0021      	movs	r1, r4
1000beb6:	f7ff ff33 	bl	1000bd20 <__sflush_r>
1000beba:	6e63      	ldr	r3, [r4, #100]	; 0x64
1000bebc:	0005      	movs	r5, r0
1000bebe:	07db      	lsls	r3, r3, #31
1000bec0:	d4ea      	bmi.n	1000be98 <_fflush_r+0x38>
1000bec2:	e7e6      	b.n	1000be92 <_fflush_r+0x32>
1000bec4:	6da0      	ldr	r0, [r4, #88]	; 0x58
1000bec6:	f7fe ff87 	bl	1000add8 <__retarget_lock_release_recursive>
1000beca:	e7e5      	b.n	1000be98 <_fflush_r+0x38>

1000becc <fflush>:
1000becc:	b570      	push	{r4, r5, r6, lr}
1000bece:	1e04      	subs	r4, r0, #0
1000bed0:	d02a      	beq.n	1000bf28 <fflush+0x5c>
1000bed2:	4b19      	ldr	r3, [pc, #100]	; (1000bf38 <fflush+0x6c>)
1000bed4:	681d      	ldr	r5, [r3, #0]
1000bed6:	2d00      	cmp	r5, #0
1000bed8:	d002      	beq.n	1000bee0 <fflush+0x14>
1000beda:	6bab      	ldr	r3, [r5, #56]	; 0x38
1000bedc:	2b00      	cmp	r3, #0
1000bede:	d017      	beq.n	1000bf10 <fflush+0x44>
1000bee0:	220c      	movs	r2, #12
1000bee2:	5ea3      	ldrsh	r3, [r4, r2]
1000bee4:	2b00      	cmp	r3, #0
1000bee6:	d011      	beq.n	1000bf0c <fflush+0x40>
1000bee8:	6e62      	ldr	r2, [r4, #100]	; 0x64
1000beea:	07d2      	lsls	r2, r2, #31
1000beec:	d401      	bmi.n	1000bef2 <fflush+0x26>
1000beee:	059b      	lsls	r3, r3, #22
1000bef0:	d512      	bpl.n	1000bf18 <fflush+0x4c>
1000bef2:	0028      	movs	r0, r5
1000bef4:	0021      	movs	r1, r4
1000bef6:	f7ff ff13 	bl	1000bd20 <__sflush_r>
1000befa:	6e63      	ldr	r3, [r4, #100]	; 0x64
1000befc:	0005      	movs	r5, r0
1000befe:	07db      	lsls	r3, r3, #31
1000bf00:	d402      	bmi.n	1000bf08 <fflush+0x3c>
1000bf02:	89a3      	ldrh	r3, [r4, #12]
1000bf04:	059b      	lsls	r3, r3, #22
1000bf06:	d50b      	bpl.n	1000bf20 <fflush+0x54>
1000bf08:	0028      	movs	r0, r5
1000bf0a:	bd70      	pop	{r4, r5, r6, pc}
1000bf0c:	2500      	movs	r5, #0
1000bf0e:	e7fb      	b.n	1000bf08 <fflush+0x3c>
1000bf10:	0028      	movs	r0, r5
1000bf12:	f7ff fb6d 	bl	1000b5f0 <__sinit>
1000bf16:	e7e3      	b.n	1000bee0 <fflush+0x14>
1000bf18:	6da0      	ldr	r0, [r4, #88]	; 0x58
1000bf1a:	f7fe ff5b 	bl	1000add4 <__retarget_lock_acquire_recursive>
1000bf1e:	e7e8      	b.n	1000bef2 <fflush+0x26>
1000bf20:	6da0      	ldr	r0, [r4, #88]	; 0x58
1000bf22:	f7fe ff59 	bl	1000add8 <__retarget_lock_release_recursive>
1000bf26:	e7ef      	b.n	1000bf08 <fflush+0x3c>
1000bf28:	4b04      	ldr	r3, [pc, #16]	; (1000bf3c <fflush+0x70>)
1000bf2a:	4905      	ldr	r1, [pc, #20]	; (1000bf40 <fflush+0x74>)
1000bf2c:	6818      	ldr	r0, [r3, #0]
1000bf2e:	f7ff fd4f 	bl	1000b9d0 <_fwalk_reent>
1000bf32:	0005      	movs	r5, r0
1000bf34:	e7e8      	b.n	1000bf08 <fflush+0x3c>
1000bf36:	46c0      	nop			; (mov r8, r8)
1000bf38:	20000500 	.word	0x20000500
1000bf3c:	1000df88 	.word	0x1000df88
1000bf40:	1000be61 	.word	0x1000be61

1000bf44 <_lseek_r>:
1000bf44:	b570      	push	{r4, r5, r6, lr}
1000bf46:	0004      	movs	r4, r0
1000bf48:	0008      	movs	r0, r1
1000bf4a:	0011      	movs	r1, r2
1000bf4c:	001a      	movs	r2, r3
1000bf4e:	2300      	movs	r3, #0
1000bf50:	4d05      	ldr	r5, [pc, #20]	; (1000bf68 <_lseek_r+0x24>)
1000bf52:	602b      	str	r3, [r5, #0]
1000bf54:	f000 f8ce 	bl	1000c0f4 <_lseek>
1000bf58:	1c43      	adds	r3, r0, #1
1000bf5a:	d000      	beq.n	1000bf5e <_lseek_r+0x1a>
1000bf5c:	bd70      	pop	{r4, r5, r6, pc}
1000bf5e:	682b      	ldr	r3, [r5, #0]
1000bf60:	2b00      	cmp	r3, #0
1000bf62:	d0fb      	beq.n	1000bf5c <_lseek_r+0x18>
1000bf64:	6023      	str	r3, [r4, #0]
1000bf66:	e7f9      	b.n	1000bf5c <_lseek_r+0x18>
1000bf68:	200014c0 	.word	0x200014c0

1000bf6c <__smakebuf_r>:
1000bf6c:	b5f0      	push	{r4, r5, r6, r7, lr}
1000bf6e:	46c6      	mov	lr, r8
1000bf70:	b500      	push	{lr}
1000bf72:	898b      	ldrh	r3, [r1, #12]
1000bf74:	0005      	movs	r5, r0
1000bf76:	000c      	movs	r4, r1
1000bf78:	b096      	sub	sp, #88	; 0x58
1000bf7a:	079a      	lsls	r2, r3, #30
1000bf7c:	d509      	bpl.n	1000bf92 <__smakebuf_r+0x26>
1000bf7e:	0023      	movs	r3, r4
1000bf80:	3343      	adds	r3, #67	; 0x43
1000bf82:	6023      	str	r3, [r4, #0]
1000bf84:	6123      	str	r3, [r4, #16]
1000bf86:	2301      	movs	r3, #1
1000bf88:	6163      	str	r3, [r4, #20]
1000bf8a:	b016      	add	sp, #88	; 0x58
1000bf8c:	bc80      	pop	{r7}
1000bf8e:	46b8      	mov	r8, r7
1000bf90:	bdf0      	pop	{r4, r5, r6, r7, pc}
1000bf92:	220e      	movs	r2, #14
1000bf94:	5e89      	ldrsh	r1, [r1, r2]
1000bf96:	2900      	cmp	r1, #0
1000bf98:	db29      	blt.n	1000bfee <__smakebuf_r+0x82>
1000bf9a:	466a      	mov	r2, sp
1000bf9c:	f000 f86c 	bl	1000c078 <_fstat_r>
1000bfa0:	2800      	cmp	r0, #0
1000bfa2:	db23      	blt.n	1000bfec <__smakebuf_r+0x80>
1000bfa4:	23f0      	movs	r3, #240	; 0xf0
1000bfa6:	9f01      	ldr	r7, [sp, #4]
1000bfa8:	021b      	lsls	r3, r3, #8
1000bfaa:	401f      	ands	r7, r3
1000bfac:	4b26      	ldr	r3, [pc, #152]	; (1000c048 <__smakebuf_r+0xdc>)
1000bfae:	2680      	movs	r6, #128	; 0x80
1000bfb0:	469c      	mov	ip, r3
1000bfb2:	4467      	add	r7, ip
1000bfb4:	427b      	negs	r3, r7
1000bfb6:	415f      	adcs	r7, r3
1000bfb8:	2380      	movs	r3, #128	; 0x80
1000bfba:	00db      	lsls	r3, r3, #3
1000bfbc:	4698      	mov	r8, r3
1000bfbe:	0136      	lsls	r6, r6, #4
1000bfc0:	4641      	mov	r1, r8
1000bfc2:	0028      	movs	r0, r5
1000bfc4:	f7fe ff1e 	bl	1000ae04 <_malloc_r>
1000bfc8:	2800      	cmp	r0, #0
1000bfca:	d01c      	beq.n	1000c006 <__smakebuf_r+0x9a>
1000bfcc:	2280      	movs	r2, #128	; 0x80
1000bfce:	4b1f      	ldr	r3, [pc, #124]	; (1000c04c <__smakebuf_r+0xe0>)
1000bfd0:	63eb      	str	r3, [r5, #60]	; 0x3c
1000bfd2:	89a3      	ldrh	r3, [r4, #12]
1000bfd4:	6020      	str	r0, [r4, #0]
1000bfd6:	4313      	orrs	r3, r2
1000bfd8:	4642      	mov	r2, r8
1000bfda:	b21b      	sxth	r3, r3
1000bfdc:	81a3      	strh	r3, [r4, #12]
1000bfde:	6120      	str	r0, [r4, #16]
1000bfe0:	6162      	str	r2, [r4, #20]
1000bfe2:	2f00      	cmp	r7, #0
1000bfe4:	d11e      	bne.n	1000c024 <__smakebuf_r+0xb8>
1000bfe6:	4333      	orrs	r3, r6
1000bfe8:	81a3      	strh	r3, [r4, #12]
1000bfea:	e7ce      	b.n	1000bf8a <__smakebuf_r+0x1e>
1000bfec:	89a3      	ldrh	r3, [r4, #12]
1000bfee:	2700      	movs	r7, #0
1000bff0:	061b      	lsls	r3, r3, #24
1000bff2:	d512      	bpl.n	1000c01a <__smakebuf_r+0xae>
1000bff4:	2340      	movs	r3, #64	; 0x40
1000bff6:	4698      	mov	r8, r3
1000bff8:	0028      	movs	r0, r5
1000bffa:	4641      	mov	r1, r8
1000bffc:	2600      	movs	r6, #0
1000bffe:	f7fe ff01 	bl	1000ae04 <_malloc_r>
1000c002:	2800      	cmp	r0, #0
1000c004:	d1e2      	bne.n	1000bfcc <__smakebuf_r+0x60>
1000c006:	220c      	movs	r2, #12
1000c008:	5ea3      	ldrsh	r3, [r4, r2]
1000c00a:	059a      	lsls	r2, r3, #22
1000c00c:	d4bd      	bmi.n	1000bf8a <__smakebuf_r+0x1e>
1000c00e:	2203      	movs	r2, #3
1000c010:	4393      	bics	r3, r2
1000c012:	2202      	movs	r2, #2
1000c014:	4313      	orrs	r3, r2
1000c016:	81a3      	strh	r3, [r4, #12]
1000c018:	e7b1      	b.n	1000bf7e <__smakebuf_r+0x12>
1000c01a:	2380      	movs	r3, #128	; 0x80
1000c01c:	00db      	lsls	r3, r3, #3
1000c01e:	4698      	mov	r8, r3
1000c020:	2600      	movs	r6, #0
1000c022:	e7cd      	b.n	1000bfc0 <__smakebuf_r+0x54>
1000c024:	0028      	movs	r0, r5
1000c026:	230e      	movs	r3, #14
1000c028:	5ee1      	ldrsh	r1, [r4, r3]
1000c02a:	f000 f839 	bl	1000c0a0 <_isatty_r>
1000c02e:	2800      	cmp	r0, #0
1000c030:	d102      	bne.n	1000c038 <__smakebuf_r+0xcc>
1000c032:	220c      	movs	r2, #12
1000c034:	5ea3      	ldrsh	r3, [r4, r2]
1000c036:	e7d6      	b.n	1000bfe6 <__smakebuf_r+0x7a>
1000c038:	2203      	movs	r2, #3
1000c03a:	89a3      	ldrh	r3, [r4, #12]
1000c03c:	4393      	bics	r3, r2
1000c03e:	2201      	movs	r2, #1
1000c040:	4313      	orrs	r3, r2
1000c042:	b21b      	sxth	r3, r3
1000c044:	e7cf      	b.n	1000bfe6 <__smakebuf_r+0x7a>
1000c046:	46c0      	nop			; (mov r8, r8)
1000c048:	ffffe000 	.word	0xffffe000
1000c04c:	1000b5e1 	.word	0x1000b5e1

1000c050 <_read_r>:
1000c050:	b570      	push	{r4, r5, r6, lr}
1000c052:	0004      	movs	r4, r0
1000c054:	0008      	movs	r0, r1
1000c056:	0011      	movs	r1, r2
1000c058:	001a      	movs	r2, r3
1000c05a:	2300      	movs	r3, #0
1000c05c:	4d05      	ldr	r5, [pc, #20]	; (1000c074 <_read_r+0x24>)
1000c05e:	602b      	str	r3, [r5, #0]
1000c060:	f7fb ff62 	bl	10007f28 <_read>
1000c064:	1c43      	adds	r3, r0, #1
1000c066:	d000      	beq.n	1000c06a <_read_r+0x1a>
1000c068:	bd70      	pop	{r4, r5, r6, pc}
1000c06a:	682b      	ldr	r3, [r5, #0]
1000c06c:	2b00      	cmp	r3, #0
1000c06e:	d0fb      	beq.n	1000c068 <_read_r+0x18>
1000c070:	6023      	str	r3, [r4, #0]
1000c072:	e7f9      	b.n	1000c068 <_read_r+0x18>
1000c074:	200014c0 	.word	0x200014c0

1000c078 <_fstat_r>:
1000c078:	2300      	movs	r3, #0
1000c07a:	b570      	push	{r4, r5, r6, lr}
1000c07c:	4d07      	ldr	r5, [pc, #28]	; (1000c09c <_fstat_r+0x24>)
1000c07e:	0004      	movs	r4, r0
1000c080:	0008      	movs	r0, r1
1000c082:	0011      	movs	r1, r2
1000c084:	602b      	str	r3, [r5, #0]
1000c086:	f000 f825 	bl	1000c0d4 <_fstat>
1000c08a:	1c43      	adds	r3, r0, #1
1000c08c:	d000      	beq.n	1000c090 <_fstat_r+0x18>
1000c08e:	bd70      	pop	{r4, r5, r6, pc}
1000c090:	682b      	ldr	r3, [r5, #0]
1000c092:	2b00      	cmp	r3, #0
1000c094:	d0fb      	beq.n	1000c08e <_fstat_r+0x16>
1000c096:	6023      	str	r3, [r4, #0]
1000c098:	e7f9      	b.n	1000c08e <_fstat_r+0x16>
1000c09a:	46c0      	nop			; (mov r8, r8)
1000c09c:	200014c0 	.word	0x200014c0

1000c0a0 <_isatty_r>:
1000c0a0:	2300      	movs	r3, #0
1000c0a2:	b570      	push	{r4, r5, r6, lr}
1000c0a4:	4d06      	ldr	r5, [pc, #24]	; (1000c0c0 <_isatty_r+0x20>)
1000c0a6:	0004      	movs	r4, r0
1000c0a8:	0008      	movs	r0, r1
1000c0aa:	602b      	str	r3, [r5, #0]
1000c0ac:	f000 f81a 	bl	1000c0e4 <_isatty>
1000c0b0:	1c43      	adds	r3, r0, #1
1000c0b2:	d000      	beq.n	1000c0b6 <_isatty_r+0x16>
1000c0b4:	bd70      	pop	{r4, r5, r6, pc}
1000c0b6:	682b      	ldr	r3, [r5, #0]
1000c0b8:	2b00      	cmp	r3, #0
1000c0ba:	d0fb      	beq.n	1000c0b4 <_isatty_r+0x14>
1000c0bc:	6023      	str	r3, [r4, #0]
1000c0be:	e7f9      	b.n	1000c0b4 <_isatty_r+0x14>
1000c0c0:	200014c0 	.word	0x200014c0

1000c0c4 <_close>:
1000c0c4:	2258      	movs	r2, #88	; 0x58
1000c0c6:	2001      	movs	r0, #1
1000c0c8:	4b01      	ldr	r3, [pc, #4]	; (1000c0d0 <_close+0xc>)
1000c0ca:	4240      	negs	r0, r0
1000c0cc:	601a      	str	r2, [r3, #0]
1000c0ce:	4770      	bx	lr
1000c0d0:	200014c0 	.word	0x200014c0

1000c0d4 <_fstat>:
1000c0d4:	2258      	movs	r2, #88	; 0x58
1000c0d6:	2001      	movs	r0, #1
1000c0d8:	4b01      	ldr	r3, [pc, #4]	; (1000c0e0 <_fstat+0xc>)
1000c0da:	4240      	negs	r0, r0
1000c0dc:	601a      	str	r2, [r3, #0]
1000c0de:	4770      	bx	lr
1000c0e0:	200014c0 	.word	0x200014c0

1000c0e4 <_isatty>:
1000c0e4:	2258      	movs	r2, #88	; 0x58
1000c0e6:	4b02      	ldr	r3, [pc, #8]	; (1000c0f0 <_isatty+0xc>)
1000c0e8:	2000      	movs	r0, #0
1000c0ea:	601a      	str	r2, [r3, #0]
1000c0ec:	4770      	bx	lr
1000c0ee:	46c0      	nop			; (mov r8, r8)
1000c0f0:	200014c0 	.word	0x200014c0

1000c0f4 <_lseek>:
1000c0f4:	2258      	movs	r2, #88	; 0x58
1000c0f6:	2001      	movs	r0, #1
1000c0f8:	4b01      	ldr	r3, [pc, #4]	; (1000c100 <_lseek+0xc>)
1000c0fa:	4240      	negs	r0, r0
1000c0fc:	601a      	str	r2, [r3, #0]
1000c0fe:	4770      	bx	lr
1000c100:	200014c0 	.word	0x200014c0

1000c104 <_fini>:
1000c104:	b5f8      	push	{r3, r4, r5, r6, r7, lr}
1000c106:	46c0      	nop			; (mov r8, r8)

1000c108 <__flash_do_cmd_veneer>:
1000c108:	b401      	push	{r0}
1000c10a:	4802      	ldr	r0, [pc, #8]	; (1000c114 <__flash_do_cmd_veneer+0xc>)
1000c10c:	4684      	mov	ip, r0
1000c10e:	bc01      	pop	{r0}
1000c110:	4760      	bx	ip
1000c112:	bf00      	nop
1000c114:	20000305 	.word	0x20000305

1000c118 <__mutex_exit_veneer>:
1000c118:	b401      	push	{r0}
1000c11a:	4802      	ldr	r0, [pc, #8]	; (1000c124 <__mutex_exit_veneer+0xc>)
1000c11c:	4684      	mov	ip, r0
1000c11e:	bc01      	pop	{r0}
1000c120:	4760      	bx	ip
1000c122:	bf00      	nop
1000c124:	20000251 	.word	0x20000251

1000c128 <____aeabi_ldiv0_veneer>:
1000c128:	b401      	push	{r0}
1000c12a:	4802      	ldr	r0, [pc, #8]	; (1000c134 <____aeabi_ldiv0_veneer+0xc>)
1000c12c:	4684      	mov	ip, r0
1000c12e:	bc01      	pop	{r0}
1000c130:	4760      	bx	ip
1000c132:	bf00      	nop
1000c134:	200003dd 	.word	0x200003dd

1000c138 <____aeabi_idiv0_veneer>:
1000c138:	b401      	push	{r0}
1000c13a:	4802      	ldr	r0, [pc, #8]	; (1000c144 <____aeabi_idiv0_veneer+0xc>)
1000c13c:	4684      	mov	ip, r0
1000c13e:	bc01      	pop	{r0}
1000c140:	4760      	bx	ip
1000c142:	bf00      	nop
1000c144:	200003dd 	.word	0x200003dd

1000c148 <__mutex_try_enter_veneer>:
1000c148:	b401      	push	{r0}
1000c14a:	4802      	ldr	r0, [pc, #8]	; (1000c154 <__mutex_try_enter_veneer+0xc>)
1000c14c:	4684      	mov	ip, r0
1000c14e:	bc01      	pop	{r0}
1000c150:	4760      	bx	ip
1000c152:	bf00      	nop
1000c154:	20000109 	.word	0x20000109

1000c158 <__mutex_enter_timeout_ms_veneer>:
1000c158:	b401      	push	{r0}
1000c15a:	4802      	ldr	r0, [pc, #8]	; (1000c164 <__mutex_enter_timeout_ms_veneer+0xc>)
1000c15c:	4684      	mov	ip, r0
1000c15e:	bc01      	pop	{r0}
1000c160:	4760      	bx	ip
1000c162:	bf00      	nop
1000c164:	200001dd 	.word	0x200001dd

1000c168 <__mutex_enter_blocking_veneer>:
1000c168:	b401      	push	{r0}
1000c16a:	4802      	ldr	r0, [pc, #8]	; (1000c174 <__mutex_enter_blocking_veneer+0xc>)
1000c16c:	4684      	mov	ip, r0
1000c16e:	bc01      	pop	{r0}
1000c170:	4760      	bx	ip
1000c172:	bf00      	nop
1000c174:	200000c1 	.word	0x200000c1

Disassembly of section .data:

200000c0 <mutex_enter_blocking>:
200000c0:	b510      	push	{r4, lr}
200000c2:	23d0      	movs	r3, #208	; 0xd0
200000c4:	061b      	lsls	r3, r3, #24
200000c6:	2400      	movs	r4, #0
200000c8:	571c      	ldrsb	r4, [r3, r4]
200000ca:	6802      	ldr	r2, [r0, #0]
200000cc:	f3ef 8110 	mrs	r1, PRIMASK
200000d0:	b672      	cpsid	i
200000d2:	6813      	ldr	r3, [r2, #0]
200000d4:	2b00      	cmp	r3, #0
200000d6:	d0fc      	beq.n	200000d2 <mutex_enter_blocking+0x12>
200000d8:	f3bf 8f5f 	dmb	sy
200000dc:	2304      	movs	r3, #4
200000de:	56c3      	ldrsb	r3, [r0, r3]
200000e0:	2b00      	cmp	r3, #0
200000e2:	db08      	blt.n	200000f6 <mutex_enter_blocking+0x36>
200000e4:	6803      	ldr	r3, [r0, #0]
200000e6:	f3bf 8f5f 	dmb	sy
200000ea:	2200      	movs	r2, #0
200000ec:	601a      	str	r2, [r3, #0]
200000ee:	f381 8810 	msr	PRIMASK, r1
200000f2:	bf20      	wfe
200000f4:	e7e9      	b.n	200000ca <mutex_enter_blocking+0xa>
200000f6:	7104      	strb	r4, [r0, #4]
200000f8:	6803      	ldr	r3, [r0, #0]
200000fa:	f3bf 8f5f 	dmb	sy
200000fe:	2200      	movs	r2, #0
20000100:	601a      	str	r2, [r3, #0]
20000102:	f381 8810 	msr	PRIMASK, r1
20000106:	bd10      	pop	{r4, pc}

20000108 <mutex_try_enter>:
20000108:	0003      	movs	r3, r0
2000010a:	6800      	ldr	r0, [r0, #0]
2000010c:	f3ef 8c10 	mrs	ip, PRIMASK
20000110:	b672      	cpsid	i
20000112:	6802      	ldr	r2, [r0, #0]
20000114:	2a00      	cmp	r2, #0
20000116:	d0fc      	beq.n	20000112 <mutex_try_enter+0xa>
20000118:	f3bf 8f5f 	dmb	sy
2000011c:	2204      	movs	r2, #4
2000011e:	569a      	ldrsb	r2, [r3, r2]
20000120:	2a00      	cmp	r2, #0
20000122:	db0b      	blt.n	2000013c <mutex_try_enter+0x34>
20000124:	2900      	cmp	r1, #0
20000126:	d010      	beq.n	2000014a <mutex_try_enter+0x42>
20000128:	600a      	str	r2, [r1, #0]
2000012a:	2000      	movs	r0, #0
2000012c:	681b      	ldr	r3, [r3, #0]
2000012e:	f3bf 8f5f 	dmb	sy
20000132:	2200      	movs	r2, #0
20000134:	601a      	str	r2, [r3, #0]
20000136:	f38c 8810 	msr	PRIMASK, ip
2000013a:	4770      	bx	lr
2000013c:	22d0      	movs	r2, #208	; 0xd0
2000013e:	0612      	lsls	r2, r2, #24
20000140:	7812      	ldrb	r2, [r2, #0]
20000142:	b252      	sxtb	r2, r2
20000144:	711a      	strb	r2, [r3, #4]
20000146:	2001      	movs	r0, #1
20000148:	e7f0      	b.n	2000012c <mutex_try_enter+0x24>
2000014a:	2000      	movs	r0, #0
2000014c:	e7ee      	b.n	2000012c <mutex_try_enter+0x24>
	...

20000150 <mutex_enter_block_until>:
20000150:	b5f8      	push	{r3, r4, r5, r6, r7, lr}
20000152:	46ce      	mov	lr, r9
20000154:	4647      	mov	r7, r8
20000156:	b580      	push	{r7, lr}
20000158:	0004      	movs	r4, r0
2000015a:	0017      	movs	r7, r2
2000015c:	4698      	mov	r8, r3
2000015e:	6803      	ldr	r3, [r0, #0]
20000160:	2b00      	cmp	r3, #0
20000162:	d020      	beq.n	200001a6 <mutex_enter_block_until+0x56>
20000164:	23d0      	movs	r3, #208	; 0xd0
20000166:	061b      	lsls	r3, r3, #24
20000168:	781b      	ldrb	r3, [r3, #0]
2000016a:	b25b      	sxtb	r3, r3
2000016c:	4699      	mov	r9, r3
2000016e:	6826      	ldr	r6, [r4, #0]
20000170:	f3ef 8c10 	mrs	ip, PRIMASK
20000174:	b672      	cpsid	i
20000176:	6835      	ldr	r5, [r6, #0]
20000178:	2d00      	cmp	r5, #0
2000017a:	d0fc      	beq.n	20000176 <mutex_enter_block_until+0x26>
2000017c:	f3bf 8f5f 	dmb	sy
20000180:	2504      	movs	r5, #4
20000182:	5765      	ldrsb	r5, [r4, r5]
20000184:	2d00      	cmp	r5, #0
20000186:	db14      	blt.n	200001b2 <mutex_enter_block_until+0x62>
20000188:	6823      	ldr	r3, [r4, #0]
2000018a:	f3bf 8f5f 	dmb	sy
2000018e:	2200      	movs	r2, #0
20000190:	601a      	str	r2, [r3, #0]
20000192:	f38c 8810 	msr	PRIMASK, ip
20000196:	0038      	movs	r0, r7
20000198:	4641      	mov	r1, r8
2000019a:	f000 f939 	bl	20000410 <__best_effort_wfe_or_timeout_veneer>
2000019e:	2800      	cmp	r0, #0
200001a0:	d0e5      	beq.n	2000016e <mutex_enter_block_until+0x1e>
200001a2:	2000      	movs	r0, #0
200001a4:	e00f      	b.n	200001c6 <mutex_enter_block_until+0x76>
200001a6:	4b0a      	ldr	r3, [pc, #40]	; (200001d0 <mutex_enter_block_until+0x80>)
200001a8:	4a0a      	ldr	r2, [pc, #40]	; (200001d4 <mutex_enter_block_until+0x84>)
200001aa:	217a      	movs	r1, #122	; 0x7a
200001ac:	480a      	ldr	r0, [pc, #40]	; (200001d8 <mutex_enter_block_until+0x88>)
200001ae:	f000 f927 	bl	20000400 <____assert_func_veneer>
200001b2:	464b      	mov	r3, r9
200001b4:	7123      	strb	r3, [r4, #4]
200001b6:	6823      	ldr	r3, [r4, #0]
200001b8:	f3bf 8f5f 	dmb	sy
200001bc:	2200      	movs	r2, #0
200001be:	601a      	str	r2, [r3, #0]
200001c0:	f38c 8810 	msr	PRIMASK, ip
200001c4:	2001      	movs	r0, #1
200001c6:	bcc0      	pop	{r6, r7}
200001c8:	46b9      	mov	r9, r7
200001ca:	46b0      	mov	r8, r6
200001cc:	bdf8      	pop	{r3, r4, r5, r6, r7, pc}
200001ce:	46c0      	nop			; (mov r8, r8)
200001d0:	1000cf90 	.word	0x1000cf90
200001d4:	1000cfe8 	.word	0x1000cfe8
200001d8:	1000cf4c 	.word	0x1000cf4c

200001dc <mutex_enter_timeout_ms>:
200001dc:	b5f0      	push	{r4, r5, r6, r7, lr}
200001de:	46c6      	mov	lr, r8
200001e0:	b500      	push	{lr}
200001e2:	b082      	sub	sp, #8
200001e4:	0007      	movs	r7, r0
200001e6:	4688      	mov	r8, r1
200001e8:	f000 f902 	bl	200003f0 <__time_us_64_veneer>
200001ec:	0004      	movs	r4, r0
200001ee:	1e0d      	subs	r5, r1, #0
200001f0:	db1c      	blt.n	2000022c <mutex_enter_timeout_ms+0x50>
200001f2:	9001      	str	r0, [sp, #4]
200001f4:	22fa      	movs	r2, #250	; 0xfa
200001f6:	0092      	lsls	r2, r2, #2
200001f8:	2300      	movs	r3, #0
200001fa:	4640      	mov	r0, r8
200001fc:	2100      	movs	r1, #0
200001fe:	f000 f8ef 	bl	200003e0 <____wrap___aeabi_lmul_veneer>
20000202:	0022      	movs	r2, r4
20000204:	002b      	movs	r3, r5
20000206:	1812      	adds	r2, r2, r0
20000208:	414b      	adcs	r3, r1
2000020a:	429d      	cmp	r5, r3
2000020c:	d802      	bhi.n	20000214 <mutex_enter_timeout_ms+0x38>
2000020e:	d104      	bne.n	2000021a <mutex_enter_timeout_ms+0x3e>
20000210:	4294      	cmp	r4, r2
20000212:	d902      	bls.n	2000021a <mutex_enter_timeout_ms+0x3e>
20000214:	2201      	movs	r2, #1
20000216:	4252      	negs	r2, r2
20000218:	17d3      	asrs	r3, r2, #31
2000021a:	2b00      	cmp	r3, #0
2000021c:	db0c      	blt.n	20000238 <mutex_enter_timeout_ms+0x5c>
2000021e:	0038      	movs	r0, r7
20000220:	f7ff ff96 	bl	20000150 <mutex_enter_block_until>
20000224:	b002      	add	sp, #8
20000226:	bc80      	pop	{r7}
20000228:	46b8      	mov	r8, r7
2000022a:	bdf0      	pop	{r4, r5, r6, r7, pc}
2000022c:	4b05      	ldr	r3, [pc, #20]	; (20000244 <mutex_enter_timeout_ms+0x68>)
2000022e:	4a06      	ldr	r2, [pc, #24]	; (20000248 <mutex_enter_timeout_ms+0x6c>)
20000230:	213f      	movs	r1, #63	; 0x3f
20000232:	4806      	ldr	r0, [pc, #24]	; (2000024c <mutex_enter_timeout_ms+0x70>)
20000234:	f000 f8e4 	bl	20000400 <____assert_func_veneer>
20000238:	4b02      	ldr	r3, [pc, #8]	; (20000244 <mutex_enter_timeout_ms+0x68>)
2000023a:	4a03      	ldr	r2, [pc, #12]	; (20000248 <mutex_enter_timeout_ms+0x6c>)
2000023c:	213f      	movs	r1, #63	; 0x3f
2000023e:	4803      	ldr	r0, [pc, #12]	; (2000024c <mutex_enter_timeout_ms+0x70>)
20000240:	f000 f8de 	bl	20000400 <____assert_func_veneer>
20000244:	1000cb08 	.word	0x1000cb08
20000248:	1000d000 	.word	0x1000d000
2000024c:	1000cb24 	.word	0x1000cb24

20000250 <mutex_exit>:
20000250:	b510      	push	{r4, lr}
20000252:	6802      	ldr	r2, [r0, #0]
20000254:	f3ef 8110 	mrs	r1, PRIMASK
20000258:	b672      	cpsid	i
2000025a:	6813      	ldr	r3, [r2, #0]
2000025c:	2b00      	cmp	r3, #0
2000025e:	d0fc      	beq.n	2000025a <mutex_exit+0xa>
20000260:	f3bf 8f5f 	dmb	sy
20000264:	2304      	movs	r3, #4
20000266:	56c3      	ldrsb	r3, [r0, r3]
20000268:	2b00      	cmp	r3, #0
2000026a:	db0a      	blt.n	20000282 <mutex_exit+0x32>
2000026c:	23ff      	movs	r3, #255	; 0xff
2000026e:	7103      	strb	r3, [r0, #4]
20000270:	6803      	ldr	r3, [r0, #0]
20000272:	f3bf 8f5f 	dmb	sy
20000276:	2200      	movs	r2, #0
20000278:	601a      	str	r2, [r3, #0]
2000027a:	f381 8810 	msr	PRIMASK, r1
2000027e:	bf40      	sev
20000280:	bd10      	pop	{r4, pc}
20000282:	4b03      	ldr	r3, [pc, #12]	; (20000290 <mutex_exit+0x40>)
20000284:	4a03      	ldr	r2, [pc, #12]	; (20000294 <mutex_exit+0x44>)
20000286:	21a9      	movs	r1, #169	; 0xa9
20000288:	4803      	ldr	r0, [pc, #12]	; (20000298 <mutex_exit+0x48>)
2000028a:	f000 f8b9 	bl	20000400 <____assert_func_veneer>
2000028e:	46c0      	nop			; (mov r8, r8)
20000290:	1000cfa4 	.word	0x1000cfa4
20000294:	1000cfdc 	.word	0x1000cfdc
20000298:	1000cf4c 	.word	0x1000cf4c

2000029c <flash_init_boot2_copyout>:
2000029c:	4b09      	ldr	r3, [pc, #36]	; (200002c4 <flash_init_boot2_copyout+0x28>)
2000029e:	781b      	ldrb	r3, [r3, #0]
200002a0:	2b00      	cmp	r3, #0
200002a2:	d008      	beq.n	200002b6 <flash_init_boot2_copyout+0x1a>
200002a4:	e00c      	b.n	200002c0 <flash_init_boot2_copyout+0x24>
200002a6:	009a      	lsls	r2, r3, #2
200002a8:	2180      	movs	r1, #128	; 0x80
200002aa:	0549      	lsls	r1, r1, #21
200002ac:	1851      	adds	r1, r2, r1
200002ae:	6808      	ldr	r0, [r1, #0]
200002b0:	4905      	ldr	r1, [pc, #20]	; (200002c8 <flash_init_boot2_copyout+0x2c>)
200002b2:	5050      	str	r0, [r2, r1]
200002b4:	3301      	adds	r3, #1
200002b6:	2b3f      	cmp	r3, #63	; 0x3f
200002b8:	ddf5      	ble.n	200002a6 <flash_init_boot2_copyout+0xa>
200002ba:	4b02      	ldr	r3, [pc, #8]	; (200002c4 <flash_init_boot2_copyout+0x28>)
200002bc:	2201      	movs	r2, #1
200002be:	701a      	strb	r2, [r3, #0]
200002c0:	4770      	bx	lr
200002c2:	46c0      	nop			; (mov r8, r8)
200002c4:	20001b24 	.word	0x20001b24
200002c8:	20001328 	.word	0x20001328

200002cc <flash_enable_xip_via_boot2>:
200002cc:	b510      	push	{r4, lr}
200002ce:	4b02      	ldr	r3, [pc, #8]	; (200002d8 <flash_enable_xip_via_boot2+0xc>)
200002d0:	3301      	adds	r3, #1
200002d2:	4798      	blx	r3
200002d4:	bd10      	pop	{r4, pc}
200002d6:	46c0      	nop			; (mov r8, r8)
200002d8:	20001328 	.word	0x20001328

200002dc <flash_cs_force>:
200002dc:	2800      	cmp	r0, #0
200002de:	d00a      	beq.n	200002f6 <flash_cs_force+0x1a>
200002e0:	2303      	movs	r3, #3
200002e2:	021b      	lsls	r3, r3, #8
200002e4:	4a05      	ldr	r2, [pc, #20]	; (200002fc <flash_cs_force+0x20>)
200002e6:	6812      	ldr	r2, [r2, #0]
200002e8:	4053      	eors	r3, r2
200002ea:	22c0      	movs	r2, #192	; 0xc0
200002ec:	0092      	lsls	r2, r2, #2
200002ee:	4013      	ands	r3, r2
200002f0:	4a03      	ldr	r2, [pc, #12]	; (20000300 <flash_cs_force+0x24>)
200002f2:	6013      	str	r3, [r2, #0]
200002f4:	4770      	bx	lr
200002f6:	2302      	movs	r3, #2
200002f8:	e7f3      	b.n	200002e2 <flash_cs_force+0x6>
200002fa:	46c0      	nop			; (mov r8, r8)
200002fc:	4001800c 	.word	0x4001800c
20000300:	4001900c 	.word	0x4001900c

20000304 <flash_do_cmd>:
20000304:	b5f0      	push	{r4, r5, r6, r7, lr}
20000306:	46d6      	mov	lr, sl
20000308:	464f      	mov	r7, r9
2000030a:	4646      	mov	r6, r8
2000030c:	b5c0      	push	{r6, r7, lr}
2000030e:	0007      	movs	r7, r0
20000310:	000e      	movs	r6, r1
20000312:	0015      	movs	r5, r2
20000314:	2318      	movs	r3, #24
20000316:	469a      	mov	sl, r3
20000318:	881b      	ldrh	r3, [r3, #0]
2000031a:	2214      	movs	r2, #20
2000031c:	4690      	mov	r8, r2
2000031e:	8810      	ldrh	r0, [r2, #0]
20000320:	4928      	ldr	r1, [pc, #160]	; (200003c4 <flash_do_cmd+0xc0>)
20000322:	4798      	blx	r3
20000324:	4681      	mov	r9, r0
20000326:	4653      	mov	r3, sl
20000328:	881b      	ldrh	r3, [r3, #0]
2000032a:	4642      	mov	r2, r8
2000032c:	8810      	ldrh	r0, [r2, #0]
2000032e:	4926      	ldr	r1, [pc, #152]	; (200003c8 <flash_do_cmd+0xc4>)
20000330:	4798      	blx	r3
20000332:	0004      	movs	r4, r0
20000334:	4653      	mov	r3, sl
20000336:	881b      	ldrh	r3, [r3, #0]
20000338:	4642      	mov	r2, r8
2000033a:	8810      	ldrh	r0, [r2, #0]
2000033c:	4923      	ldr	r1, [pc, #140]	; (200003cc <flash_do_cmd+0xc8>)
2000033e:	4798      	blx	r3
20000340:	4680      	mov	r8, r0
20000342:	464b      	mov	r3, r9
20000344:	2b00      	cmp	r3, #0
20000346:	d00c      	beq.n	20000362 <flash_do_cmd+0x5e>
20000348:	2c00      	cmp	r4, #0
2000034a:	d00a      	beq.n	20000362 <flash_do_cmd+0x5e>
2000034c:	2800      	cmp	r0, #0
2000034e:	d008      	beq.n	20000362 <flash_do_cmd+0x5e>
20000350:	f7ff ffa4 	bl	2000029c <flash_init_boot2_copyout>
20000354:	47c8      	blx	r9
20000356:	47a0      	blx	r4
20000358:	2000      	movs	r0, #0
2000035a:	f7ff ffbf 	bl	200002dc <flash_cs_force>
2000035e:	002a      	movs	r2, r5
20000360:	e00f      	b.n	20000382 <flash_do_cmd+0x7e>
20000362:	4b1b      	ldr	r3, [pc, #108]	; (200003d0 <flash_do_cmd+0xcc>)
20000364:	4a1b      	ldr	r2, [pc, #108]	; (200003d4 <flash_do_cmd+0xd0>)
20000366:	2180      	movs	r1, #128	; 0x80
20000368:	481b      	ldr	r0, [pc, #108]	; (200003d8 <flash_do_cmd+0xd4>)
2000036a:	f000 f849 	bl	20000400 <____assert_func_veneer>
2000036e:	2b00      	cmp	r3, #0
20000370:	d007      	beq.n	20000382 <flash_do_cmd+0x7e>
20000372:	2a00      	cmp	r2, #0
20000374:	d005      	beq.n	20000382 <flash_do_cmd+0x7e>
20000376:	23c0      	movs	r3, #192	; 0xc0
20000378:	055b      	lsls	r3, r3, #21
2000037a:	6e1b      	ldr	r3, [r3, #96]	; 0x60
2000037c:	7033      	strb	r3, [r6, #0]
2000037e:	3a01      	subs	r2, #1
20000380:	3601      	adds	r6, #1
20000382:	002b      	movs	r3, r5
20000384:	4313      	orrs	r3, r2
20000386:	d012      	beq.n	200003ae <flash_do_cmd+0xaa>
20000388:	23c0      	movs	r3, #192	; 0xc0
2000038a:	055b      	lsls	r3, r3, #21
2000038c:	6a9c      	ldr	r4, [r3, #40]	; 0x28
2000038e:	2308      	movs	r3, #8
20000390:	4023      	ands	r3, r4
20000392:	07a1      	lsls	r1, r4, #30
20000394:	d5eb      	bpl.n	2000036e <flash_do_cmd+0x6a>
20000396:	2d00      	cmp	r5, #0
20000398:	d0e9      	beq.n	2000036e <flash_do_cmd+0x6a>
2000039a:	1b51      	subs	r1, r2, r5
2000039c:	290d      	cmp	r1, #13
2000039e:	d8e6      	bhi.n	2000036e <flash_do_cmd+0x6a>
200003a0:	7838      	ldrb	r0, [r7, #0]
200003a2:	21c0      	movs	r1, #192	; 0xc0
200003a4:	0549      	lsls	r1, r1, #21
200003a6:	6608      	str	r0, [r1, #96]	; 0x60
200003a8:	3d01      	subs	r5, #1
200003aa:	3701      	adds	r7, #1
200003ac:	e7df      	b.n	2000036e <flash_do_cmd+0x6a>
200003ae:	2001      	movs	r0, #1
200003b0:	f7ff ff94 	bl	200002dc <flash_cs_force>
200003b4:	47c0      	blx	r8
200003b6:	f7ff ff89 	bl	200002cc <flash_enable_xip_via_boot2>
200003ba:	bce0      	pop	{r5, r6, r7}
200003bc:	46ba      	mov	sl, r7
200003be:	46b1      	mov	r9, r6
200003c0:	46a8      	mov	r8, r5
200003c2:	bdf0      	pop	{r4, r5, r6, r7, pc}
200003c4:	00004649 	.word	0x00004649
200003c8:	00005845 	.word	0x00005845
200003cc:	00004346 	.word	0x00004346
200003d0:	1000de34 	.word	0x1000de34
200003d4:	1000de74 	.word	0x1000de74
200003d8:	1000dd3c 	.word	0x1000dd3c

200003dc <__aeabi_idiv0>:
200003dc:	4770      	bx	lr
200003de:	46c0      	nop			; (mov r8, r8)

200003e0 <____wrap___aeabi_lmul_veneer>:
200003e0:	b401      	push	{r0}
200003e2:	4802      	ldr	r0, [pc, #8]	; (200003ec <____wrap___aeabi_lmul_veneer+0xc>)
200003e4:	4684      	mov	ip, r0
200003e6:	bc01      	pop	{r0}
200003e8:	4760      	bx	ip
200003ea:	bf00      	nop
200003ec:	10007ae5 	.word	0x10007ae5

200003f0 <__time_us_64_veneer>:
200003f0:	b401      	push	{r0}
200003f2:	4802      	ldr	r0, [pc, #8]	; (200003fc <__time_us_64_veneer+0xc>)
200003f4:	4684      	mov	ip, r0
200003f6:	bc01      	pop	{r0}
200003f8:	4760      	bx	ip
200003fa:	bf00      	nop
200003fc:	10004fad 	.word	0x10004fad

20000400 <____assert_func_veneer>:
20000400:	b401      	push	{r0}
20000402:	4802      	ldr	r0, [pc, #8]	; (2000040c <____assert_func_veneer+0xc>)
20000404:	4684      	mov	ip, r0
20000406:	bc01      	pop	{r0}
20000408:	4760      	bx	ip
2000040a:	bf00      	nop
2000040c:	100056b1 	.word	0x100056b1

20000410 <__best_effort_wfe_or_timeout_veneer>:
20000410:	b401      	push	{r0}
20000412:	4802      	ldr	r0, [pc, #8]	; (2000041c <__best_effort_wfe_or_timeout_veneer+0xc>)
20000414:	4684      	mov	ip, r0
20000416:	bc01      	pop	{r0}
20000418:	4760      	bx	ip
2000041a:	bf00      	nop
2000041c:	10004e89 	.word	0x10004e89

20000420 <striped_spin_lock_num>:
20000420:	00000010                                ....

20000424 <irq_handler_chain_slots>:
20000424:	00000000 	.word	0x00000000
20000428:	00010000 	.word	0x00010000
	...
20000434:	00020000 	.word	0x00020000
	...
20000440:	00030000 	.word	0x00030000
	...
2000044c:	00ff0000 	.word	0x00ff0000
20000450:	00000000 	.word	0x00000000

20000454 <irq_handler_chain_first_slot>:
20000454:	b500      	push	{lr}
20000456:	6848      	ldr	r0, [r1, #4]
20000458:	3101      	adds	r1, #1
2000045a:	468e      	mov	lr, r1
2000045c:	4700      	bx	r0

2000045e <irq_handler_chain_remove_tail>:
2000045e:	4670      	mov	r0, lr
20000460:	3809      	subs	r0, #9
20000462:	4901      	ldr	r1, [pc, #4]	; (20000468 <irq_handler_chain_remove_tail+0xa>)
20000464:	4788      	blx	r1
20000466:	bd00      	pop	{pc}
20000468:	100042a5 	.word	0x100042a5

2000046c <default_alarm_pool>:
2000046c:	20000484 00000000 20000d60 20001454     ... ....`.. T.. 
	...

20000484 <default_alarm_pool_heap>:
20000484:	20001464 00000000 00000000 00000010     d.. ............
	...

200004a0 <aeabi_bits_funcs>:
200004a0:	00003350 	.word	0x00003350
200004a4:	0000334c 	.word	0x0000334c
200004a8:	00003354 	.word	0x00003354
200004ac:	00003352 	.word	0x00003352

200004b0 <aeabi_bits_funcs_end>:
200004b0:	0000534d 	.word	0x0000534d
200004b4:	0000434d 	.word	0x0000434d
200004b8:	00003453 	.word	0x00003453
200004bc:	00003443 	.word	0x00003443

200004c0 <stdio_usb>:
200004c0:	100081c1 00000000 10008131 00000000     ........1.......
200004d0:	00000100                                ....

200004d4 <ep_dir_string>:
200004d4:	1000dab0 1000dab4                       ........

200004dc <_usbd_qdef>:
200004dc:	20001258 000c0010 ffe00000 0000001f     X.. ............
	...

20000500 <_impure_ptr>:
20000500:	20000508 00000000                       ... ....

20000508 <impure_data>:
20000508:	00000000 200007f4 2000085c 200008c4     ....... \.. ... 
	...
200005b0:	00000001 00000000 abcd330e e66d1234     .........3..4.m.
200005c0:	0005deec 0000000b 00000000 00000000     ................
	...

20000930 <__malloc_av_>:
	...
20000938:	20000930 20000930 20000938 20000938     0.. 0.. 8.. 8.. 
20000948:	20000940 20000940 20000948 20000948     @.. @.. H.. H.. 
20000958:	20000950 20000950 20000958 20000958     P.. P.. X.. X.. 
20000968:	20000960 20000960 20000968 20000968     `.. `.. h.. h.. 
20000978:	20000970 20000970 20000978 20000978     p.. p.. x.. x.. 
20000988:	20000980 20000980 20000988 20000988     ... ... ... ... 
20000998:	20000990 20000990 20000998 20000998     ... ... ... ... 
200009a8:	200009a0 200009a0 200009a8 200009a8     ... ... ... ... 
200009b8:	200009b0 200009b0 200009b8 200009b8     ... ... ... ... 
200009c8:	200009c0 200009c0 200009c8 200009c8     ... ... ... ... 
200009d8:	200009d0 200009d0 200009d8 200009d8     ... ... ... ... 
200009e8:	200009e0 200009e0 200009e8 200009e8     ... ... ... ... 
200009f8:	200009f0 200009f0 200009f8 200009f8     ... ... ... ... 
20000a08:	20000a00 20000a00 20000a08 20000a08     ... ... ... ... 
20000a18:	20000a10 20000a10 20000a18 20000a18     ... ... ... ... 
20000a28:	20000a20 20000a20 20000a28 20000a28      ..  .. (.. (.. 
20000a38:	20000a30 20000a30 20000a38 20000a38     0.. 0.. 8.. 8.. 
20000a48:	20000a40 20000a40 20000a48 20000a48     @.. @.. H.. H.. 
20000a58:	20000a50 20000a50 20000a58 20000a58     P.. P.. X.. X.. 
20000a68:	20000a60 20000a60 20000a68 20000a68     `.. `.. h.. h.. 
20000a78:	20000a70 20000a70 20000a78 20000a78     p.. p.. x.. x.. 
20000a88:	20000a80 20000a80 20000a88 20000a88     ... ... ... ... 
20000a98:	20000a90 20000a90 20000a98 20000a98     ... ... ... ... 
20000aa8:	20000aa0 20000aa0 20000aa8 20000aa8     ... ... ... ... 
20000ab8:	20000ab0 20000ab0 20000ab8 20000ab8     ... ... ... ... 
20000ac8:	20000ac0 20000ac0 20000ac8 20000ac8     ... ... ... ... 
20000ad8:	20000ad0 20000ad0 20000ad8 20000ad8     ... ... ... ... 
20000ae8:	20000ae0 20000ae0 20000ae8 20000ae8     ... ... ... ... 
20000af8:	20000af0 20000af0 20000af8 20000af8     ... ... ... ... 
20000b08:	20000b00 20000b00 20000b08 20000b08     ... ... ... ... 
20000b18:	20000b10 20000b10 20000b18 20000b18     ... ... ... ... 
20000b28:	20000b20 20000b20 20000b28 20000b28      ..  .. (.. (.. 
20000b38:	20000b30 20000b30 20000b38 20000b38     0.. 0.. 8.. 8.. 
20000b48:	20000b40 20000b40 20000b48 20000b48     @.. @.. H.. H.. 
20000b58:	20000b50 20000b50 20000b58 20000b58     P.. P.. X.. X.. 
20000b68:	20000b60 20000b60 20000b68 20000b68     `.. `.. h.. h.. 
20000b78:	20000b70 20000b70 20000b78 20000b78     p.. p.. x.. x.. 
20000b88:	20000b80 20000b80 20000b88 20000b88     ... ... ... ... 
20000b98:	20000b90 20000b90 20000b98 20000b98     ... ... ... ... 
20000ba8:	20000ba0 20000ba0 20000ba8 20000ba8     ... ... ... ... 
20000bb8:	20000bb0 20000bb0 20000bb8 20000bb8     ... ... ... ... 
20000bc8:	20000bc0 20000bc0 20000bc8 20000bc8     ... ... ... ... 
20000bd8:	20000bd0 20000bd0 20000bd8 20000bd8     ... ... ... ... 
20000be8:	20000be0 20000be0 20000be8 20000be8     ... ... ... ... 
20000bf8:	20000bf0 20000bf0 20000bf8 20000bf8     ... ... ... ... 
20000c08:	20000c00 20000c00 20000c08 20000c08     ... ... ... ... 
20000c18:	20000c10 20000c10 20000c18 20000c18     ... ... ... ... 
20000c28:	20000c20 20000c20 20000c28 20000c28      ..  .. (.. (.. 
20000c38:	20000c30 20000c30 20000c38 20000c38     0.. 0.. 8.. 8.. 
20000c48:	20000c40 20000c40 20000c48 20000c48     @.. @.. H.. H.. 
20000c58:	20000c50 20000c50 20000c58 20000c58     P.. P.. X.. X.. 
20000c68:	20000c60 20000c60 20000c68 20000c68     `.. `.. h.. h.. 
20000c78:	20000c70 20000c70 20000c78 20000c78     p.. p.. x.. x.. 
20000c88:	20000c80 20000c80 20000c88 20000c88     ... ... ... ... 
20000c98:	20000c90 20000c90 20000c98 20000c98     ... ... ... ... 
20000ca8:	20000ca0 20000ca0 20000ca8 20000ca8     ... ... ... ... 
20000cb8:	20000cb0 20000cb0 20000cb8 20000cb8     ... ... ... ... 
20000cc8:	20000cc0 20000cc0 20000cc8 20000cc8     ... ... ... ... 
20000cd8:	20000cd0 20000cd0 20000cd8 20000cd8     ... ... ... ... 
20000ce8:	20000ce0 20000ce0 20000ce8 20000ce8     ... ... ... ... 
20000cf8:	20000cf0 20000cf0 20000cf8 20000cf8     ... ... ... ... 
20000d08:	20000d00 20000d00 20000d08 20000d08     ... ... ... ... 
20000d18:	20000d10 20000d10 20000d18 20000d18     ... ... ... ... 
20000d28:	20000d20 20000d20 20000d28 20000d28      ..  .. (.. (.. 

20000d38 <__malloc_sbrk_base>:
20000d38:	ffffffff                                ....

20000d3c <__malloc_trim_threshold>:
20000d3c:	00020000                                ....

20000d40 <print_mutex>:
	...

20000d48 <__mutex_array_end>:
20000d48:	10007c99 	.word	0x10007c99
20000d4c:	10006da5 	.word	0x10006da5
20000d50:	100074b5 	.word	0x100074b5
20000d54:	10007b19 	.word	0x10007b19

20000d58 <__frame_dummy_init_array_entry>:
20000d58:	100002ed 1000abb1                       ........
